 robinson

 Timestamp is 5357e212 (Wed Apr 23 16:53:54 2014)

 Preferred load address is 10000000

 Start         Length     Name                   Class
 0001:00000000 00129ab6H .text                   CODE
 0001:00129ac0 0001e1d1H .text$x                 CODE
 0001:00147ca0 000015ecH .text$yc                CODE
 0001:00149290 00000cbaH .text$yd                CODE
 0002:00000000 000018e0H .idata$5                DATA
 0002:000018e0 00000004H .CRT$XCA                DATA
 0002:000018e4 00000208H .CRT$XCU                DATA
 0002:00001aec 00000004H .CRT$XCZ                DATA
 0002:00001af0 00000004H .CRT$XIA                DATA
 0002:00001af4 00000004H .CRT$XIAA               DATA
 0002:00001af8 00000004H .CRT$XIC                DATA
 0002:00001afc 00000004H .CRT$XIZ                DATA
 0002:00001b00 000290c0H .rdata                  DATA
 0002:0002abc0 00000084H .rdata$debug            DATA
 0002:0002ac48 00006a08H .rdata$r                DATA
 0002:00031650 00001ba0H .rdata$sxdata           DATA
 0002:000331f0 00000004H .rtc$IAA                DATA
 0002:000331f4 00000004H .rtc$IZZ                DATA
 0002:000331f8 00000004H .rtc$TAA                DATA
 0002:000331fc 00000004H .rtc$TZZ                DATA
 0002:00033200 00022074H .xdata$x                DATA
 0002:00055274 000000dcH .idata$2                DATA
 0002:00055350 00000014H .idata$3                DATA
 0002:00055364 000018e0H .idata$4                DATA
 0002:00056c44 0001045cH .idata$6                DATA
 0002:000670a0 000006baH .edata                  DATA
 0003:00000000 00006c14H .data                   DATA
 0003:00006c18 00001178H .bss                    DATA
 0004:00000000 00000058H .rsrc$01                DATA
 0004:00000060 000002f0H .rsrc$02                DATA

  Address         Publics by Value              Rva+Base       Lib:Object

 0000:00000000       __except_list              00000000     <absolute>
 0000:000006e8       ___safe_se_handler_count   000006e8     <absolute>
 0000:00009876       __ldused                   00009876     <absolute>
 0000:00009876       __fltused                  00009876     <absolute>
 0000:00000000       ___ImageBase               10000000     <linker-defined>
 0001:00000000       ?qHash@@YAII@Z             10001000 f i addressrange.obj
 0001:00000010       ??0AddressRange@@QAE@XZ    10001010 f   addressrange.obj
 0001:00000030       ??0AddressRange@@QAE@I@Z   10001030 f   addressrange.obj
 0001:00000050       ??1AddressRange@@UAE@XZ    10001050 f   addressrange.obj
 0001:00000060       ?low@AddressRange@@QBEIXZ  10001060 f   addressrange.obj
 0001:00000070       ?isRange@AddressRange@@QBE_NXZ 10001070 f   addressrange.obj
 0001:00000080       ??MAddressRange@@QBE_NABV0@@Z 10001080 f   addressrange.obj
 0001:000000a0       ?qHash@@YAIABVAddressRange@@@Z 100010a0 f   addressrange.obj
 0001:000000b0       ??$qMin@I@@YAABIABI0@Z     100010b0 f i addressrange.obj
 0001:000000d0       ??$qMax@I@@YAABIABI0@Z     100010d0 f i addressrange.obj
 0001:000000f0       ??_EAddressRange@@UAEPAXI@Z 100010f0 f i addressrange.obj
 0001:000000f0       ??_GAddressRange@@UAEPAXI@Z 100010f0 f i addressrange.obj
 0001:00000110       ??0AddressRange@@QAE@II@Z  10001110 f   addressrange.obj
 0001:00000170       ?high@AddressRange@@QBEIXZ 10001170 f   addressrange.obj
 0001:00000180       ??8AddressRange@@QBE_NABV0@@Z 10001180 f   addressrange.obj
 0001:000001f0       ??2@YAPAXIPAX@Z            100011f0 f i aliastype.obj
 0001:00000200       ??0AliasType@@QAE@ABVQString@@PAVSymbolType@@@Z 10001200 f   aliastype.obj
 0001:00000230       ?resolveForward@SymbolType@@UBEPBV1@XZ 10001230 f i aliastype.obj
 0001:00000240       ?isFunction@SymbolType@@UBE_NXZ 10001240 f i aliastype.obj
 0001:00000250       ?isForward@SymbolType@@UBE_NXZ 10001250 f i aliastype.obj
 0001:00000260       ??1AliasType@@UAE@XZ       10001260 f   aliastype.obj
 0001:00000270       ?name@AliasType@@UBE?AVQString@@XZ 10001270 f   aliastype.obj
 0001:00000390       ?describe@AliasType@@UBE?AVQString@@XZ 10001390 f   aliastype.obj
 0001:000004b0       ?size@AliasType@@UBEHPBVLocationResolver@@@Z 100014b0 f   aliastype.obj
 0001:000004c0       ?childCount@AliasType@@UBEHPBVLocationResolver@@@Z 100014c0 f   aliastype.obj
 0001:000004d0       ?child@AliasType@@UBE?AVSymbol@@ABVLocation@@HPAVLocationResolver@@@Z 100014d0 f   aliastype.obj
 0001:00000500       ?formatValue@AliasType@@UBE?AVQString@@ABVLocation@@PBVLocationResolver@@@Z 10001500 f   aliastype.obj
 0001:00000530       ?readVariant@AliasType@@UBE?AVQVariant@@ABVLocation@@PBVLocationResolver@@@Z 10001530 f   aliastype.obj
 0001:00000560       ?writeVariant@AliasType@@UBE_NABVQVariant@@ABVLocation@@PAVLocationResolver@@@Z 10001560 f   aliastype.obj
 0001:00000570       ?baseType@AliasType@@UBEPAVSymbolType@@XZ 10001570 f   aliastype.obj
 0001:00000580       ?isWritable@AliasType@@UBE_NXZ 10001580 f   aliastype.obj
 0001:00000590       ?setWritable@AliasType@@IAEX_N@Z 10001590 f   aliastype.obj
 0001:000005b0       ?isVolatile@AliasType@@UBE_NXZ 100015b0 f   aliastype.obj
 0001:000005c0       ?setVolatile@AliasType@@IAEX_N@Z 100015c0 f   aliastype.obj
 0001:000005e0       ?performRangeChecking@AliasType@@UBE_NXZ 100015e0 f   aliastype.obj
 0001:000005f0       ?setPerformRangeChecking@AliasType@@IAEX_N@Z 100015f0 f   aliastype.obj
 0001:00000610       ?pointerSize@AliasType@@UBEHPBVLocationResolver@@@Z 10001610 f   aliastype.obj
 0001:00000620       ?isChar@AliasType@@UBE_NXZ 10001620 f   aliastype.obj
 0001:00000630       ?node_construct@?$QList@PAVSymbolType@@@@AAEXPAUNode@1@ABQAVSymbolType@@@Z 10001630 f i aliastype.obj
 0001:00000640       ?node_copy@?$QList@PAVSymbolType@@@@AAEXPAUNode@1@00@Z 10001640 f i aliastype.obj
 0001:00000650       ?node_destruct@?$QList@PAVSymbolType@@@@AAEXPAUNode@1@0@Z 10001650 f i aliastype.obj
 0001:00000660       ??_GAliasType@@UAEPAXI@Z   10001660 f i aliastype.obj
 0001:00000660       ??_EAliasType@@UAEPAXI@Z   10001660 f i aliastype.obj
 0001:00000690       ?free@?$QList@PAVSymbolType@@@@AAEXPAUData@QListData@@@Z 10001690 f i aliastype.obj
 0001:000006b0       ?detach_helper@?$QList@PAVSymbolType@@@@AAEXXZ 100016b0 f i aliastype.obj
 0001:000006d0       ?detach@?$QList@PAVSymbolType@@@@QAEXXZ 100016d0 f i aliastype.obj
 0001:00000700       ?append@?$QList@PAVSymbolType@@@@QAEXABQAVSymbolType@@@Z 10001700 f i aliastype.obj
 0001:00000750       ?wrapChildrenConst@AliasType@@UAEPAVSymbolType@@PAV?$QList@PAVSymbolType@@@@@Z 10001750 f   aliastype.obj
 0001:00000870       ?wrapChildrenVolatile@AliasType@@UAEPAVSymbolType@@PAV?$QList@PAVSymbolType@@@@@Z 10001870 f   aliastype.obj
 0001:00000990       ??H@YA?BVQString@@ABV0@0@Z 10001990 f i arraytype.obj
 0001:00000a00       ??H@YA?BVQString@@ABV0@PBD@Z 10001a00 f i arraytype.obj
 0001:00000aa0       ??H@YA?BVQString@@PBDABV0@@Z 10001aa0 f i arraytype.obj
 0001:00000b10       ??0ArrayType@@QAE@ABVQString@@PAVSymbolType@@1@Z 10001b10 f   arraytype.obj
 0001:00000b40       ?isChar@SymbolType@@UBE_NXZ 10001b40 f i arraytype.obj
 0001:00000b50       ??1ArrayType@@UAE@XZ       10001b50 f   arraytype.obj
 0001:00000b60       ?describe@ArrayType@@UBE?AVQString@@XZ 10001b60 f   arraytype.obj
 0001:00000d80       ?size@ArrayType@@UBEHPBVLocationResolver@@@Z 10001d80 f   arraytype.obj
 0001:00000db0       ?child@ArrayType@@UBE?AVSymbol@@ABVLocation@@HPAVLocationResolver@@@Z 10001db0 f   arraytype.obj
 0001:00000e80       ?size@?$QList@VQString@@@@QBEHXZ 10001e80 f i arraytype.obj
 0001:00000e90       ?t@Node@?$QList@VQString@@@@QAEAAVQString@@XZ 10001e90 f i arraytype.obj
 0001:00000ea0       ??_GQString@@QAEPAXI@Z     10001ea0 f i arraytype.obj
 0001:00000ed0       ??_GArrayType@@UAEPAXI@Z   10001ed0 f i arraytype.obj
 0001:00000ed0       ??_EArrayType@@UAEPAXI@Z   10001ed0 f i arraytype.obj
 0001:00000f00       ?value@?$QList@VQString@@@@QBE?AVQString@@H@Z 10001f00 f i arraytype.obj
 0001:00000f60       ?node_destruct@?$QList@VQString@@@@AAEXPAUNode@1@0@Z 10001f60 f i arraytype.obj
 0001:00000fa0       ?free@?$QList@VQString@@@@AAEXPAUData@QListData@@@Z 10001fa0 f i arraytype.obj
 0001:00000fd0       ??1?$QList@VQString@@@@QAE@XZ 10001fd0 f i arraytype.obj
 0001:00001010       ??1QStringList@@QAE@XZ     10002010 f i arraytype.obj
 0001:00001050       ?childCount@ArrayType@@UBEHPBVLocationResolver@@@Z 10002050 f   arraytype.obj
 0001:00001140       ?childIndex@ArrayType@@QBE?AVQString@@H@Z 10002140 f   arraytype.obj
 0001:00001280       ?wrapChildrenConst@ArrayType@@UAEPAVSymbolType@@PAV?$QList@PAVSymbolType@@@@@Z 10002280 f   arraytype.obj
 0001:000013f0       ?wrapChildrenVolatile@ArrayType@@UAEPAVSymbolType@@PAV?$QList@PAVSymbolType@@@@@Z 100023f0 f   arraytype.obj
 0001:00001560       ??3@YAXPAX0@Z              10002560 f i asm8051documentextension.obj
 0001:00001570       ??0QUnknownInterface@@QAE@XZ 10002570 f i asm8051documentextension.obj
 0001:00001580       ??0QUnknownInterface@@QAE@ABU0@@Z 10002580 f i asm8051documentextension.obj
 0001:00001590       ??4QUnknownInterface@@QAEAAU0@ABU0@@Z 10002590 f i asm8051documentextension.obj
 0001:000015a0       ??0QFeatureListInterface@@QAE@XZ 100025a0 f i asm8051documentextension.obj
 0001:000015b0       ??0QFeatureListInterface@@QAE@ABU0@@Z 100025b0 f i asm8051documentextension.obj
 0001:000015c0       ??4QFeatureListInterface@@QAEAAU0@ABU0@@Z 100025c0 f i asm8051documentextension.obj
 0001:000015d0       ??0QLibraryInterface@@QAE@XZ 100025d0 f i asm8051documentextension.obj
 0001:000015e0       ??0QLibraryInterface@@QAE@ABU0@@Z 100025e0 f i asm8051documentextension.obj
 0001:000015f0       ??4QLibraryInterface@@QAEAAU0@ABU0@@Z 100025f0 f i asm8051documentextension.obj
 0001:00001600       ??0QComponentInformationInterface@@QAE@XZ 10002600 f i asm8051documentextension.obj
 0001:00001610       ??0QComponentInformationInterface@@QAE@ABU0@@Z 10002610 f i asm8051documentextension.obj
 0001:00001620       ??4QComponentInformationInterface@@QAEAAU0@ABU0@@Z 10002620 f i asm8051documentextension.obj
 0001:00001630       ?tr@QGPlugin@@SA?AVQString@@PBD0@Z 10002630 f i asm8051documentextension.obj
 0001:00001660       ?trUtf8@QGPlugin@@SA?AVQString@@PBD0@Z 10002660 f i asm8051documentextension.obj
 0001:00001690       ?tr@QGPlugin@@SA?AVQString@@PBD0H@Z 10002690 f i asm8051documentextension.obj
 0001:000016c0       ?trUtf8@QGPlugin@@SA?AVQString@@PBD0H@Z 100026c0 f i asm8051documentextension.obj
 0001:000016f0       ?setAutoUnload@QGPluginManager@@QAEX_N@Z 100026f0 f i asm8051documentextension.obj
 0001:00001710       ?autoUnload@QGPluginManager@@QBE_NXZ 10002710 f i asm8051documentextension.obj
 0001:00001720       ??0QtULong@@QAE@XZ         10002720 f i asm8051documentextension.obj
 0001:00001730       ??BQtULong@@QBEKXZ         10002730 f i asm8051documentextension.obj
 0001:00001740       ??EQtULong@@QAEAAKXZ       10002740 f i asm8051documentextension.obj
 0001:00001750       ??EQtULong@@QAEKH@Z        10002750 f i asm8051documentextension.obj
 0001:00001760       ??FQtULong@@QAEAAKXZ       10002760 f i asm8051documentextension.obj
 0001:00001770       ??FQtULong@@QAEKH@Z        10002770 f i asm8051documentextension.obj
 0001:00001780       ??4QtULong@@QAEAAU0@ABU0@@Z 10002780 f i asm8051documentextension.obj
 0001:00001790       ??0IExtension@@QAE@XZ      10002790 f i asm8051documentextension.obj
 0001:000017a0       ??0ITextDocTemplate@@QAE@XZ 100027a0 f i asm8051documentextension.obj
 0001:000017b0       ??1Asm8051DocumentExtension@@UAE@XZ 100027b0 f   asm8051documentextension.obj
 0001:000017c0       ?addRef@Asm8051DocumentExtension@@UAEKXZ 100027c0 f i asm8051documentextension.obj
 0001:000017d0       ?release@Asm8051DocumentExtension@@UAEKXZ 100027d0 f i asm8051documentextension.obj
 0001:000017f0       ?queryInterface@Asm8051DocumentExtension@@UAEKABUQUuid@@PAPAUQUnknownInterface@@@Z 100027f0 f   asm8051documentextension.obj
 0001:00001970       ?type@Asm8051DocumentExtension@@UBE?AW4Type@IExtension@@XZ 10002970 f   asm8051documentextension.obj
 0001:00001980       ?name@Asm8051DocumentExtension@@UBE?AVQString@@XZ 10002980 f   asm8051documentextension.obj
 0001:000019b0       ?templateName@Asm8051DocumentExtension@@UBE?AVQString@@XZ 100029b0 f   asm8051documentextension.obj
 0001:000019e0       ?templateDescription@Asm8051DocumentExtension@@UBE?AVQString@@XZ 100029e0 f   asm8051documentextension.obj
 0001:00001a10       ?templateIcon@Asm8051DocumentExtension@@UBE?AVQPixmap@@XZ 10002a10 f   asm8051documentextension.obj
 0001:00001a40       ?createSyntaxHighlighter@Asm8051DocumentExtension@@UBEPAXXZ 10002a40 f   asm8051documentextension.obj
 0001:00001aa0       ?createIndenter@Asm8051DocumentExtension@@UBEPAXXZ 10002aa0 f   asm8051documentextension.obj
 0001:00001ab0       ??0?$QList@VQString@@@@QAE@XZ 10002ab0 f i asm8051documentextension.obj
 0001:00001ad0       ?node_construct@?$QList@VQString@@@@AAEXPAUNode@1@ABVQString@@@Z 10002ad0 f i asm8051documentextension.obj
 0001:00001b20       ?node_copy@?$QList@VQString@@@@AAEXPAUNode@1@00@Z 10002b20 f i asm8051documentextension.obj
 0001:00001ba0       ??1?$QHashNode@VQString@@PAVQLibrary@@@@QAE@XZ 10002ba0 f i asm8051documentextension.obj
 0001:00001bc0       ?concrete@?$QHash@VQString@@PAVQLibrary@@@@CAPAU?$QHashNode@VQString@@PAVQLibrary@@@@PAUNode@QHashData@@@Z 10002bc0 f i asm8051documentextension.obj
 0001:00001bd0       ??0?$QHashDummyNode@VQString@@PAVQLibrary@@@@QAE@ABVQString@@@Z 10002bd0 f i asm8051documentextension.obj
 0001:00001bf0       ??0?$QHashNode@VQString@@PAVQLibrary@@@@QAE@ABVQString@@ABQAVQLibrary@@@Z 10002bf0 f i asm8051documentextension.obj
 0001:00001c10       ?queryInterface@Asm8051DocumentExtension@@W3AEKABUQUuid@@PAPAUQUnknownInterface@@@Z 10002c10 f i asm8051documentextension.obj
 0001:00001c20       ?addRef@Asm8051DocumentExtension@@W3AEKXZ 10002c20 f i asm8051documentextension.obj
 0001:00001c30       ?release@Asm8051DocumentExtension@@W3AEKXZ 10002c30 f i asm8051documentextension.obj
 0001:00001c40       ??0Asm8051DocumentExtension@@QAE@XZ 10002c40 f   asm8051documentextension.obj
 0001:00001c60       ??_GAsm8051DocumentExtension@@UAEPAXI@Z 10002c60 f i asm8051documentextension.obj
 0001:00001c60       ??_EAsm8051DocumentExtension@@UAEPAXI@Z 10002c60 f i asm8051documentextension.obj
 0001:00001c90       ?duplicateNode@?$QHash@VQString@@PAVQLibrary@@@@CAXPAUNode@QHashData@@PAX@Z 10002c90 f i asm8051documentextension.obj
 0001:00001cf0       ??_G?$QHashNode@VQString@@PAVQLibrary@@@@QAEPAXI@Z 10002cf0 f i asm8051documentextension.obj
 0001:00001d30       ?deleteNode@?$QHash@VQString@@PAVQLibrary@@@@AAEXPAU?$QHashNode@VQString@@PAVQLibrary@@@@@Z 10002d30 f i asm8051documentextension.obj
 0001:00001d60       ?detach_helper@?$QList@VQString@@@@AAEXXZ 10002d60 f i asm8051documentextension.obj
 0001:00001dd0       ?freeData@?$QHash@VQString@@PAVQLibrary@@@@AAEXPAUQHashData@@@Z 10002dd0 f i asm8051documentextension.obj
 0001:00001e40       ?detach@?$QList@VQString@@@@QAEXXZ 10002e40 f i asm8051documentextension.obj
 0001:00001e50       ??0?$QList@VQString@@@@QAE@ABV0@@Z 10002e50 f i asm8051documentextension.obj
 0001:00001e80       ??1?$QHash@VQString@@PAVQLibrary@@@@QAE@XZ 10002e80 f i asm8051documentextension.obj
 0001:00001ea0       ??4?$QList@VQString@@@@QAEAAV0@ABV0@@Z 10002ea0 f i asm8051documentextension.obj
 0001:00001f10       ?append@?$QList@VQString@@@@QAEXABVQString@@@Z 10002f10 f i asm8051documentextension.obj
 0001:00001fb0       ?detach_helper@?$QHash@VQString@@PAVQLibrary@@@@AAEXXZ 10002fb0 f i asm8051documentextension.obj
 0001:00001ff0       ??0QStringList@@QAE@ABVQString@@@Z 10002ff0 f i asm8051documentextension.obj
 0001:00002050       ??0QStringList@@QAE@ABV0@@Z 10003050 f i asm8051documentextension.obj
 0001:00002080       ??4QStringList@@QAEAAV0@ABV0@@Z 10003080 f i asm8051documentextension.obj
 0001:000020a0       ?fileExtensions@Asm8051DocumentExtension@@UBE?AVQStringList@@XZ 100030a0 f   asm8051documentextension.obj
 0001:00002130       ?detach@?$QHash@VQString@@PAVQLibrary@@@@QAEXXZ 10003130 f i asm8051documentextension.obj
 0001:00002170       ??4?$QHash@VQString@@PAVQLibrary@@@@QAEAAV0@ABV0@@Z 10003170 f i asm8051documentextension.obj
 0001:000021e0       ??4QGPluginManager@@QAEAAV0@ABV0@@Z 100031e0 f i asm8051documentextension.obj
 0001:00002250       ??0?$QHash@VQString@@PAVQLibrary@@@@QAE@ABV0@@Z 10003250 f i asm8051documentextension.obj
 0001:000022b0       ??0QGPluginManager@@QAE@ABV0@@Z 100032b0 f i asm8051documentextension.obj
 0001:00002360       ?applySyntaxRule@Asm8051SyntaxHighlighter@@AAEXABVQString@@0HABVQTextCharFormat@@@Z 10003360 f   asm8051syntaxhighlighter.obj
 0001:00002410       ??Econst_iterator@?$QList@VQString@@@@QAEAAV01@XZ 10003410 f i asm8051syntaxhighlighter.obj
 0001:00002420       ??9const_iterator@?$QList@VQString@@@@QBE_NABV01@@Z 10003420 f i asm8051syntaxhighlighter.obj
 0001:00002440       ??$qForeachPointer@VQStringList@@@@YAPAVQStringList@@ABV0@@Z 10003440 f i asm8051syntaxhighlighter.obj
 0001:00002450       ??$qForeachContainer@VQStringList@@@@YAPBV?$QForeachContainer@VQStringList@@@@PBUQForeachContainerBase@@PBVQStringList@@@Z 10003450 f i asm8051syntaxhighlighter.obj
 0001:00002460       ??0const_iterator@?$QList@VQString@@@@QAE@PAUNode@1@@Z 10003460 f i asm8051syntaxhighlighter.obj
 0001:00002470       ?condition@?$QForeachContainer@VQStringList@@@@QBE_NXZ 10003470 f i asm8051syntaxhighlighter.obj
 0001:00002490       ??Dconst_iterator@?$QList@VQString@@@@QBEABVQString@@XZ 10003490 f i asm8051syntaxhighlighter.obj
 0001:000024a0       ?begin@?$QList@VQString@@@@QBE?AVconst_iterator@1@XZ 100034a0 f i asm8051syntaxhighlighter.obj
 0001:000024c0       ?end@?$QList@VQString@@@@QBE?AVconst_iterator@1@XZ 100034c0 f i asm8051syntaxhighlighter.obj
 0001:000024e0       ??0QStringList@@QAE@XZ     100034e0 f i asm8051syntaxhighlighter.obj
 0001:00002500       ??1?$QForeachContainer@VQStringList@@@@QAE@XZ 10003500 f i asm8051syntaxhighlighter.obj
 0001:00002540       ??6QStringList@@QAEAAV0@ABVQString@@@Z 10003540 f i asm8051syntaxhighlighter.obj
 0001:00003500       ??0?$QForeachContainer@VQStringList@@@@QAE@ABVQStringList@@@Z 10004500 f i asm8051syntaxhighlighter.obj
 0001:00003550       ??0Asm8051SyntaxHighlighter@@QAE@XZ 10004550 f   asm8051syntaxhighlighter.obj
 0001:000035d0       ??1Asm8051SyntaxHighlighter@@UAE@XZ 100045d0 f i asm8051syntaxhighlighter.obj
 0001:000036f0       ??_GAsm8051SyntaxHighlighter@@UAEPAXI@Z 100046f0 f i asm8051syntaxhighlighter.obj
 0001:000036f0       ??_EAsm8051SyntaxHighlighter@@UAEPAXI@Z 100046f0 f i asm8051syntaxhighlighter.obj
 0001:00003710       ??$qForeachContainerNew@VQStringList@@@@YA?AV?$QForeachContainer@VQStringList@@@@ABVQStringList@@@Z 10004710 f i asm8051syntaxhighlighter.obj
 0001:00003770       ?highlightBlock@Asm8051SyntaxHighlighter@@MAEXABVQString@@@Z 10004770 f   asm8051syntaxhighlighter.obj
 0001:00003ad0       ??1AsmDocumentExtension@@UAE@XZ 10004ad0 f   asmdocumentextension.obj
 0001:00003ae0       ?addRef@AsmDocumentExtension@@UAEKXZ 10004ae0 f i asmdocumentextension.obj
 0001:00003af0       ?release@AsmDocumentExtension@@UAEKXZ 10004af0 f i asmdocumentextension.obj
 0001:00003b10       ?queryInterface@AsmDocumentExtension@@UAEKABUQUuid@@PAPAUQUnknownInterface@@@Z 10004b10 f   asmdocumentextension.obj
 0001:00003c90       ?type@AsmDocumentExtension@@UBE?AW4Type@IExtension@@XZ 10004c90 f   asmdocumentextension.obj
 0001:00003ca0       ?name@AsmDocumentExtension@@UBE?AVQString@@XZ 10004ca0 f   asmdocumentextension.obj
 0001:00003cd0       ?templateName@AsmDocumentExtension@@UBE?AVQString@@XZ 10004cd0 f   asmdocumentextension.obj
 0001:00003d00       ?templateDescription@AsmDocumentExtension@@UBE?AVQString@@XZ 10004d00 f   asmdocumentextension.obj
 0001:00003d30       ?templateIcon@AsmDocumentExtension@@UBE?AVQPixmap@@XZ 10004d30 f   asmdocumentextension.obj
 0001:00003d60       ?createSyntaxHighlighter@AsmDocumentExtension@@UBEPAXXZ 10004d60 f   asmdocumentextension.obj
 0001:00003dc0       ?createIndenter@AsmDocumentExtension@@UBEPAXXZ 10004dc0 f   asmdocumentextension.obj
 0001:00003dd0       ?queryInterface@AsmDocumentExtension@@W3AEKABUQUuid@@PAPAUQUnknownInterface@@@Z 10004dd0 f i asmdocumentextension.obj
 0001:00003de0       ?addRef@AsmDocumentExtension@@W3AEKXZ 10004de0 f i asmdocumentextension.obj
 0001:00003df0       ?release@AsmDocumentExtension@@W3AEKXZ 10004df0 f i asmdocumentextension.obj
 0001:00003e00       ??0AsmDocumentExtension@@QAE@XZ 10004e00 f   asmdocumentextension.obj
 0001:00003e20       ??_GAsmDocumentExtension@@UAEPAXI@Z 10004e20 f i asmdocumentextension.obj
 0001:00003e20       ??_EAsmDocumentExtension@@UAEPAXI@Z 10004e20 f i asmdocumentextension.obj
 0001:00003e50       ?fileExtensions@AsmDocumentExtension@@UBE?AVQStringList@@XZ 10004e50 f   asmdocumentextension.obj
 0001:00003ee0       ??BQBool@@QBEPBXXZ         10004ee0 f i asmsyntaxhighlighter.obj
 0001:00003ef0       ??8@YA_NVQChar@@0@Z        10004ef0 f i asmsyntaxhighlighter.obj
 0001:00003f00       ??9@YA_NVQChar@@0@Z        10004f00 f i asmsyntaxhighlighter.obj
 0001:00003f10       ??1ASMSyntaxHighlighter@@UAE@XZ 10004f10 f   asmsyntaxhighlighter.obj
 0001:00003f20       ?nextState@ASMSyntaxHighlighter@@AAEHHH@Z 10004f20 f   asmsyntaxhighlighter.obj
 0001:00003f40       ??0?$QMap@HPAVQTextCharFormat@@@@QAE@XZ 10004f40 f i asmsyntaxhighlighter.obj
 0001:00003f60       ??0?$QMap@HV?$QMap@VQString@@H@@@@QAE@XZ 10004f60 f i asmsyntaxhighlighter.obj
 0001:00003f80       ??0?$QMap@VQString@@H@@QAE@XZ 10004f80 f i asmsyntaxhighlighter.obj
 0001:00003fa0       ??9iterator@?$QMap@HV?$QMap@VQString@@H@@@@QBE_NABV01@@Z 10004fa0 f i asmsyntaxhighlighter.obj
 0001:00003fc0       ??9iterator@?$QMap@VQString@@H@@QBE_NABV01@@Z 10004fc0 f i asmsyntaxhighlighter.obj
 0001:00003fe0       ?isEmpty@?$QMap@HV?$QMap@VQString@@H@@@@QBE_NXZ 10004fe0 f i asmsyntaxhighlighter.obj
 0001:00003ff0       ??0iterator@?$QMap@HV?$QMap@VQString@@H@@@@QAE@PAUNode@QMapData@@@Z 10004ff0 f i asmsyntaxhighlighter.obj
 0001:00004000       ??0iterator@?$QMap@VQString@@H@@QAE@PAUNode@QMapData@@@Z 10005000 f i asmsyntaxhighlighter.obj
 0001:00004010       ?payload@?$QMap@HV?$QMap@VQString@@H@@@@CAHXZ 10005010 f i asmsyntaxhighlighter.obj
 0001:00004020       ?payload@?$QMap@VQString@@H@@CAHXZ 10005020 f i asmsyntaxhighlighter.obj
 0001:00004030       ?payload@?$QMap@HPAVQTextCharFormat@@@@CAHXZ 10005030 f i asmsyntaxhighlighter.obj
 0001:00004040       ?concrete@?$QMap@HPAVQTextCharFormat@@@@CAPAU?$QMapNode@HPAVQTextCharFormat@@@@PAUNode@QMapData@@@Z 10005040 f i asmsyntaxhighlighter.obj
 0001:00004050       ??$qMapLessThanKey@H@@YA_NABH0@Z 10005050 f i asmsyntaxhighlighter.obj
 0001:00004070       ??$qMapLessThanKey@VQString@@@@YA_NABVQString@@0@Z 10005070 f i asmsyntaxhighlighter.obj
 0001:00004080       ??_GASMSyntaxHighlighter@@UAEPAXI@Z 10005080 f i asmsyntaxhighlighter.obj
 0001:00004080       ??_EASMSyntaxHighlighter@@UAEPAXI@Z 10005080 f i asmsyntaxhighlighter.obj
 0001:000040b0       ?empty@?$QMap@HV?$QMap@VQString@@H@@@@QBE_NXZ 100050b0 f i asmsyntaxhighlighter.obj
 0001:000040c0       ?concrete@?$QMap@HV?$QMap@VQString@@H@@@@CAPAU?$QMapNode@HV?$QMap@VQString@@H@@@@PAUNode@QMapData@@@Z 100050c0 f i asmsyntaxhighlighter.obj
 0001:000040d0       ?concrete@?$QMap@VQString@@H@@CAPAU?$QMapNode@VQString@@H@@PAUNode@QMapData@@@Z 100050d0 f i asmsyntaxhighlighter.obj
 0001:000040e0       ?freeData@?$QMap@HPAVQTextCharFormat@@@@AAEXPAUQMapData@@@Z 100050e0 f i asmsyntaxhighlighter.obj
 0001:000040f0       ?freeData@?$QMap@VQString@@H@@AAEXPAUQMapData@@@Z 100050f0 f i asmsyntaxhighlighter.obj
 0001:00004140       ?findNode@?$QMap@HV?$QMap@VQString@@H@@@@ABEPAUNode@QMapData@@ABH@Z 10005140 f i asmsyntaxhighlighter.obj
 0001:00004190       ?mutableFindNode@?$QMap@HV?$QMap@VQString@@H@@@@ABEPAUNode@QMapData@@QAPAU23@ABH@Z 10005190 f i asmsyntaxhighlighter.obj
 0001:000041f0       ?findNode@?$QMap@VQString@@H@@ABEPAUNode@QMapData@@ABVQString@@@Z 100051f0 f i asmsyntaxhighlighter.obj
 0001:00004260       ?mutableFindNode@?$QMap@VQString@@H@@ABEPAUNode@QMapData@@QAPAU23@ABVQString@@@Z 10005260 f i asmsyntaxhighlighter.obj
 0001:000042d0       ?node_create@?$QMap@VQString@@H@@AAEPAUNode@QMapData@@PAU3@QAPAU23@ABVQString@@ABH@Z 100052d0 f i asmsyntaxhighlighter.obj
 0001:00004350       ??1?$QMap@HPAVQTextCharFormat@@@@QAE@XZ 10005350 f i asmsyntaxhighlighter.obj
 0001:00004370       ??1?$QMap@VQString@@H@@QAE@XZ 10005370 f i asmsyntaxhighlighter.obj
 0001:00004390       ??Diterator@?$QMap@HV?$QMap@VQString@@H@@@@QBEAAV?$QMap@VQString@@H@@XZ 10005390 f i asmsyntaxhighlighter.obj
 0001:000043a0       ??Diterator@?$QMap@VQString@@H@@QBEAAHXZ 100053a0 f i asmsyntaxhighlighter.obj
 0001:000043b0       ?contains@?$QMap@HV?$QMap@VQString@@H@@@@QBE_NABH@Z 100053b0 f i asmsyntaxhighlighter.obj
 0001:000043d0       ?detach_helper@?$QMap@VQString@@H@@AAEXXZ 100053d0 f i asmsyntaxhighlighter.obj
 0001:00004450       ??_G?$QMap@VQString@@H@@QAEPAXI@Z 10005450 f i asmsyntaxhighlighter.obj
 0001:00004490       ??4?$QMap@VQString@@H@@QAEAAV0@ABV0@@Z 10005490 f i asmsyntaxhighlighter.obj
 0001:000044e0       ?detach@?$QMap@VQString@@H@@QAEXXZ 100054e0 f i asmsyntaxhighlighter.obj
 0001:00004500       ?freeData@?$QMap@HV?$QMap@VQString@@H@@@@AAEXPAUQMapData@@@Z 10005500 f i asmsyntaxhighlighter.obj
 0001:00004550       ??A?$QMap@VQString@@H@@QAEAAHABVQString@@@Z 10005550 f i asmsyntaxhighlighter.obj
 0001:000045b0       ?find@?$QMap@VQString@@H@@QAE?AViterator@1@ABVQString@@@Z 100055b0 f i asmsyntaxhighlighter.obj
 0001:000045e0       ??0?$QMap@VQString@@H@@QAE@ABV0@@Z 100055e0 f i asmsyntaxhighlighter.obj
 0001:00004620       ??1?$QMap@HV?$QMap@VQString@@H@@@@QAE@XZ 10005620 f i asmsyntaxhighlighter.obj
 0001:00004640       ?end@?$QMap@VQString@@H@@QAE?AViterator@1@XZ 10005640 f i asmsyntaxhighlighter.obj
 0001:00004660       ?node_create@?$QMap@HV?$QMap@VQString@@H@@@@AAEPAUNode@QMapData@@PAU3@QAPAU23@ABHABV?$QMap@VQString@@H@@@Z 10005660 f i asmsyntaxhighlighter.obj
 0001:000046f0       ?detach_helper@?$QMap@HV?$QMap@VQString@@H@@@@AAEXXZ 100056f0 f i asmsyntaxhighlighter.obj
 0001:00004770       ?detach@?$QMap@HV?$QMap@VQString@@H@@@@QAEXXZ 10005770 f i asmsyntaxhighlighter.obj
 0001:00004790       ??A?$QMap@HV?$QMap@VQString@@H@@@@QAEAAV?$QMap@VQString@@H@@ABH@Z 10005790 f i asmsyntaxhighlighter.obj
 0001:00004860       ?find@?$QMap@HV?$QMap@VQString@@H@@@@QAE?AViterator@1@ABH@Z 10005860 f i asmsyntaxhighlighter.obj
 0001:00004890       ?insert@?$QMap@HV?$QMap@VQString@@H@@@@QAE?AViterator@1@ABHABV?$QMap@VQString@@H@@@Z 10005890 f i asmsyntaxhighlighter.obj
 0001:00004900       ?wordMap@ASMSyntaxHighlighter@@AAEAAV?$QMap@HV?$QMap@VQString@@H@@@@XZ 10005900 f   asmsyntaxhighlighter.obj
 0001:00004ad0       ?end@?$QMap@HV?$QMap@VQString@@H@@@@QAE?AViterator@1@XZ 10005ad0 f i asmsyntaxhighlighter.obj
 0001:00004af0       ??0ASMSyntaxHighlighter@@QAE@XZ 10005af0 f   asmsyntaxhighlighter.obj
 0001:00004b80       ?highlightBlockHook@ASMSyntaxHighlighter@@MAEXABVQString@@@Z 10005b80 f   asmsyntaxhighlighter.obj
 0001:00005240       ??1SymbolException@@QAE@XZ 10006240 f i badsyntaxexception.obj
 0001:00005260       ??0BadSyntaxException@@QAE@ABVQString@@@Z 10006260 f   badsyntaxexception.obj
 0001:00005280       ??0IgnoredTypeWarning@@QAE@XZ 10006280 f   badsyntaxexception.obj
 0001:00005290       ??0IgnoredTypeWarning@@QAE@ABVQString@@@Z 10006290 f   badsyntaxexception.obj
 0001:000052b0       ??0EliminatedSectionException@@QAE@XZ 100062b0 f   badsyntaxexception.obj
 0001:000052c0       ??0EliminatedSectionException@@QAE@ABVQString@@@Z 100062c0 f   badsyntaxexception.obj
 0001:000052e0       ??0BadSyntaxException@@QAE@XZ 100062e0 f   badsyntaxexception.obj
 0001:000052f0       ?spiPM1BankSelect@@YAII@Z  100062f0 f   bigfootlegacydefinitions.obj
 0001:00005310       ?spiPM2BankSelect@@YAII@Z  10006310 f   bigfootlegacydefinitions.obj
 0001:00005330       ?spiSMBankSelect@@YAII@Z   10006330 f   bigfootlegacydefinitions.obj
 0001:00005350       ?maskSMBankSelect@@YAII@Z  10006350 f   bigfootlegacydefinitions.obj
 0001:000053a0       ?sharedLimit@@YAII@Z       100063a0 f   bigfootlegacydefinitions.obj
 0001:00005430       ?codeLimit@@YAII@Z         10006430 f   bigfootlegacydefinitions.obj
 0001:00005450       ?qt_noop@@YAXXZ            10006450 f i bigfootmemory.obj
 0001:00005460       ??0QLatin1Char@@QAE@D@Z    10006460 f i bigfootmemory.obj
 0001:00005470       ?tr@BigfootMemory@@SA?AVQString@@PBD0@Z 10006470 f i bigfootmemory.obj
 0001:000054a0       ?readVerify@SpiConnection@@QAE_NIPAI@Z 100064a0 f i bigfootmemory.obj
 0001:000054c0       ?readBlockVerify@SpiConnection@@QAE_NIIPAI@Z 100064c0 f i bigfootmemory.obj
 0001:000054e0       ??0Memory@@QAE@XZ          100064e0 f i bigfootmemory.obj
 0001:00005520       ??1Memory@@UAE@XZ          10006520 f i bigfootmemory.obj
 0001:000055a0       ??_GMemory@@UAEPAXI@Z      100065a0 f i bigfootmemory.obj
 0001:000055a0       ??_EMemory@@UAEPAXI@Z      100065a0 f i bigfootmemory.obj
 0001:000055c0       ??0Region@IMemory@@QAE@XZ  100065c0 f i bigfootmemory.obj
 0001:000055e0       ??1Region@IMemory@@QAE@XZ  100065e0 f i bigfootmemory.obj
 0001:00005600       ?reset@BigfootMemory@@UAE_NXZ 10006600 f   bigfootmemory.obj
 0001:00005610       ?setVerify@BigfootMemory@@UAEX_N@Z 10006610 f   bigfootmemory.obj
 0001:00005620       ?verify@BigfootMemory@@UAE_NXZ 10006620 f   bigfootmemory.obj
 0001:00005630       ?readBlock@BigfootMemory@@UAEXHIHPAV?$QVector@U?$QPair@IW4MemoryResult@IMemory@@@@@@@Z 10006630 f   bigfootmemory.obj
 0001:00005690       ?writeBlock@BigfootMemory@@UAEXHIHPAV?$QVector@U?$QPair@IW4MemoryResult@IMemory@@@@@@@Z 10006690 f   bigfootmemory.obj
 0001:000056f0       ?type@BigfootMemory@@UAE?AW4MemoryType@Memory@@HI@Z 100066f0 f   bigfootmemory.obj
 0001:00005720       ?load@BigfootMemory@@UAE_NABVQDir@@ABVQString@@ABV?$QList@PAVMemoryImage@@@@_N3@Z 10006720 f   bigfootmemory.obj
 0001:00005730       ?getMemoryResult@BigfootMemory@@AAE?AW4MemoryResult@IMemory@@_N@Z 10006730 f   bigfootmemory.obj
 0001:00005750       ??_GBigfootSelector@@QAEPAXI@Z 10006750 f i bigfootmemory.obj
 0001:00005770       ??0Region@IMemory@@QAE@ABU01@@Z 10006770 f i bigfootmemory.obj
 0001:000057c0       ??4Region@IMemory@@QAEAAU01@ABU01@@Z 100067c0 f i bigfootmemory.obj
 0001:00005810       ?prepareMemory@BigfootMemory@@AAE_NII_NPA_NPAI21@Z 10006810 f   bigfootmemory.obj
 0001:000058f0       ??1?$QPair@IVQString@@@@QAE@XZ 100068f0 f i bigfootmemory.obj
 0001:00005910       ?loadMemoryMap@BigfootMemory@@UAE_NABVQString@@PAV2@@Z 10006910 f   bigfootmemory.obj
 0001:000059c0       ?adviseOnMemoryMapBeingUsed@BigfootMemory@@AAEXXZ 100069c0 f   bigfootmemory.obj
 0001:00005b10       ?convertPeripheralToDebugRegisterAddr@BigfootMemory@@QBEII@Z 10006b10 f   bigfootmemory.obj
 0001:00005b30       ??0?$QList@URegion@IMemory@@@@QAE@XZ 10006b30 f i bigfootmemory.obj
 0001:00005b50       ??0iterator@?$QList@URegion@IMemory@@@@QAE@XZ 10006b50 f i bigfootmemory.obj
 0001:00005b60       ??9iterator@?$QList@URegion@IMemory@@@@QBE_NABV01@@Z 10006b60 f i bigfootmemory.obj
 0001:00005b80       ??Eiterator@?$QList@URegion@IMemory@@@@QAEAAV01@XZ 10006b80 f i bigfootmemory.obj
 0001:00005b90       ??4?$QPair@IVQString@@@@QAEAAU0@ABU0@@Z 10006b90 f i bigfootmemory.obj
 0001:00005bb0       ?data@?$Basic@VRegisterLookup@@@QtSharedPointer@@QBEPAVRegisterLookup@@XZ 10006bb0 f i bigfootmemory.obj
 0001:00005bc0       ?isEmpty@?$QList@URegion@IMemory@@@@QBE_NXZ 10006bc0 f i bigfootmemory.obj
 0001:00005bd0       ??0iterator@?$QList@URegion@IMemory@@@@QAE@PAUNode@1@@Z 10006bd0 f i bigfootmemory.obj
 0001:00005be0       ?t@Node@?$QList@URegion@IMemory@@@@QAEAAURegion@IMemory@@XZ 10006be0 f i bigfootmemory.obj
 0001:00005bf0       ?ref@?$ExternalRefCount@VRegisterLookup@@@QtSharedPointer@@IBEXXZ 10006bf0 f i bigfootmemory.obj
 0001:00005c10       ?internalDestroy@?$Basic@VRegisterLookup@@@QtSharedPointer@@IAEXXZ 10006c10 f i bigfootmemory.obj
 0001:00005c20       ?free@?$QVector@U?$QPair@IW4MemoryResult@IMemory@@@@@@AAEXPAU?$QVectorTypedData@U?$QPair@IW4MemoryResult@IMemory@@@@@@@Z 10006c20 f i bigfootmemory.obj
 0001:00005c30       ??_GRegion@IMemory@@QAEPAXI@Z 10006c30 f i bigfootmemory.obj
 0001:00005c60       ?sizeOfTypedData@?$QVector@U?$QPair@IW4MemoryResult@IMemory@@@@@@AAEHXZ 10006c60 f i bigfootmemory.obj
 0001:00005c70       ??0?$QPair@IW4MemoryResult@IMemory@@@@QAE@XZ 10006c70 f i bigfootmemory.obj
 0001:00005c80       ?malloc@?$QVector@U?$QPair@IW4MemoryResult@IMemory@@@@@@AAEPAUQVectorData@@H@Z 10006c80 f i bigfootmemory.obj
 0001:00005ca0       ?realloc@?$QVector@U?$QPair@IW4MemoryResult@IMemory@@@@@@AAEXHH@Z 10006ca0 f i bigfootmemory.obj
 0001:00005dc0       ?node_construct@?$QList@URegion@IMemory@@@@AAEXPAUNode@1@ABURegion@IMemory@@@Z 10006dc0 f i bigfootmemory.obj
 0001:00005e30       ?node_copy@?$QList@URegion@IMemory@@@@AAEXPAUNode@1@00@Z 10006e30 f i bigfootmemory.obj
 0001:00005ee0       ?node_destruct@?$QList@URegion@IMemory@@@@AAEXPAUNode@1@0@Z 10006ee0 f i bigfootmemory.obj
 0001:00005f30       ??0Xap2CsrMemory@@QAE@XZ   10006f30 f i bigfootmemory.obj
 0001:00005f80       ??1Xap2CsrMemory@@UAE@XZ   10006f80 f i bigfootmemory.obj
 0001:00005f90       ??_EXap2CsrMemory@@UAEPAXI@Z 10006f90 f i bigfootmemory.obj
 0001:00005f90       ??_GXap2CsrMemory@@UAEPAXI@Z 10006f90 f i bigfootmemory.obj
 0001:00005fb0       ??1?$QVector@U?$QPair@IW4MemoryResult@IMemory@@@@@@QAE@XZ 10006fb0 f i bigfootmemory.obj
 0001:00005fd0       ??C?$Basic@VRegisterLookup@@@QtSharedPointer@@QBEPAVRegisterLookup@@XZ 10006fd0 f i bigfootmemory.obj
 0001:00005fe0       ?empty@?$QList@URegion@IMemory@@@@QBE_NXZ 10006fe0 f i bigfootmemory.obj
 0001:00005ff0       ??Diterator@?$QList@URegion@IMemory@@@@QBEAAURegion@IMemory@@XZ 10006ff0 f i bigfootmemory.obj
 0001:00006000       ??0?$ExternalRefCount@VRegisterLookup@@@QtSharedPointer@@IAE@ABV01@@Z 10007000 f i bigfootmemory.obj
 0001:00006040       ?internalDestroy@?$ExternalRefCount@VRegisterLookup@@@QtSharedPointer@@IAEXXZ 10007040 f i bigfootmemory.obj
 0001:00006070       ??0?$QVector@U?$QPair@IW4MemoryResult@IMemory@@@@@@QAE@H@Z 10007070 f i bigfootmemory.obj
 0001:000060e0       ?resize@?$QVector@U?$QPair@IW4MemoryResult@IMemory@@@@@@QAEXH@Z 100070e0 f i bigfootmemory.obj
 0001:00006140       ?detach_helper@?$QVector@U?$QPair@IW4MemoryResult@IMemory@@@@@@AAEXXZ 10007140 f i bigfootmemory.obj
 0001:00006150       ?free@?$QList@URegion@IMemory@@@@AAEXPAUData@QListData@@@Z 10007150 f i bigfootmemory.obj
 0001:00006180       ?prepareData@BigfootMemory@@AAE_NPAURegion@IMemory@@I_NPA_NPAI32@Z 10007180 f   bigfootmemory.obj
 0001:000069d0       ?deref@?$ExternalRefCount@VRegisterLookup@@@QtSharedPointer@@IAE_NXZ 100079d0 f i bigfootmemory.obj
 0001:00006a20       ??1?$QList@URegion@IMemory@@@@QAE@XZ 10007a20 f i bigfootmemory.obj
 0001:00006a60       ?detach_helper@?$QList@URegion@IMemory@@@@AAEXXZ 10007a60 f i bigfootmemory.obj
 0001:00006ad0       ?detach@?$QVector@U?$QPair@IW4MemoryResult@IMemory@@@@@@QAEXXZ 10007ad0 f i bigfootmemory.obj
 0001:00006af0       ??4?$QList@URegion@IMemory@@@@QAEAAV0@ABV0@@Z 10007af0 f i bigfootmemory.obj
 0001:00006b60       ??1?$ExternalRefCount@VRegisterLookup@@@QtSharedPointer@@IAE@XZ 10007b60 f i bigfootmemory.obj
 0001:00006b90       ??0?$QList@URegion@IMemory@@@@QAE@ABV0@@Z 10007b90 f i bigfootmemory.obj
 0001:00006bc0       ?detach@?$QList@URegion@IMemory@@@@QAEXXZ 10007bc0 f i bigfootmemory.obj
 0001:00006bd0       ?clear@?$QList@URegion@IMemory@@@@QAEXXZ 10007bd0 f i bigfootmemory.obj
 0001:00006c70       ?append@?$QList@URegion@IMemory@@@@QAEXABURegion@IMemory@@@Z 10007c70 f i bigfootmemory.obj
 0001:00006ca0       ?data@?$QVector@U?$QPair@IW4MemoryResult@IMemory@@@@@@QAEPAU?$QPair@IW4MemoryResult@IMemory@@@@XZ 10007ca0 f i bigfootmemory.obj
 0001:00006cd0       ??1?$QSharedPointer@VRegisterLookup@@@@QAE@XZ 10007cd0 f i bigfootmemory.obj
 0001:00006d00       ??1BigfootMemory@@UAE@XZ   10007d00 f   bigfootmemory.obj
 0001:00006dc0       ?regions@BigfootMemory@@UAE?AV?$QList@URegion@IMemory@@@@XZ 10007dc0 f   bigfootmemory.obj
 0001:00006e10       ??0?$QSharedPointer@VRegisterLookup@@@@QAE@ABV0@@Z 10007e10 f i bigfootmemory.obj
 0001:00006e50       ?begin@?$QList@URegion@IMemory@@@@QAE?AViterator@1@XZ 10007e50 f i bigfootmemory.obj
 0001:00006e80       ?end@?$QList@URegion@IMemory@@@@QAE?AViterator@1@XZ 10007e80 f i bigfootmemory.obj
 0001:00006eb0       ??6?$QList@URegion@IMemory@@@@QAEAAV0@ABURegion@IMemory@@@Z 10007eb0 f i bigfootmemory.obj
 0001:00006ee0       ??A?$QVector@U?$QPair@IW4MemoryResult@IMemory@@@@@@QAEAAU?$QPair@IW4MemoryResult@IMemory@@@@H@Z 10007ee0 f i bigfootmemory.obj
 0001:00006f10       ??0BigfootMemory@@QAE@PAVSpiConnection@@PAVXap2BigfootEnvironment@@V?$QSharedPointer@VRegisterLookup@@@@@Z 10007f10 f   bigfootmemory.obj
 0001:00007040       ??_GBigfootMemory@@UAEPAXI@Z 10008040 f i bigfootmemory.obj
 0001:00007040       ??_EBigfootMemory@@UAEPAXI@Z 10008040 f i bigfootmemory.obj
 0001:00007060       ?setBigfootType@BigfootMemory@@UAEXW4ProcessorType@bc7plus@@@Z 10008060 f   bigfootmemory.obj
 0001:00007140       ?setChipVersion@BigfootMemory@@UAEXG@Z 10008140 f   bigfootmemory.obj
 0001:000077c0       ?read@BigfootMemory@@UAEIHI_N@Z 100087c0 f   bigfootmemory.obj
 0001:00007890       ?write@BigfootMemory@@UAE_NHII_N@Z 10008890 f   bigfootmemory.obj
 0001:00007970       ?read@BigfootMemory@@UAE?AW4MemoryResult@IMemory@@IW4MemoryMode@3@IPAI@Z 10008970 f   bigfootmemory.obj
 0001:00007a90       ?write@BigfootMemory@@UAE?AW4MemoryResult@IMemory@@IW4MemoryMode@3@II@Z 10008a90 f   bigfootmemory.obj
 0001:00007b70       ?getRegion@BigfootMemory@@AAE_NIPAURegion@IMemory@@@Z 10008b70 f   bigfootmemory.obj
 0001:00007d40       ?getRegion@BigfootMemory@@QAE?AURegion@IMemory@@I@Z 10008d40 f   bigfootmemory.obj
 0001:00007db0       ?type@BigfootMemory@@UAE?AW4MemoryType@Memory@@II@Z 10008db0 f   bigfootmemory.obj
 0001:000082f0       ?lookupProcRemapRegisters@BigfootMemory@@AAE_NAAUProcRemapRegisters@1@@Z 100092f0 f   bigfootmemory.obj
 0001:00008650       ?prepareCode@BigfootMemory@@AAE_NPAURegion@IMemory@@IPA_NPAI21@Z 10009650 f   bigfootmemory.obj
 0001:00008a20       ?readBlock@BigfootMemory@@UAEXIW4MemoryMode@IMemory@@IHPAV?$QVector@U?$QPair@IW4MemoryResult@IMemory@@@@@@@Z 10009a20 f   bigfootmemory.obj
 0001:00009320       ?writeBlock@BigfootMemory@@UAEXIW4MemoryMode@IMemory@@IHPAV?$QVector@U?$QPair@IW4MemoryResult@IMemory@@@@@@@Z 1000a320 f   bigfootmemory.obj
 0001:000097d0       ??0MemAddr@@QAE@IH@Z       1000a7d0 f i bigfootpythonextension.obj
 0001:00009800       ?canConfigureDataBreakpoints@Xap2BigfootEnvironment@@QBE_NXZ 1000a800 f i bigfootpythonextension.obj
 0001:00009810       ?PyBigfootExtension_getDataBreakpoint@@YAPAU_object@@PAUPyBigfootExtension@@PAU1@@Z 1000a810 f   bigfootpythonextension.obj
 0001:00009960       ?PyBigfootExtension_setDataBreakpoint@@YAPAU_object@@PAUPyBigfootExtension@@PAU1@@Z 1000a960 f   bigfootpythonextension.obj
 0001:00009dd0       ?PyBigfootExtension_clearDataBreakpoint@@YAPAU_object@@PAUPyBigfootExtension@@PAU1@@Z 1000add0 f   bigfootpythonextension.obj
 0001:00009e30       ?PyBigfootExtension_getPeripherals@@YAPAU_object@@PAUPyBigfootExtension@@PAX@Z 1000ae30 f   bigfootpythonextension.obj
 0001:00009e40       ?PyBigfootExtension_new@@YAPAUPyBigfootExtension@@PAVXap2BigfootEnvironment@@@Z 1000ae40 f   bigfootpythonextension.obj
 0001:00009e80       ?PyBigfootExtension_dealloc@?A0x6533ec05@@YAXPAUPyBigfootExtension@@@Z 1000ae80 f   bigfootpythonextension.obj
 0001:00009e90       ?PyBigfootExtension_getpluginBehaviour@?A0x6533ec05@@YAPAU_object@@PAUPyBigfootExtension@@PAX@Z 1000ae90 f   bigfootpythonextension.obj
 0001:00009eb0       ?PyBigfootExtension_getpyMain@?A0x6533ec05@@YAPAU_object@@PAUPyBigfootExtension@@PAX@Z 1000aeb0 f   bigfootpythonextension.obj
 0001:00009ed0       ?PyBigfootExtension_getpyInPlugin@?A0x6533ec05@@YAPAU_object@@PAUPyBigfootExtension@@PAX@Z 1000aed0 f   bigfootpythonextension.obj
 0001:00009ef0       ?PyBigfootExtension_setpyMain@?A0x6533ec05@@YAHPAUPyBigfootExtension@@PAU_object@@PAX@Z 1000aef0 f   bigfootpythonextension.obj
 0001:00009f20       ?PyExtension_getdebugConnection@?A0x6533ec05@@YAPAU_object@@PAUPyExtension@@PAX@Z 1000af20 f   bigfootpythonextension.obj
 0001:00009f30       ?isEmpty@?$QHash@VQString@@PAVSymbolType@@@@QBE_NXZ 1000af30 f i bigfootpythonextension.obj
 0001:00009f40       ??1?$QHashNode@VQString@@PAVSymbolType@@@@QAE@XZ 1000af40 f i bigfootpythonextension.obj
 0001:00009f60       ?same_key@?$QHashNode@VQString@@PAVSymbolType@@@@QAE_NIABVQString@@@Z 1000af60 f i bigfootpythonextension.obj
 0001:00009f90       ?empty@?$QHash@VQString@@PAVSymbolType@@@@QBE_NXZ 1000af90 f i bigfootpythonextension.obj
 0001:00009fa0       ?findNode@?$QHash@VQString@@PAVSymbolType@@@@ABEPAPAU?$QHashNode@VQString@@PAVSymbolType@@@@ABVQString@@PAI@Z 1000afa0 f i bigfootpythonextension.obj
 0001:0000a010       ??_G?$QHashNode@VQString@@PAVSymbolType@@@@QAEPAXI@Z 1000b010 f i bigfootpythonextension.obj
 0001:0000a050       ?contains@?$QHash@VQString@@PAVSymbolType@@@@QBE_NABVQString@@@Z 1000b050 f i bigfootpythonextension.obj
 0001:0000a070       ?value@?$QHash@VQString@@PAVSymbolType@@@@QBEQAVSymbolType@@ABVQString@@@Z 1000b070 f i bigfootpythonextension.obj
 0001:0000a0a0       ?deleteNode@?$QHash@VQString@@PAVSymbolType@@@@AAEXPAU?$QHashNode@VQString@@PAVSymbolType@@@@@Z 1000b0a0 f i bigfootpythonextension.obj
 0001:0000a0d0       ?freeData@?$QHash@VQString@@PAVSymbolType@@@@AAEXPAUQHashData@@@Z 1000b0d0 f i bigfootpythonextension.obj
 0001:0000a140       ??1?$QHash@VQString@@PAVSymbolType@@@@QAE@XZ 1000b140 f i bigfootpythonextension.obj
 0001:0000a160       ?PyBigfootExtension_makeSymbol@@YAPAU_object@@PAUPyBigfootExtension@@PAU1@@Z 1000b160 f   bigfootpythonextension.obj
 0001:0000a4d0       ?reapply@BigfootSelector@@QAEXXZ 1000b4d0 f   bigfootselector.obj
 0001:0000a4f0       ??0?$QMap@IH@@QAE@XZ       1000b4f0 f i bigfootselector.obj
 0001:0000a510       ?size@?$QMap@IH@@QBEHXZ    1000b510 f i bigfootselector.obj
 0001:0000a520       ??0?$QList@I@@QAE@XZ       1000b520 f i bigfootselector.obj
 0001:0000a540       ??9iterator@?$QMap@IH@@QBE_NABV01@@Z 1000b540 f i bigfootselector.obj
 0001:0000a560       ??Eiterator@?$QMap@IH@@QAEAAV01@XZ 1000b560 f i bigfootselector.obj
 0001:0000a570       ??Fiterator@?$QMap@IH@@QAEAAV01@XZ 1000b570 f i bigfootselector.obj
 0001:0000a580       ??0iterator@?$QMap@IH@@QAE@PAUNode@QMapData@@@Z 1000b580 f i bigfootselector.obj
 0001:0000a590       ??Fiterator@?$QList@I@@QAEAAV01@XZ 1000b590 f i bigfootselector.obj
 0001:0000a5a0       ??0?$Basic@VRegisterLookup@@@QtSharedPointer@@IAE@XZ 1000b5a0 f i bigfootselector.obj
 0001:0000a5b0       ?payload@?$QMap@IH@@CAHXZ  1000b5b0 f i bigfootselector.obj
 0001:0000a5c0       ??0iterator@?$QList@I@@QAE@PAUNode@1@@Z 1000b5c0 f i bigfootselector.obj
 0001:0000a5d0       ??0iterator@?$QList@I@@QAE@ABV01@@Z 1000b5d0 f i bigfootselector.obj
 0001:0000a5e0       ?t@Node@?$QList@I@@QAEAAIXZ 1000b5e0 f i bigfootselector.obj
 0001:0000a5f0       ?verifyReconstruction@?$Basic@VRegisterLookup@@@QtSharedPointer@@IAEXPBVRegisterLookup@@@Z 1000b5f0 f i bigfootselector.obj
 0001:0000a600       ?node_construct@?$QList@I@@AAEXPAUNode@1@ABI@Z 1000b600 f i bigfootselector.obj
 0001:0000a610       ?node_destruct@?$QList@I@@AAEXPAUNode@1@@Z 1000b610 f i bigfootselector.obj
 0001:0000a620       ?node_copy@?$QList@I@@AAEXPAUNode@1@00@Z 1000b620 f i bigfootselector.obj
 0001:0000a630       ??$qMapLessThanKey@I@@YA_NABI0@Z 1000b630 f i bigfootselector.obj
 0001:0000a650       ?node_destruct@?$QList@I@@AAEXPAUNode@1@0@Z 1000b650 f i bigfootselector.obj
 0001:0000a660       ??0?$ExternalRefCount@VRegisterLookup@@@QtSharedPointer@@IAE@XZ 1000b660 f i bigfootselector.obj
 0001:0000a670       ?concrete@?$QMap@IH@@CAPAU?$QMapNode@IH@@PAUNode@QMapData@@@Z 1000b670 f i bigfootselector.obj
 0001:0000a680       ??Diterator@?$QList@I@@QBEAAIXZ 1000b680 f i bigfootselector.obj
 0001:0000a690       ?freeData@?$QMap@IH@@AAEXPAUQMapData@@@Z 1000b690 f i bigfootselector.obj
 0001:0000a6a0       ?erase@?$QList@I@@QAE?AViterator@1@V21@@Z 1000b6a0 f i bigfootselector.obj
 0001:0000a6c0       ?mutableFindNode@?$QMap@IH@@ABEPAUNode@QMapData@@QAPAU23@ABI@Z 1000b6c0 f i bigfootselector.obj
 0001:0000a720       ?node_create@?$QMap@IH@@AAEPAUNode@QMapData@@PAU3@QAPAU23@ABIABH@Z 1000b720 f i bigfootselector.obj
 0001:0000a750       ?free@?$QList@I@@AAEXPAUData@QListData@@@Z 1000b750 f i bigfootselector.obj
 0001:0000a770       ??1?$QMap@IH@@QAE@XZ       1000b770 f i bigfootselector.obj
 0001:0000a790       ?key@iterator@?$QMap@IH@@QBEABIXZ 1000b790 f i bigfootselector.obj
 0001:0000a7a0       ?value@iterator@?$QMap@IH@@QBEAAHXZ 1000b7a0 f i bigfootselector.obj
 0001:0000a7b0       ?detach_helper@?$QMap@IH@@AAEXXZ 1000b7b0 f i bigfootselector.obj
 0001:0000a830       ??1?$QList@I@@QAE@XZ       1000b830 f i bigfootselector.obj
 0001:0000a850       ?detach_helper@?$QList@I@@AAEXXZ 1000b850 f i bigfootselector.obj
 0001:0000a870       ?internalSet@?$ExternalRefCount@VRegisterLookup@@@QtSharedPointer@@QAEXPAUExternalRefCountData@2@PAVRegisterLookup@@@Z 1000b870 f i bigfootselector.obj
 0001:0000a8f0       ?detach@?$QMap@IH@@QAEXXZ  1000b8f0 f i bigfootselector.obj
 0001:0000a910       ?detach@?$QList@I@@QAEXXZ  1000b910 f i bigfootselector.obj
 0001:0000a940       ??4?$QMap@IH@@QAEAAV0@ABV0@@Z 1000b940 f i bigfootselector.obj
 0001:0000a990       ?clear@?$QMap@IH@@QAEXXZ   1000b990 f i bigfootselector.obj
 0001:0000aa40       ??A?$QMap@IH@@QAEAAHABI@Z  1000ba40 f i bigfootselector.obj
 0001:0000aaa0       ??4?$QList@I@@QAEAAV0@ABV0@@Z 1000baa0 f i bigfootselector.obj
 0001:0000ab10       ?append@?$QList@I@@QAEXABI@Z 1000bb10 f i bigfootselector.obj
 0001:0000ab60       ??$internalCopy@VRegisterLookup@@@?$ExternalRefCount@VRegisterLookup@@@QtSharedPointer@@IAEXABV01@@Z 1000bb60 f i bigfootselector.obj
 0001:0000ab80       ??0?$QSharedPointer@VRegisterLookup@@@@QAE@XZ 1000bb80 f i bigfootselector.obj
 0001:0000ab90       ??4?$QSharedPointer@VRegisterLookup@@@@QAEAAV0@ABV0@@Z 1000bb90 f i bigfootselector.obj
 0001:0000abb0       ?begin@?$QMap@IH@@QAE?AViterator@1@XZ 1000bbb0 f i bigfootselector.obj
 0001:0000abe0       ?end@?$QMap@IH@@QAE?AViterator@1@XZ 1000bbe0 f i bigfootselector.obj
 0001:0000ac00       ?push_back@?$QList@I@@QAEXABI@Z 1000bc00 f i bigfootselector.obj
 0001:0000ac50       ?end@?$QList@I@@QAE?AViterator@1@XZ 1000bc50 f i bigfootselector.obj
 0001:0000ac90       ?removeLast@?$QList@I@@QAEXXZ 1000bc90 f i bigfootselector.obj
 0001:0000ace0       ??0BigfootSelector@@QAE@ABV0@@Z 1000bce0 f   bigfootselector.obj
 0001:0000adf0       ?apply@BigfootSelector@@AAEXXZ 1000bdf0 f   bigfootselector.obj
 0001:0000b090       ??0BigfootSelector@@QAE@W4dbg_proc_sel_enum@@PAVSpiConnection@@GV?$QSharedPointer@VRegisterLookup@@@@IG@Z 1000c090 f   bigfootselector.obj
 0001:0000b2d0       ?last@?$QList@I@@QAEAAIXZ  1000c2d0 f i bigfootselector.obj
 0001:0000b310       ?pop_back@?$QList@I@@QAEXXZ 1000c310 f i bigfootselector.obj
 0001:0000b360       ??1BigfootSelector@@QAE@XZ 1000c360 f   bigfootselector.obj
 0001:0000b670       ??1BinutilsAsmDocumentExtension@@UAE@XZ 1000c670 f   binutilsasmdocumentextension.obj
 0001:0000b6a0       ?addRef@BinutilsAsmDocumentExtension@@UAEKXZ 1000c6a0 f i binutilsasmdocumentextension.obj
 0001:0000b6b0       ?release@BinutilsAsmDocumentExtension@@UAEKXZ 1000c6b0 f i binutilsasmdocumentextension.obj
 0001:0000b6d0       ?queryInterface@BinutilsAsmDocumentExtension@@UAEKABUQUuid@@PAPAUQUnknownInterface@@@Z 1000c6d0 f   binutilsasmdocumentextension.obj
 0001:0000b850       ?type@BinutilsAsmDocumentExtension@@UBE?AW4Type@IExtension@@XZ 1000c850 f   binutilsasmdocumentextension.obj
 0001:0000b860       ?name@BinutilsAsmDocumentExtension@@UBE?AVQString@@XZ 1000c860 f   binutilsasmdocumentextension.obj
 0001:0000b890       ?templateName@BinutilsAsmDocumentExtension@@UBE?AVQString@@XZ 1000c890 f   binutilsasmdocumentextension.obj
 0001:0000b8c0       ?templateDescription@BinutilsAsmDocumentExtension@@UBE?AVQString@@XZ 1000c8c0 f   binutilsasmdocumentextension.obj
 0001:0000b950       ?templateIcon@BinutilsAsmDocumentExtension@@UBE?AVQPixmap@@XZ 1000c950 f   binutilsasmdocumentextension.obj
 0001:0000b980       ?createSyntaxHighlighter@BinutilsAsmDocumentExtension@@UBEPAXXZ 1000c980 f   binutilsasmdocumentextension.obj
 0001:0000b9e0       ?createIndenter@BinutilsAsmDocumentExtension@@UBEPAXXZ 1000c9e0 f   binutilsasmdocumentextension.obj
 0001:0000b9f0       ?queryInterface@BinutilsAsmDocumentExtension@@W3AEKABUQUuid@@PAPAUQUnknownInterface@@@Z 1000c9f0 f i binutilsasmdocumentextension.obj
 0001:0000ba00       ?addRef@BinutilsAsmDocumentExtension@@W3AEKXZ 1000ca00 f i binutilsasmdocumentextension.obj
 0001:0000ba10       ?release@BinutilsAsmDocumentExtension@@W3AEKXZ 1000ca10 f i binutilsasmdocumentextension.obj
 0001:0000ba20       ??0BinutilsAsmDocumentExtension@@QAE@ABVQString@@@Z 1000ca20 f   binutilsasmdocumentextension.obj
 0001:0000ba60       ??_EBinutilsAsmDocumentExtension@@UAEPAXI@Z 1000ca60 f i binutilsasmdocumentextension.obj
 0001:0000ba60       ??_GBinutilsAsmDocumentExtension@@UAEPAXI@Z 1000ca60 f i binutilsasmdocumentextension.obj
 0001:0000baa0       ?fileExtensions@BinutilsAsmDocumentExtension@@UBE?AVQStringList@@XZ 1000caa0 f   binutilsasmdocumentextension.obj
 0001:0000bb30       ??1BinutilsAsmSyntaxHighlighter@@UAE@XZ 1000cb30 f   binutilsasmsyntaxhighlighter.obj
 0001:0000bb40       ?nextState@BinutilsAsmSyntaxHighlighter@@AAE?AW4State@1@W421@W4Input@1@@Z 1000cb40 f   binutilsasmsyntaxhighlighter.obj
 0001:0000bb60       ??_EBinutilsAsmSyntaxHighlighter@@UAEPAXI@Z 1000cb60 f i binutilsasmsyntaxhighlighter.obj
 0001:0000bb60       ??_GBinutilsAsmSyntaxHighlighter@@UAEPAXI@Z 1000cb60 f i binutilsasmsyntaxhighlighter.obj
 0001:0000bb90       ??0BinutilsAsmSyntaxHighlighter@@QAE@XZ 1000cb90 f   binutilsasmsyntaxhighlighter.obj
 0001:0000bc20       ?wordMap@BinutilsAsmSyntaxHighlighter@@AAEAAV?$QMap@HV?$QMap@VQString@@H@@@@XZ 1000cc20 f   binutilsasmsyntaxhighlighter.obj
 0001:0000bdf0       ?highlightBlockHook@BinutilsAsmSyntaxHighlighter@@MAEXABVQString@@@Z 1000cdf0 f   binutilsasmsyntaxhighlighter.obj
 0001:0000c510       ??8@YA_NABVQString@@UNull@0@@Z 1000d510 f i bluelabproject.obj
 0001:0000c530       ?contains@QStringList@@QBE?AVQBool@@ABVQString@@W4CaseSensitivity@Qt@@@Z 1000d530 f i bluelabproject.obj
 0001:0000c550       ?replaceInStrings@QStringList@@QAEAAV1@ABVQRegExp@@ABVQString@@@Z 1000d550 f i bluelabproject.obj
 0001:0000c570       ?indexOf@QStringList@@QBEHABVQRegExp@@H@Z 1000d570 f i bluelabproject.obj
 0001:0000c590       ??0CommandInvocation@@QAE@VQString@@0@Z 1000d590 f i bluelabproject.obj
 0001:0000c630       ?commandString@CommandInvocation@@QBE?AVQString@@XZ 1000d630 f i bluelabproject.obj
 0001:0000c650       ?configuration@CommandInvocation@@QBE?AVQString@@XZ 1000d650 f i bluelabproject.obj
 0001:0000c680       ?tr@BlueLabProject@@SA?AVQString@@PBD0@Z 1000d680 f i bluelabproject.obj
 0001:0000c6b0       ??0FeedbackEvent@@QAE@ABVQString@@W4FeedbackType@BlueLabProject@@@Z 1000d6b0 f i bluelabproject.obj
 0001:0000c730       ?feedback@FeedbackEvent@@QBE?AVQString@@XZ 1000d730 f i bluelabproject.obj
 0001:0000c760       ?feedbackType@FeedbackEvent@@QBE?AW4FeedbackType@BlueLabProject@@XZ 1000d760 f i bluelabproject.obj
 0001:0000c770       ??1FeedbackEvent@@UAE@XZ   1000d770 f i bluelabproject.obj
 0001:0000c7d0       ??0BuildEvent@@QAE@_N@Z    1000d7d0 f i bluelabproject.obj
 0001:0000c800       ?buildOk@BuildEvent@@QBE_NXZ 1000d800 f i bluelabproject.obj
 0001:0000c810       ??1BuildEvent@@UAE@XZ      1000d810 f i bluelabproject.obj
 0001:0000c820       ??0IBuildEnvironment@@QAE@XZ 1000d820 f i bluelabproject.obj
 0001:0000c830       ??0IQueryPluginInterfaceSetup@@QAE@XZ 1000d830 f i bluelabproject.obj
 0001:0000c840       ??0IErrorLookup@@QAE@XZ    1000d840 f i bluelabproject.obj
 0001:0000c850       ??0IBuildDependencies@@QAE@XZ 1000d850 f i bluelabproject.obj
 0001:0000c860       ?makeCommand@BlueLabProject@@QBE?AVQString@@XZ 1000d860 f   bluelabproject.obj
 0001:0000caf0       ?makefile@BlueLabProject@@SA?AVQString@@PAUIProject@@ABV2@@Z 1000daf0 f   bluelabproject.obj
 0001:0000cc10       ?makefile_with_path@BlueLabProject@@SA?AVQString@@PAUIProject@@ABV2@@Z 1000dc10 f   bluelabproject.obj
 0001:0000ccf0       ?print@BlueLabProject@@IAEXABVQString@@@Z 1000dcf0 f   bluelabproject.obj
 0001:0000cd60       ??0CommandInvocation@@QAE@ABV0@@Z 1000dd60 f i bluelabproject.obj
 0001:0000cdc0       ??1CommandInvocation@@QAE@XZ 1000ddc0 f i bluelabproject.obj
 0001:0000ce30       ?event@BlueLabProject@@MAE_NPAVQEvent@@@Z 1000de30 f   bluelabproject.obj
 0001:0000cf70       ?mangleDebugTransport@BlueLabProject@@KA?AVQString@@V2@@Z 1000df70 f   bluelabproject.obj
 0001:0000d270       ?init@BlueLabProject@@UAE_NPAUIBuildEvents@@ABVQString@@@Z 1000e270 f   bluelabproject.obj
 0001:0000d2a0       ?buildDependents@BlueLabProject@@AAEXXZ 1000e2a0 f   bluelabproject.obj
 0001:0000d3e0       ?setProject@BlueLabProject@@UAEXPAUIProject@@@Z 1000e3e0 f   bluelabproject.obj
 0001:0000d410       ?hasMatchLookupInfo@BlueLabProject@@UAE_NABVQString@@AAV2@AAH@Z 1000e410 f   bluelabproject.obj
 0001:0000d7d0       ?insertAsSibling@BlueLabProject@@QAEXAAVQDomNode@@0@Z 1000e7d0 f   bluelabproject.obj
 0001:0000d8d0       ?createDocumentFromMatchingElements@BlueLabProject@@QAE?AVQDomDocument@@ABV2@ABVQString@@1@Z 1000e8d0 f   bluelabproject.obj
 0001:0000dda0       ?setQueryPluginInterface@BlueLabProject@@UAEXPAUIQueryPluginInterface@@@Z 1000eda0 f   bluelabproject.obj
 0001:0000ddd0       ?pluginsChanged@BlueLabProject@@UAEXXZ 1000edd0 f   bluelabproject.obj
 0001:0000dde0       ?waitForThreadFinished@BlueLabProject@@AAE_NH@Z 1000ede0 f   bluelabproject.obj
 0001:0000de90       ?setMakeBuiltInRules@BlueLabProject@@QAEX_N@Z 1000ee90 f   bluelabproject.obj
 0001:0000dea0       ?setSDKFolderVariableName@BlueLabProject@@QAEXABVQString@@@Z 1000eea0 f   bluelabproject.obj
 0001:0000deb0       ??0?$QFlags@W4ProcessEventsFlag@QEventLoop@@@@QAE@W4ProcessEventsFlag@QEventLoop@@@Z 1000eeb0 f i bluelabproject.obj
 0001:0000dec0       ??0?$QFlags@W4OpenModeFlag@QIODevice@@@@QAE@W4OpenModeFlag@QIODevice@@@Z 1000eec0 f i bluelabproject.obj
 0001:0000ded0       ??0?$QList@VCommandInvocation@@@@QAE@XZ 1000eed0 f i bluelabproject.obj
 0001:0000def0       ??0?$CCScopedPtr@VQProcess@@@@QAE@PAVQProcess@@@Z 1000eef0 f i bluelabproject.obj
 0001:0000df00       ??1?$CCScopedPtr@VQProcess@@@@QAE@XZ 1000ef00 f i bluelabproject.obj
 0001:0000df20       ??C?$CCScopedPtr@VQProcess@@@@QBEPAVQProcess@@XZ 1000ef20 f i bluelabproject.obj
 0001:0000df30       ?get@?$CCScopedPtr@VQProcess@@@@QBEPAVQProcess@@XZ 1000ef30 f i bluelabproject.obj
 0001:0000df40       ?reset@?$CCScopedPtr@VQProcess@@@@QAEXPAVQProcess@@@Z 1000ef40 f i bluelabproject.obj
 0001:0000df70       ??0iterator@?$QList@VQString@@@@QAE@XZ 1000ef70 f i bluelabproject.obj
 0001:0000df80       ??9iterator@?$QList@VQString@@@@QBE_NABV01@@Z 1000ef80 f i bluelabproject.obj
 0001:0000dfa0       ??Eiterator@?$QList@VQString@@@@QAEAAV01@XZ 1000efa0 f i bluelabproject.obj
 0001:0000dfb0       ??Econst_iterator@?$QList@VCommandInvocation@@@@QAEAAV01@XZ 1000efb0 f i bluelabproject.obj
 0001:0000dfc0       ??0iterator@?$QList@VCommandInvocation@@@@QAE@XZ 1000efc0 f i bluelabproject.obj
 0001:0000dfd0       ??9iterator@?$QList@VCommandInvocation@@@@QBE_NABV01@@Z 1000efd0 f i bluelabproject.obj
 0001:0000dff0       ??Eiterator@?$QList@VCommandInvocation@@@@QAEAAV01@XZ 1000eff0 f i bluelabproject.obj
 0001:0000e000       ??0?$QList@PAUIProjectFile@@@@QAE@XZ 1000f000 f i bluelabproject.obj
 0001:0000e020       ??0iterator@?$QList@PAUIProjectFile@@@@QAE@XZ 1000f020 f i bluelabproject.obj
 0001:0000e030       ??9iterator@?$QList@PAUIProjectFile@@@@QBE_NABV01@@Z 1000f030 f i bluelabproject.obj
 0001:0000e050       ??Eiterator@?$QList@PAUIProjectFile@@@@QAEAAV01@XZ 1000f050 f i bluelabproject.obj
 0001:0000e060       ??0?$QList@PAUIProjectFolder@@@@QAE@XZ 1000f060 f i bluelabproject.obj
 0001:0000e080       ??0iterator@?$QList@PAUIProjectFolder@@@@QAE@XZ 1000f080 f i bluelabproject.obj
 0001:0000e090       ??9iterator@?$QList@PAUIProjectFolder@@@@QBE_NABV01@@Z 1000f090 f i bluelabproject.obj
 0001:0000e0b0       ??Eiterator@?$QList@PAUIProjectFolder@@@@QAEAAV01@XZ 1000f0b0 f i bluelabproject.obj
 0001:0000e0c0       ??0iterator@?$QList@VQString@@@@QAE@PAUNode@1@@Z 1000f0c0 f i bluelabproject.obj
 0001:0000e0d0       ??9const_iterator@?$QList@VCommandInvocation@@@@QBE_NABV01@@Z 1000f0d0 f i bluelabproject.obj
 0001:0000e0f0       ??0iterator@?$QList@VCommandInvocation@@@@QAE@PAUNode@1@@Z 1000f0f0 f i bluelabproject.obj
 0001:0000e100       ??0iterator@?$QList@PAUIProjectFile@@@@QAE@PAUNode@1@@Z 1000f100 f i bluelabproject.obj
 0001:0000e110       ??0iterator@?$QList@PAUIProjectFolder@@@@QAE@PAUNode@1@@Z 1000f110 f i bluelabproject.obj
 0001:0000e120       ?t@Node@?$QList@VCommandInvocation@@@@QAEAAVCommandInvocation@@XZ 1000f120 f i bluelabproject.obj
 0001:0000e130       ?t@Node@?$QList@PAUIProjectFile@@@@QAEAAPAUIProjectFile@@XZ 1000f130 f i bluelabproject.obj
 0001:0000e140       ?t@Node@?$QList@PAUIProjectFolder@@@@QAEAAPAUIProjectFolder@@XZ 1000f140 f i bluelabproject.obj
 0001:0000e150       ??$qForeachPointer@V?$QList@VCommandInvocation@@@@@@YAPAV?$QList@VCommandInvocation@@@@ABV0@@Z 1000f150 f i bluelabproject.obj
 0001:0000e160       ??$qForeachContainer@V?$QList@VCommandInvocation@@@@@@YAPBV?$QForeachContainer@V?$QList@VCommandInvocation@@@@@@PBUQForeachContainerBase@@PBV?$QList@VCommandInvocation@@@@@Z 1000f160 f i bluelabproject.obj
 0001:0000e170       ??0const_iterator@?$QList@VCommandInvocation@@@@QAE@PAUNode@1@@Z 1000f170 f i bluelabproject.obj
 0001:0000e180       ?node_copy@?$QList@VCommandInvocation@@@@AAEXPAUNode@1@00@Z 1000f180 f i bluelabproject.obj
 0001:0000e210       ?node_construct@?$QList@PAUIProjectFile@@@@AAEXPAUNode@1@ABQAUIProjectFile@@@Z 1000f210 f i bluelabproject.obj
 0001:0000e220       ?node_copy@?$QList@PAUIProjectFile@@@@AAEXPAUNode@1@00@Z 1000f220 f i bluelabproject.obj
 0001:0000e230       ?node_copy@?$QList@PAUIProjectFolder@@@@AAEXPAUNode@1@00@Z 1000f230 f i bluelabproject.obj
 0001:0000e240       ??4CommandInvocation@@QAEAAV0@ABV0@@Z 1000f240 f i bluelabproject.obj
 0001:0000e270       ?node_destruct@?$QList@PAUIProjectFile@@@@AAEXPAUNode@1@0@Z 1000f270 f i bluelabproject.obj
 0001:0000e280       ?node_destruct@?$QList@PAUIProjectFolder@@@@AAEXPAUNode@1@0@Z 1000f280 f i bluelabproject.obj
 0001:0000e290       ??_GCommandInvocation@@QAEPAXI@Z 1000f290 f i bluelabproject.obj
 0001:0000e2b0       ??_GFeedbackEvent@@UAEPAXI@Z 1000f2b0 f i bluelabproject.obj
 0001:0000e2b0       ??_EFeedbackEvent@@UAEPAXI@Z 1000f2b0 f i bluelabproject.obj
 0001:0000e2d0       ??_GBuildEvent@@UAEPAXI@Z  1000f2d0 f i bluelabproject.obj
 0001:0000e2d0       ??_EBuildEvent@@UAEPAXI@Z  1000f2d0 f i bluelabproject.obj
 0001:0000e2f0       ?makeCommand@BlueLabProject@@QBE?AVQString@@PAUIProject@@ABV2@@Z 1000f2f0 f   bluelabproject.obj
 0001:0000e450       ?waitForProcess@BlueLabProject@@IAE_NXZ 1000f450 f   bluelabproject.obj
 0001:0000e600       ?stop@BlueLabProject@@UAEXXZ 1000f600 f   bluelabproject.obj
 0001:0000e740       ?combineGlobalXMLWithLocalXML@BlueLabProject@@QAE?AVQDomDocument@@ABVQString@@00@Z 1000f740 f   bluelabproject.obj
 0001:0000efa0       ?safeStart@BlueLabProject@@IAEXXZ 1000ffa0 f   bluelabproject.obj
 0001:0000efc0       ??Diterator@?$QList@VQString@@@@QBEAAVQString@@XZ 1000ffc0 f i bluelabproject.obj
 0001:0000efd0       ?condition@?$QForeachContainer@V?$QList@VCommandInvocation@@@@@@QBE_NXZ 1000ffd0 f i bluelabproject.obj
 0001:0000eff0       ??Dconst_iterator@?$QList@VCommandInvocation@@@@QBEABVCommandInvocation@@XZ 1000fff0 f i bluelabproject.obj
 0001:0000f000       ??Diterator@?$QList@VCommandInvocation@@@@QBEAAVCommandInvocation@@XZ 10010000 f i bluelabproject.obj
 0001:0000f010       ??Citerator@?$QList@VCommandInvocation@@@@QBEPAVCommandInvocation@@XZ 10010010 f i bluelabproject.obj
 0001:0000f020       ??Diterator@?$QList@PAUIProjectFile@@@@QBEAAPAUIProjectFile@@XZ 10010020 f i bluelabproject.obj
 0001:0000f030       ??Diterator@?$QList@PAUIProjectFolder@@@@QBEAAPAUIProjectFolder@@XZ 10010030 f i bluelabproject.obj
 0001:0000f040       ?begin@?$QList@VCommandInvocation@@@@QBE?AVconst_iterator@1@XZ 10010040 f i bluelabproject.obj
 0001:0000f060       ?end@?$QList@VCommandInvocation@@@@QBE?AVconst_iterator@1@XZ 10010060 f i bluelabproject.obj
 0001:0000f080       ?node_destruct@?$QList@VQString@@@@AAEXPAUNode@1@@Z 10010080 f i bluelabproject.obj
 0001:0000f0a0       ?node_construct@?$QList@VCommandInvocation@@@@AAEXPAUNode@1@ABVCommandInvocation@@@Z 100100a0 f i bluelabproject.obj
 0001:0000f110       ?free@?$QList@PAUIProjectFile@@@@AAEXPAUData@QListData@@@Z 10010110 f i bluelabproject.obj
 0001:0000f130       ?free@?$QList@PAUIProjectFolder@@@@AAEXPAUData@QListData@@@Z 10010130 f i bluelabproject.obj
 0001:0000f150       ?node_destruct@?$QList@VCommandInvocation@@@@AAEXPAUNode@1@0@Z 10010150 f i bluelabproject.obj
 0001:0000f190       ?erase@?$QList@VQString@@@@QAE?AViterator@1@V21@@Z 10010190 f i bluelabproject.obj
 0001:0000f1d0       ??1?$QList@PAUIProjectFile@@@@QAE@XZ 100101d0 f i bluelabproject.obj
 0001:0000f1f0       ?detach_helper@?$QList@PAUIProjectFile@@@@AAEXXZ 100101f0 f i bluelabproject.obj
 0001:0000f210       ??1?$QList@PAUIProjectFolder@@@@QAE@XZ 10010210 f i bluelabproject.obj
 0001:0000f230       ?detach_helper@?$QList@PAUIProjectFolder@@@@AAEXXZ 10010230 f i bluelabproject.obj
 0001:0000f250       ?free@?$QList@VCommandInvocation@@@@AAEXPAUData@QListData@@@Z 10010250 f i bluelabproject.obj
 0001:0000f280       ??0?$QList@PAUIProjectFile@@@@QAE@ABV0@@Z 10010280 f i bluelabproject.obj
 0001:0000f2d0       ?detach@?$QList@PAUIProjectFile@@@@QAEXXZ 100102d0 f i bluelabproject.obj
 0001:0000f300       ?detach@?$QList@PAUIProjectFolder@@@@QAEXXZ 10010300 f i bluelabproject.obj
 0001:0000f330       ?removeAll@?$QList@VQString@@@@QAEHABVQString@@@Z 10010330 f i bluelabproject.obj
 0001:0000f410       ??1?$QList@VCommandInvocation@@@@QAE@XZ 10010410 f i bluelabproject.obj
 0001:0000f450       ?detach_helper@?$QList@VCommandInvocation@@@@AAEXXZ 10010450 f i bluelabproject.obj
 0001:0000f4c0       ??4?$QList@PAUIProjectFile@@@@QAEAAV0@ABV0@@Z 100104c0 f i bluelabproject.obj
 0001:0000f530       ?append@?$QList@PAUIProjectFile@@@@QAEXABQAUIProjectFile@@@Z 10010530 f i bluelabproject.obj
 0001:0000f580       ??4?$QList@PAUIProjectFolder@@@@QAEAAV0@ABV0@@Z 10010580 f i bluelabproject.obj
 0001:0000f5f0       ??0?$QList@VCommandInvocation@@@@QAE@ABV0@@Z 100105f0 f i bluelabproject.obj
 0001:0000f620       ??4?$QList@VCommandInvocation@@@@QAEAAV0@ABV0@@Z 10010620 f i bluelabproject.obj
 0001:0000f690       ??0BlueLabProject@@QAE@XZ  10010690 f   bluelabproject.obj
 0001:0000f7e0       ??1BlueLabProject@@UAE@XZ  100107e0 f   bluelabproject.obj
 0001:0000f990       ??1?$QForeachContainer@V?$QList@VCommandInvocation@@@@@@QAE@XZ 10010990 f i bluelabproject.obj
 0001:0000f9d0       ?writePropertiesToMakefile@BlueLabProject@@QAEXABVQDomDocument@@AAVQTextStream@@AAVProjectHelper@@AAVQStringList@@W4PropertyFormatEnum@1@@Z 100109d0 f   bluelabproject.obj
 0001:000109a0       ?putEnv@BlueLabProject@@AAEXABVQString@@0@Z 100119a0 f   bluelabproject.obj
 0001:00010d20       ?begin@?$QList@VQString@@@@QAE?AViterator@1@XZ 10011d20 f i bluelabproject.obj
 0001:00010d50       ?end@?$QList@VQString@@@@QAE?AViterator@1@XZ 10011d50 f i bluelabproject.obj
 0001:00010d80       ?begin@?$QList@PAUIProjectFile@@@@QAE?AViterator@1@XZ 10011d80 f i bluelabproject.obj
 0001:00010dc0       ?end@?$QList@PAUIProjectFile@@@@QAE?AViterator@1@XZ 10011dc0 f i bluelabproject.obj
 0001:00010e00       ?begin@?$QList@PAUIProjectFolder@@@@QAE?AViterator@1@XZ 10011e00 f i bluelabproject.obj
 0001:00010e40       ?end@?$QList@PAUIProjectFolder@@@@QAE?AViterator@1@XZ 10011e40 f i bluelabproject.obj
 0001:00010e80       ?first@?$QList@VQString@@@@QAEAAVQString@@XZ 10011e80 f i bluelabproject.obj
 0001:00010ea0       ?removeFirst@?$QList@VQString@@@@QAEXXZ 10011ea0 f i bluelabproject.obj
 0001:00010ee0       ?detach@?$QList@VCommandInvocation@@@@QAEXXZ 10011ee0 f i bluelabproject.obj
 0001:00010ef0       ?clear@?$QList@VCommandInvocation@@@@QAEXXZ 10011ef0 f i bluelabproject.obj
 0001:00010f90       ?append@?$QList@VCommandInvocation@@@@QAEXABVCommandInvocation@@@Z 10011f90 f i bluelabproject.obj
 0001:00010fc0       ??0?$QForeachContainer@V?$QList@VCommandInvocation@@@@@@QAE@ABV?$QList@VCommandInvocation@@@@@Z 10011fc0 f i bluelabproject.obj
 0001:00011010       ??_GBlueLabProject@@UAEPAXI@Z 10012010 f i bluelabproject.obj
 0001:00011010       ??_EBlueLabProject@@UAEPAXI@Z 10012010 f i bluelabproject.obj
 0001:00011030       ?getFileList@BlueLabProject@@IBE?AV?$QList@PAUIProjectFile@@@@ABVQString@@PAUIProjectFolder@@PAUIProject@@@Z 10012030 f   bluelabproject.obj
 0001:00011650       ?setupEnvironment@BlueLabProject@@AAEXABVQString@@@Z 10012650 f   bluelabproject.obj
 0001:00011950       ?front@?$QList@VQString@@@@QAEAAVQString@@XZ 10012950 f i bluelabproject.obj
 0001:00011970       ?pop_front@?$QList@VQString@@@@QAEXXZ 10012970 f i bluelabproject.obj
 0001:000119b0       ?begin@?$QList@VCommandInvocation@@@@QAE?AViterator@1@XZ 100129b0 f i bluelabproject.obj
 0001:000119e0       ?end@?$QList@VCommandInvocation@@@@QAE?AViterator@1@XZ 100129e0 f i bluelabproject.obj
 0001:00011a10       ??6?$QList@VCommandInvocation@@@@QAEAAV0@ABVCommandInvocation@@@Z 10012a10 f i bluelabproject.obj
 0001:00011a40       ??$qForeachContainerNew@V?$QList@VCommandInvocation@@@@@@YA?AV?$QForeachContainer@V?$QList@VCommandInvocation@@@@@@ABV?$QList@VCommandInvocation@@@@@Z 10012a40 f i bluelabproject.obj
 0001:00011aa0       ?doCommand@BlueLabProject@@IAE_NABVCommandInvocation@@@Z 10012aa0 f   bluelabproject.obj
 0001:00011d80       ??_GQProcess@@UAEPAXI@Z    10012d80 f i bluelabproject.obj
 0001:00011d80       ??_EQProcess@@UAEPAXI@Z    10012d80 f i bluelabproject.obj
 0001:00011da0       ?run@BlueLabProject@@MAEXXZ 10012da0 f   bluelabproject.obj
 0001:00012460       ?doBuild@BlueLabProject@@UAEXXZ 10013460 f   bluelabproject.obj
 0001:00012680       ?build@BlueLabProject@@UAEXABVQStringList@@_N@Z 10013680 f   bluelabproject.obj
 0001:000128a0       ?clean@BlueLabProject@@UAEXABVQStringList@@@Z 100138a0 f   bluelabproject.obj
 0001:00012a10       ?upToDate@BlueLabProject@@UAE_NABVQString@@@Z 10013a10 f   bluelabproject.obj
 0001:00012b20       ??0BooleanType@@QAE@ABVQString@@H@Z 10013b20 f   booleantype.obj
 0001:00012b90       ?wrapChildrenConst@SymbolType@@UAEPAV1@PAV?$QList@PAVSymbolType@@@@@Z 10013b90 f i booleantype.obj
 0001:00012ba0       ?wrapChildrenVolatile@SymbolType@@UAEPAV1@PAV?$QList@PAVSymbolType@@@@@Z 10013ba0 f i booleantype.obj
 0001:00012bb0       ??1BooleanType@@UAE@XZ     10013bb0 f   booleantype.obj
 0001:00012bc0       ??4MultiFormatData@@QAEAAV0@ABV0@@Z 10013bc0 f i booleantype.obj
 0001:00012bf0       ?bitSize@BooleanType@@QBEHXZ 10013bf0 f   booleantype.obj
 0001:00012c00       ??$qMetaTypeConstructHelper@VMultiFormatData@@@@YAPAXPBVMultiFormatData@@@Z 10013c00 f i booleantype.obj
 0001:00012c90       ??$qMetaTypeDeleteHelper@VMultiFormatData@@@@YAXPAVMultiFormatData@@@Z 10013c90 f i booleantype.obj
 0001:00012cb0       ??_GBooleanType@@UAEPAXI@Z 10013cb0 f i booleantype.obj
 0001:00012cb0       ??_EBooleanType@@UAEPAXI@Z 10013cb0 f i booleantype.obj
 0001:00012ce0       ?describe@BooleanType@@UBE?AVQString@@XZ 10013ce0 f   booleantype.obj
 0001:00012da0       ?size@BooleanType@@UBEHPBVLocationResolver@@@Z 10013da0 f   booleantype.obj
 0001:00012dd0       ?writeVariant@BooleanType@@UBE_NABVQVariant@@ABVLocation@@PAVLocationResolver@@@Z 10013dd0 f   booleantype.obj
 0001:00013090       ??$qRegisterMetaType@VMultiFormatData@@@@YAHPBDPAVMultiFormatData@@@Z 10014090 f i booleantype.obj
 0001:000130b0       ?qt_metatype_id@?$QMetaTypeId@VMultiFormatData@@@@SAHXZ 100140b0 f i booleantype.obj
 0001:000130e0       ?qt_metatype_id@?$QMetaTypeId2@VMultiFormatData@@@@SAHXZ 100140e0 f i booleantype.obj
 0001:00013110       ??$qMetaTypeId@VMultiFormatData@@@@YAHPAVMultiFormatData@@@Z 10014110 f i booleantype.obj
 0001:00013140       ??$qVariantSetValue@VMultiFormatData@@@@YAXAAVQVariant@@ABVMultiFormatData@@@Z 10014140 f i booleantype.obj
 0001:000131d0       ?formatValue@BooleanType@@UBE?AVQString@@ABVLocation@@PBVLocationResolver@@@Z 100141d0 f   booleantype.obj
 0001:000133a0       ??$setValue@VMultiFormatData@@@QVariant@@QAEXABVMultiFormatData@@@Z 100143a0 f i booleantype.obj
 0001:000133c0       ?readVariant@BooleanType@@UBE?AVQVariant@@ABVLocation@@PBVLocationResolver@@@Z 100143c0 f   booleantype.obj
 0001:000135a0       ?tr@BreakpointsBase@@SA?AVQString@@PBD0@Z 100145a0 f i breakpointsbase.obj
 0001:000135d0       ??0BreakpointsPrintEvent@@QAE@ABVQString@@_N@Z 100145d0 f i breakpointsbase.obj
 0001:00013650       ?text@BreakpointsPrintEvent@@QAE?AVQString@@XZ 10014650 f i breakpointsbase.obj
 0001:00013680       ?serious@BreakpointsPrintEvent@@QAE_NXZ 10014680 f i breakpointsbase.obj
 0001:00013690       ??1BreakpointsPrintEvent@@UAE@XZ 10014690 f i breakpointsbase.obj
 0001:000136f0       ??0BreakpointsChangedEvent@@QAE@XZ 100146f0 f i breakpointsbase.obj
 0001:00013710       ??1BreakpointsChangedEvent@@UAE@XZ 10014710 f i breakpointsbase.obj
 0001:00013720       ?setAutoDisableIfTooMany@BreakpointsBase@@QAEX_N@Z 10014720 f   breakpointsbase.obj
 0001:00013730       ??0BreakpointPosition@IBreakpoints@@QAE@XZ 10014730 f i breakpointsbase.obj
 0001:00013750       ??1BreakpointPosition@IBreakpoints@@QAE@XZ 10014750 f i breakpointsbase.obj
 0001:00013770       ?installed@BreakpointsBase@@QAE_NXZ 10014770 f   breakpointsbase.obj
 0001:00013780       ?setBasePath@BreakpointsBase@@QAEXVQDir@@@Z 10014780 f   breakpointsbase.obj
 0001:00013810       ?basePath@BreakpointsBase@@QAE?AVQDir@@XZ 10014810 f   breakpointsbase.obj
 0001:000138a0       ?setDataBreakpointInstaller@BreakpointsBase@@QAEXPAUIDataBreakpointInstaller@@@Z 100148a0 f   breakpointsbase.obj
 0001:000138b0       ?signalPrint@BreakpointsBase@@IAEXABVQString@@_N@Z 100148b0 f   breakpointsbase.obj
 0001:00013920       ?signalBreakpointsChanged@BreakpointsBase@@IAEXXZ 10014920 f   breakpointsbase.obj
 0001:000139a0       ?event@BreakpointsBase@@MAE_NPAVQEvent@@@Z 100149a0 f   breakpointsbase.obj
 0001:00013a70       ??0CanonicalInfo@CanonicalFile@@QAE@ABU01@@Z 10014a70 f i breakpointsbase.obj
 0001:00013ad0       ??1CanonicalInfo@CanonicalFile@@QAE@XZ 10014ad0 f i breakpointsbase.obj
 0001:00013b40       ?instructionStartAddr@BreakpointsBase@@MAEII@Z 10014b40 f   breakpointsbase.obj
 0001:00013b50       ??0?$QList@UBreakpointPosition@IBreakpoints@@@@QAE@XZ 10014b50 f i breakpointsbase.obj
 0001:00013b70       ?size@?$QList@UBreakpointPosition@IBreakpoints@@@@QBEHXZ 10014b70 f i breakpointsbase.obj
 0001:00013b80       ??0?$QList@UBreakpoint@IBreakpoints@@@@QAE@XZ 10014b80 f i breakpointsbase.obj
 0001:00013ba0       ??0?$QList@UInstalledBreakpoint@BreakpointsBase@@@@QAE@XZ 10014ba0 f i breakpointsbase.obj
 0001:00013bc0       ??0?$QFlags@W4BreakpointType@BreakpointsBase@@@@QAE@ABV0@@Z 10014bc0 f i breakpointsbase.obj
 0001:00013bd0       ??0?$QFlags@W4BreakpointType@BreakpointsBase@@@@QAE@PAPAX@Z 10014bd0 f i breakpointsbase.obj
 0001:00013be0       ??0iterator@?$QList@UInstalledBreakpoint@BreakpointsBase@@@@QAE@XZ 10014be0 f i breakpointsbase.obj
 0001:00013bf0       ??9iterator@?$QList@UInstalledBreakpoint@BreakpointsBase@@@@QBE_NABV01@@Z 10014bf0 f i breakpointsbase.obj
 0001:00013c10       ??Eiterator@?$QList@UInstalledBreakpoint@BreakpointsBase@@@@QAEAAV01@XZ 10014c10 f i breakpointsbase.obj
 0001:00013c20       ??0iterator@?$QList@UBreakpoint@IBreakpoints@@@@QAE@XZ 10014c20 f i breakpointsbase.obj
 0001:00013c30       ??9iterator@?$QList@UBreakpoint@IBreakpoints@@@@QBE_NABV01@@Z 10014c30 f i breakpointsbase.obj
 0001:00013c50       ??Eiterator@?$QList@UBreakpoint@IBreakpoints@@@@QAEAAV01@XZ 10014c50 f i breakpointsbase.obj
 0001:00013c60       ?size@?$QList@I@@QBEHXZ    10014c60 f i breakpointsbase.obj
 0001:00013c70       ??Econst_iterator@?$QList@I@@QAEAAV01@XZ 10014c70 f i breakpointsbase.obj
 0001:00013c80       ??0const_iterator@?$QList@UBreakpointPosition@IBreakpoints@@@@QAE@XZ 10014c80 f i breakpointsbase.obj
 0001:00013c90       ??9const_iterator@?$QList@UBreakpointPosition@IBreakpoints@@@@QBE_NABV01@@Z 10014c90 f i breakpointsbase.obj
 0001:00013cb0       ??Econst_iterator@?$QList@UBreakpointPosition@IBreakpoints@@@@QAEAAV01@XZ 10014cb0 f i breakpointsbase.obj
 0001:00013cc0       ??0iterator@?$QList@UBreakpointPosition@IBreakpoints@@@@QAE@XZ 10014cc0 f i breakpointsbase.obj
 0001:00013cd0       ??9iterator@?$QList@UBreakpointPosition@IBreakpoints@@@@QBE_NABV01@@Z 10014cd0 f i breakpointsbase.obj
 0001:00013cf0       ??Eiterator@?$QList@UBreakpointPosition@IBreakpoints@@@@QAEAAV01@XZ 10014cf0 f i breakpointsbase.obj
 0001:00013d00       ??0iterator@?$QList@UInstalledBreakpoint@BreakpointsBase@@@@QAE@PAUNode@1@@Z 10014d00 f i breakpointsbase.obj
 0001:00013d10       ??0iterator@?$QList@UBreakpoint@IBreakpoints@@@@QAE@PAUNode@1@@Z 10014d10 f i breakpointsbase.obj
 0001:00013d20       ??0iterator@?$QList@UBreakpoint@IBreakpoints@@@@QAE@ABV01@@Z 10014d20 f i breakpointsbase.obj
 0001:00013d30       ??Eiterator@?$QList@UBreakpoint@IBreakpoints@@@@QAE?AV01@H@Z 10014d30 f i breakpointsbase.obj
 0001:00013d40       ??0const_iterator@?$QList@UBreakpoint@IBreakpoints@@@@QAE@ABViterator@1@@Z 10014d40 f i breakpointsbase.obj
 0001:00013d50       ??9const_iterator@?$QList@UBreakpoint@IBreakpoints@@@@QBE_NABV01@@Z 10014d50 f i breakpointsbase.obj
 0001:00013d70       ??9const_iterator@?$QList@I@@QBE_NABV01@@Z 10014d70 f i breakpointsbase.obj
 0001:00013d90       ??0const_iterator@?$QList@UBreakpointPosition@IBreakpoints@@@@QAE@PAUNode@1@@Z 10014d90 f i breakpointsbase.obj
 0001:00013da0       ??0iterator@?$QList@UBreakpointPosition@IBreakpoints@@@@QAE@PAUNode@1@@Z 10014da0 f i breakpointsbase.obj
 0001:00013db0       ?t@Node@?$QList@UInstalledBreakpoint@BreakpointsBase@@@@QAEAAUInstalledBreakpoint@BreakpointsBase@@XZ 10014db0 f i breakpointsbase.obj
 0001:00013dc0       ?t@Node@?$QList@UBreakpoint@IBreakpoints@@@@QAEAAUBreakpoint@IBreakpoints@@XZ 10014dc0 f i breakpointsbase.obj
 0001:00013dd0       ?t@Node@?$QList@UBreakpointPosition@IBreakpoints@@@@QAEAAUBreakpointPosition@IBreakpoints@@XZ 10014dd0 f i breakpointsbase.obj
 0001:00013de0       ??0const_iterator@?$QList@UBreakpoint@IBreakpoints@@@@QAE@PAUNode@1@@Z 10014de0 f i breakpointsbase.obj
 0001:00013df0       ?at@?$QList@UBreakpointPosition@IBreakpoints@@@@QBEABUBreakpointPosition@IBreakpoints@@H@Z 10014df0 f i breakpointsbase.obj
 0001:00013e00       ?value@?$QList@I@@QBEIH@Z  10014e00 f i breakpointsbase.obj
 0001:00013e30       ??$qForeachPointer@V?$QList@I@@@@YAPAV?$QList@I@@ABV0@@Z 10014e30 f i breakpointsbase.obj
 0001:00013e40       ??$qForeachContainer@V?$QList@I@@@@YAPBV?$QForeachContainer@V?$QList@I@@@@PBUQForeachContainerBase@@PBV?$QList@I@@@Z 10014e40 f i breakpointsbase.obj
 0001:00013e50       ??0BreakpointPosition@IBreakpoints@@QAE@ABU01@@Z 10014e50 f i breakpointsbase.obj
 0001:00013e70       ??0const_iterator@?$QList@I@@QAE@PAUNode@1@@Z 10014e70 f i breakpointsbase.obj
 0001:00013e80       ?node_copy@?$QList@UBreakpointPosition@IBreakpoints@@@@AAEXPAUNode@1@00@Z 10014e80 f i breakpointsbase.obj
 0001:00013f10       ?node_construct@?$QList@UInstalledBreakpoint@BreakpointsBase@@@@AAEXPAUNode@1@ABUInstalledBreakpoint@BreakpointsBase@@@Z 10014f10 f i breakpointsbase.obj
 0001:00013f60       ?node_copy@?$QList@UInstalledBreakpoint@BreakpointsBase@@@@AAEXPAUNode@1@00@Z 10014f60 f i breakpointsbase.obj
 0001:00013fc0       ??4BreakpointPosition@IBreakpoints@@QAEAAU01@ABU01@@Z 10014fc0 f i breakpointsbase.obj
 0001:00013fe0       ?node_destruct@?$QList@UInstalledBreakpoint@BreakpointsBase@@@@AAEXPAUNode@1@0@Z 10014fe0 f i breakpointsbase.obj
 0001:00014010       ??_GBreakpointPosition@IBreakpoints@@QAEPAXI@Z 10015010 f i breakpointsbase.obj
 0001:00014040       ??_EBreakpointsPrintEvent@@UAEPAXI@Z 10015040 f i breakpointsbase.obj
 0001:00014040       ??_GBreakpointsPrintEvent@@UAEPAXI@Z 10015040 f i breakpointsbase.obj
 0001:00014060       ??_GBreakpointsChangedEvent@@UAEPAXI@Z 10015060 f i breakpointsbase.obj
 0001:00014060       ??_EBreakpointsChangedEvent@@UAEPAXI@Z 10015060 f i breakpointsbase.obj
 0001:00014080       ??0CanonicalFile@@QAE@ABV0@@Z 10015080 f i breakpointsbase.obj
 0001:000140a0       ??_ECanonicalFile@@UAEPAXI@Z 100150a0 f i breakpointsbase.obj
 0001:000140a0       ??_GCanonicalFile@@UAEPAXI@Z 100150a0 f i breakpointsbase.obj
 0001:000140c0       ?begin@?$QList@UBreakpointPosition@IBreakpoints@@@@QBE?AVconst_iterator@1@XZ 100150c0 f i breakpointsbase.obj
 0001:000140e0       ?end@?$QList@UBreakpointPosition@IBreakpoints@@@@QBE?AVconst_iterator@1@XZ 100150e0 f i breakpointsbase.obj
 0001:00014100       ??Diterator@?$QList@UInstalledBreakpoint@BreakpointsBase@@@@QBEAAUInstalledBreakpoint@BreakpointsBase@@XZ 10015100 f i breakpointsbase.obj
 0001:00014110       ??Diterator@?$QList@UBreakpoint@IBreakpoints@@@@QBEAAUBreakpoint@IBreakpoints@@XZ 10015110 f i breakpointsbase.obj
 0001:00014120       ?condition@?$QForeachContainer@V?$QList@I@@@@QBE_NXZ 10015120 f i breakpointsbase.obj
 0001:00014140       ??Dconst_iterator@?$QList@I@@QBEABIXZ 10015140 f i breakpointsbase.obj
 0001:00014150       ??Dconst_iterator@?$QList@UBreakpointPosition@IBreakpoints@@@@QBEABUBreakpointPosition@IBreakpoints@@XZ 10015150 f i breakpointsbase.obj
 0001:00014160       ?next@?$QMutableListIterator@UBreakpoint@IBreakpoints@@@@QAEAAUBreakpoint@IBreakpoints@@XZ 10015160 f i breakpointsbase.obj
 0001:00014170       ??Diterator@?$QList@UBreakpointPosition@IBreakpoints@@@@QBEAAUBreakpointPosition@IBreakpoints@@XZ 10015170 f i breakpointsbase.obj
 0001:00014180       ?constEnd@?$QList@UBreakpoint@IBreakpoints@@@@QBE?AVconst_iterator@1@XZ 10015180 f i breakpointsbase.obj
 0001:000141a0       ?begin@?$QList@I@@QBE?AVconst_iterator@1@XZ 100151a0 f i breakpointsbase.obj
 0001:000141c0       ?end@?$QList@I@@QBE?AVconst_iterator@1@XZ 100151c0 f i breakpointsbase.obj
 0001:000141e0       ?node_construct@?$QList@UBreakpointPosition@IBreakpoints@@@@AAEXPAUNode@1@ABUBreakpointPosition@IBreakpoints@@@Z 100151e0 f i breakpointsbase.obj
 0001:00014260       ?free@?$QList@UInstalledBreakpoint@BreakpointsBase@@@@AAEXPAUData@QListData@@@Z 10015260 f i breakpointsbase.obj
 0001:000142b0       ?node_destruct@?$QList@UBreakpointPosition@IBreakpoints@@@@AAEXPAUNode@1@0@Z 100152b0 f i breakpointsbase.obj
 0001:00014300       ?hasNext@?$QMutableListIterator@UBreakpoint@IBreakpoints@@@@QBE_NXZ 10015300 f i breakpointsbase.obj
 0001:00014320       ??1?$QList@UInstalledBreakpoint@BreakpointsBase@@@@QAE@XZ 10015320 f i breakpointsbase.obj
 0001:00014340       ?detach_helper@?$QList@UInstalledBreakpoint@BreakpointsBase@@@@AAEXXZ 10015340 f i breakpointsbase.obj
 0001:00014390       ?free@?$QList@UBreakpointPosition@IBreakpoints@@@@AAEXPAUData@QListData@@@Z 10015390 f i breakpointsbase.obj
 0001:000143c0       ??4?$QList@UInstalledBreakpoint@BreakpointsBase@@@@QAEAAV0@ABV0@@Z 100153c0 f i breakpointsbase.obj
 0001:00014410       ??1?$QForeachContainer@V?$QList@I@@@@QAE@XZ 10015410 f i breakpointsbase.obj
 0001:00014430       ?detach@?$QList@UInstalledBreakpoint@BreakpointsBase@@@@QAEXXZ 10015430 f i breakpointsbase.obj
 0001:00014440       ??1?$QList@UBreakpointPosition@IBreakpoints@@@@QAE@XZ 10015440 f i breakpointsbase.obj
 0001:00014480       ?detach_helper@?$QList@UBreakpointPosition@IBreakpoints@@@@AAEXXZ 10015480 f i breakpointsbase.obj
 0001:000144f0       ?clear@?$QList@UInstalledBreakpoint@BreakpointsBase@@@@QAEXXZ 100154f0 f i breakpointsbase.obj
 0001:00014590       ?append@?$QList@UInstalledBreakpoint@BreakpointsBase@@@@QAEXABUInstalledBreakpoint@BreakpointsBase@@@Z 10015590 f i breakpointsbase.obj
 0001:000145c0       ??0?$QList@I@@QAE@ABV0@@Z  100155c0 f i breakpointsbase.obj
 0001:00014610       ??4?$QList@UBreakpointPosition@IBreakpoints@@@@QAEAAV0@ABV0@@Z 10015610 f i breakpointsbase.obj
 0001:00014680       ??4Breakpoint@IBreakpoints@@QAEAAU01@ABU01@@Z 10015680 f i breakpointsbase.obj
 0001:000146b0       ??0Breakpoint@IBreakpoints@@QAE@XZ 100156b0 f i breakpointsbase.obj
 0001:000146d0       ??1Breakpoint@IBreakpoints@@QAE@XZ 100156d0 f i breakpointsbase.obj
 0001:00014710       ??0?$QList@UBreakpointPosition@IBreakpoints@@@@QAE@ABV0@@Z 10015710 f i breakpointsbase.obj
 0001:00014740       ?begin@?$QList@UInstalledBreakpoint@BreakpointsBase@@@@QAE?AViterator@1@XZ 10015740 f i breakpointsbase.obj
 0001:00014770       ?end@?$QList@UInstalledBreakpoint@BreakpointsBase@@@@QAE?AViterator@1@XZ 10015770 f i breakpointsbase.obj
 0001:000147a0       ??6?$QList@UInstalledBreakpoint@BreakpointsBase@@@@QAEAAV0@ABUInstalledBreakpoint@BreakpointsBase@@@Z 100157a0 f i breakpointsbase.obj
 0001:000147d0       ?detach@?$QList@UBreakpointPosition@IBreakpoints@@@@QAEXXZ 100157d0 f i breakpointsbase.obj
 0001:000147e0       ?clear@?$QList@UBreakpointPosition@IBreakpoints@@@@QAEXXZ 100157e0 f i breakpointsbase.obj
 0001:00014880       ??A?$QList@UBreakpointPosition@IBreakpoints@@@@QAEAAUBreakpointPosition@IBreakpoints@@H@Z 10015880 f i breakpointsbase.obj
 0001:000148b0       ?append@?$QList@UBreakpointPosition@IBreakpoints@@@@QAEXABUBreakpointPosition@IBreakpoints@@@Z 100158b0 f i breakpointsbase.obj
 0001:000148e0       ??0?$QForeachContainer@V?$QList@I@@@@QAE@ABV?$QList@I@@@Z 100158e0 f i breakpointsbase.obj
 0001:00014950       ??_GBreakpoint@IBreakpoints@@QAEPAXI@Z 10015950 f i breakpointsbase.obj
 0001:000149b0       ?node_destruct@?$QList@UBreakpoint@IBreakpoints@@@@AAEXPAUNode@1@0@Z 100159b0 f i breakpointsbase.obj
 0001:00014a20       ?clearTempBreakpoint@BreakpointsBase@@QAEXXZ 10015a20 f   breakpointsbase.obj
 0001:00014a90       ?breakpointAtAddr@BreakpointsBase@@QAE_NI@Z 10015a90 f   breakpointsbase.obj
 0001:00014b30       ??0Breakpoint@IBreakpoints@@QAE@ABU01@@Z 10015b30 f i breakpointsbase.obj
 0001:00014b70       ?doBreakpointsInstall@BreakpointsBase@@MAE_NXZ 10015b70 f   breakpointsbase.obj
 0001:00014c40       ?removeBreakpoints@BreakpointsBase@@IAE_NXZ 10015c40 f   breakpointsbase.obj
 0001:00014d20       ?isExistingHardwareBreakpoint@BreakpointsBase@@IAE_NI@Z 10015d20 f   breakpointsbase.obj
 0001:00014dd0       ?begin@?$QList@UBreakpointPosition@IBreakpoints@@@@QAE?AViterator@1@XZ 10015dd0 f i breakpointsbase.obj
 0001:00014e00       ?end@?$QList@UBreakpointPosition@IBreakpoints@@@@QAE?AViterator@1@XZ 10015e00 f i breakpointsbase.obj
 0001:00014e30       ??6?$QList@UBreakpointPosition@IBreakpoints@@@@QAEAAV0@ABUBreakpointPosition@IBreakpoints@@@Z 10015e30 f i breakpointsbase.obj
 0001:00014e60       ??$qForeachContainerNew@V?$QList@I@@@@YA?AV?$QForeachContainer@V?$QList@I@@@@ABV?$QList@I@@@Z 10015e60 f i breakpointsbase.obj
 0001:00014e80       ?free@?$QList@UBreakpoint@IBreakpoints@@@@AAEXPAUData@QListData@@@Z 10015e80 f i breakpointsbase.obj
 0001:00014eb0       ?node_construct@?$QList@UBreakpoint@IBreakpoints@@@@AAEXPAUNode@1@ABUBreakpoint@IBreakpoints@@@Z 10015eb0 f i breakpointsbase.obj
 0001:00014f40       ?node_destruct@?$QList@UBreakpoint@IBreakpoints@@@@AAEXPAUNode@1@@Z 10015f40 f i breakpointsbase.obj
 0001:00014fa0       ?node_copy@?$QList@UBreakpoint@IBreakpoints@@@@AAEXPAUNode@1@00@Z 10015fa0 f i breakpointsbase.obj
 0001:00015040       ?setTempBreakpoint@BreakpointsBase@@QAE_NABVQString@@H@Z 10016040 f   breakpointsbase.obj
 0001:00015190       ?setTempBreakpoint@BreakpointsBase@@QAE_NI@Z 10016190 f   breakpointsbase.obj
 0001:000152e0       ?uninstall@BreakpointsBase@@QAE_NXZ 100162e0 f   breakpointsbase.obj
 0001:00015380       ??1?$QList@UBreakpoint@IBreakpoints@@@@QAE@XZ 10016380 f i breakpointsbase.obj
 0001:000153c0       ?erase@?$QList@UBreakpoint@IBreakpoints@@@@QAE?AViterator@1@V21@@Z 100163c0 f i breakpointsbase.obj
 0001:000153f0       ?detach_helper@?$QList@UBreakpoint@IBreakpoints@@@@AAEXXZ 100163f0 f i breakpointsbase.obj
 0001:00015460       ??0BreakpointsBase@@QAE@XZ 10016460 f   breakpointsbase.obj
 0001:00015560       ??1BreakpointsBase@@UAE@XZ 10016560 f   breakpointsbase.obj
 0001:000156a0       ??0?$QList@UBreakpoint@IBreakpoints@@@@QAE@ABV0@@Z 100166a0 f i breakpointsbase.obj
 0001:000156d0       ?detach@?$QList@UBreakpoint@IBreakpoints@@@@QAEXXZ 100166d0 f i breakpointsbase.obj
 0001:000156e0       ?setSharable@?$QList@UBreakpoint@IBreakpoints@@@@QAEX_N@Z 100166e0 f i breakpointsbase.obj
 0001:00015710       ??4?$QList@UBreakpoint@IBreakpoints@@@@QAEAAV0@ABV0@@Z 10016710 f i breakpointsbase.obj
 0001:00015780       ?append@?$QList@UBreakpoint@IBreakpoints@@@@QAEXABUBreakpoint@IBreakpoints@@@Z 10016780 f i breakpointsbase.obj
 0001:000157b0       ??_EBreakpointsBase@@UAEPAXI@Z 100167b0 f i breakpointsbase.obj
 0001:000157b0       ??_GBreakpointsBase@@UAEPAXI@Z 100167b0 f i breakpointsbase.obj
 0001:000157d0       ?breakpointList@BreakpointsBase@@QAE?AV?$QList@UBreakpoint@IBreakpoints@@@@XZ 100167d0 f   breakpointsbase.obj
 0001:00015870       ?begin@?$QList@UBreakpoint@IBreakpoints@@@@QAE?AViterator@1@XZ 10016870 f i breakpointsbase.obj
 0001:000158a0       ?end@?$QList@UBreakpoint@IBreakpoints@@@@QAE?AViterator@1@XZ 100168a0 f i breakpointsbase.obj
 0001:000158d0       ??6?$QList@UBreakpoint@IBreakpoints@@@@QAEAAV0@ABUBreakpoint@IBreakpoints@@@Z 100168d0 f i breakpointsbase.obj
 0001:00015900       ??0?$QMutableListIterator@UBreakpoint@IBreakpoints@@@@QAE@AAV?$QList@UBreakpoint@IBreakpoints@@@@@Z 10016900 f i breakpointsbase.obj
 0001:00015970       ??1?$QMutableListIterator@UBreakpoint@IBreakpoints@@@@QAE@XZ 10016970 f i breakpointsbase.obj
 0001:00015980       ?toFront@?$QMutableListIterator@UBreakpoint@IBreakpoints@@@@QAEXXZ 10016980 f i breakpointsbase.obj
 0001:000159d0       ?remove@?$QMutableListIterator@UBreakpoint@IBreakpoints@@@@QAEXXZ 100169d0 f i breakpointsbase.obj
 0001:00015a20       ?userBreakpointAtAddr@BreakpointsBase@@QAE_NI@Z 10016a20 f   breakpointsbase.obj
 0001:00015bf0       ?breakpointState@BreakpointsBase@@IAE?AUBreakpoint@IBreakpoints@@ABVQString@@I@Z 10016bf0 f   breakpointsbase.obj
 0001:00015e70       ?addBreakpoint@BreakpointsBase@@IAE_NABVQString@@IW4BreakpointState@IBreakpoints@@@Z 10016e70 f   breakpointsbase.obj
 0001:00016340       ?installBreakpoints@BreakpointsBase@@IAE_N_NV?$QFlags@W4BreakpointType@BreakpointsBase@@@@@Z 10017340 f   breakpointsbase.obj
 0001:000171c0       ?setBreakpoint@BreakpointsBase@@QAE?AW4BreakpointStatus@IBreakpoints@@ABVQString@@IW4BreakpointState@3@@Z 100181c0 f   breakpointsbase.obj
 0001:000172f0       ?breakpoint@BreakpointsBase@@QAE?AUBreakpoint@IBreakpoints@@ABVQString@@I@Z 100182f0 f   breakpointsbase.obj
 0001:00017380       ?trialInstall@BreakpointsBase@@QAE_NXZ 10018380 f   breakpointsbase.obj
 0001:00017430       ?install@BreakpointsBase@@QAE_NV?$QFlags@W4BreakpointType@BreakpointsBase@@@@@Z 10018430 f   breakpointsbase.obj
 0001:000174e0       ?addr@MemAddr@@QBEIXZ      100184e0 f i cachedlocationresolver.obj
 0001:000174f0       ?region@MemAddr@@QBEHXZ    100184f0 f i cachedlocationresolver.obj
 0001:00017500       ?isRegionValid@MemAddr@@QBE_NXZ 10018500 f i cachedlocationresolver.obj
 0001:00017510       ??0?$QPair@VQString@@H@@QAE@ABU0@@Z 10018510 f i cachedlocationresolver.obj
 0001:00017530       ??1?$QPair@VQString@@H@@QAE@XZ 10018530 f i cachedlocationresolver.obj
 0001:00017550       ?setMemoryCache@CachedLocationResolver@@QAEXPAVMemoryCache@@@Z 10018550 f   cachedlocationresolver.obj
 0001:00017580       ?setRegisterCache@CachedLocationResolver@@QAEXPAVRegisterCache@@@Z 10018580 f   cachedlocationresolver.obj
 0001:000175b0       ?memoryCache@CachedLocationResolver@@QBEPAVMemoryCache@@XZ 100185b0 f   cachedlocationresolver.obj
 0001:000175c0       ?registerCache@CachedLocationResolver@@QBEPAVRegisterCache@@XZ 100185c0 f   cachedlocationresolver.obj
 0001:000175d0       ?readMemoryAux@CachedLocationResolver@@UBEIVMemAddr@@PA_N@Z 100185d0 f   cachedlocationresolver.obj
 0001:00017640       ??0RegisterPart@CachedLocationResolver@@QAE@ABU01@@Z 10018640 f i cachedlocationresolver.obj
 0001:00017670       ??1RegisterPart@CachedLocationResolver@@QAE@XZ 10018670 f i cachedlocationresolver.obj
 0001:00017690       ?writeMemoryAux@CachedLocationResolver@@UBE_NVMemAddr@@I@Z 10018690 f   cachedlocationresolver.obj
 0001:000176f0       ??0?$QPair@VQString@@H@@QAE@XZ 100186f0 f i cachedlocationresolver.obj
 0001:00017710       ??4?$QPair@VQString@@H@@QAEAAU0@ABU0@@Z 10018710 f i cachedlocationresolver.obj
 0001:00017730       ??0?$QMap@HV?$QList@URegisterPart@CachedLocationResolver@@@@@@QAE@XZ 10018730 f i cachedlocationresolver.obj
 0001:00017750       ?condition@?$QForeachContainer@V?$QVector@U?$QPair@IW4MemoryResult@IMemory@@@@@@@@QBE_NXZ 10018750 f i cachedlocationresolver.obj
 0001:00017770       ??0?$QList@URegisterPart@CachedLocationResolver@@@@QAE@XZ 10018770 f i cachedlocationresolver.obj
 0001:00017790       ?count@?$QList@URegisterPart@CachedLocationResolver@@@@QBEHXZ 10018790 f i cachedlocationresolver.obj
 0001:000177a0       ??0?$QMap@HVQStringList@@@@QAE@XZ 100187a0 f i cachedlocationresolver.obj
 0001:000177c0       ??9const_iterator@?$QMap@HV?$QList@URegisterPart@CachedLocationResolver@@@@@@QBE_NABV01@@Z 100187c0 f i cachedlocationresolver.obj
 0001:000177e0       ??Econst_iterator@?$QMap@HV?$QList@URegisterPart@CachedLocationResolver@@@@@@QAEAAV01@XZ 100187e0 f i cachedlocationresolver.obj
 0001:000177f0       ??9const_iterator@?$QList@URegisterPart@CachedLocationResolver@@@@QBE_NABV01@@Z 100187f0 f i cachedlocationresolver.obj
 0001:00017810       ??Econst_iterator@?$QList@URegisterPart@CachedLocationResolver@@@@QAEAAV01@XZ 10018810 f i cachedlocationresolver.obj
 0001:00017820       ??0const_iterator@?$QMap@HV?$QList@URegisterPart@CachedLocationResolver@@@@@@QAE@PAUNode@QMapData@@@Z 10018820 f i cachedlocationresolver.obj
 0001:00017830       ??0const_iterator@?$QList@URegisterPart@CachedLocationResolver@@@@QAE@PAUNode@1@@Z 10018830 f i cachedlocationresolver.obj
 0001:00017840       ?t@Node@?$QList@URegisterPart@CachedLocationResolver@@@@QAEAAURegisterPart@CachedLocationResolver@@XZ 10018840 f i cachedlocationresolver.obj
 0001:00017850       ?payload@?$QMap@HV?$QList@URegisterPart@CachedLocationResolver@@@@@@CAHXZ 10018850 f i cachedlocationresolver.obj
 0001:00017860       ??$qForeachPointer@V?$QVector@U?$QPair@IW4MemoryResult@IMemory@@@@@@@@YAPAV?$QVector@U?$QPair@IW4MemoryResult@IMemory@@@@@@ABV0@@Z 10018860 f i cachedlocationresolver.obj
 0001:00017870       ??$qForeachContainer@V?$QVector@U?$QPair@IW4MemoryResult@IMemory@@@@@@@@YAPBV?$QForeachContainer@V?$QVector@U?$QPair@IW4MemoryResult@IMemory@@@@@@@@PBUQForeachContainerBase@@PBV?$QVector@U?$QPair@IW4MemoryResult@IMemory@@@@@@@Z 10018870 f i cachedlocationresolver.obj
 0001:00017880       ?at@?$QList@URegisterPart@CachedLocationResolver@@@@QBEABURegisterPart@CachedLocationResolver@@H@Z 10018880 f i cachedlocationresolver.obj
 0001:00017890       ?payload@?$QMap@HVQStringList@@@@CAHXZ 10018890 f i cachedlocationresolver.obj
 0001:000178a0       ?concrete@?$QMap@HVQStringList@@@@CAPAU?$QMapNode@HVQStringList@@@@PAUNode@QMapData@@@Z 100188a0 f i cachedlocationresolver.obj
 0001:000178b0       ??0iterator@?$QMap@HV?$QList@URegisterPart@CachedLocationResolver@@@@@@QAE@PAUNode@QMapData@@@Z 100188b0 f i cachedlocationresolver.obj
 0001:000178c0       ??0iterator@?$QMap@HVQStringList@@@@QAE@PAUNode@QMapData@@@Z 100188c0 f i cachedlocationresolver.obj
 0001:000178d0       ?begin@?$QVector@U?$QPair@IW4MemoryResult@IMemory@@@@@@QBEPBU?$QPair@IW4MemoryResult@IMemory@@@@XZ 100188d0 f i cachedlocationresolver.obj
 0001:000178e0       ?end@?$QVector@U?$QPair@IW4MemoryResult@IMemory@@@@@@QBEPBU?$QPair@IW4MemoryResult@IMemory@@@@XZ 100188e0 f i cachedlocationresolver.obj
 0001:000178f0       ?node_copy@?$QList@URegisterPart@CachedLocationResolver@@@@AAEXPAUNode@1@00@Z 100188f0 f i cachedlocationresolver.obj
 0001:00017980       ??4RegisterPart@CachedLocationResolver@@QAEAAU01@ABU01@@Z 10018980 f i cachedlocationresolver.obj
 0001:000179b0       ??_GRegisterPart@CachedLocationResolver@@QAEPAXI@Z 100189b0 f i cachedlocationresolver.obj
 0001:000179e0       ??0RegisterPart@CachedLocationResolver@@QAE@XZ 100189e0 f i cachedlocationresolver.obj
 0001:00017a00       ?constBegin@?$QMap@HV?$QList@URegisterPart@CachedLocationResolver@@@@@@QBE?AVconst_iterator@1@XZ 10018a00 f i cachedlocationresolver.obj
 0001:00017a10       ?constEnd@?$QMap@HV?$QList@URegisterPart@CachedLocationResolver@@@@@@QBE?AVconst_iterator@1@XZ 10018a10 f i cachedlocationresolver.obj
 0001:00017a20       ?constBegin@?$QList@URegisterPart@CachedLocationResolver@@@@QBE?AVconst_iterator@1@XZ 10018a20 f i cachedlocationresolver.obj
 0001:00017a40       ?constEnd@?$QList@URegisterPart@CachedLocationResolver@@@@QBE?AVconst_iterator@1@XZ 10018a40 f i cachedlocationresolver.obj
 0001:00017a60       ??Dconst_iterator@?$QList@URegisterPart@CachedLocationResolver@@@@QBEABURegisterPart@CachedLocationResolver@@XZ 10018a60 f i cachedlocationresolver.obj
 0001:00017a70       ?concrete@?$QMap@HV?$QList@URegisterPart@CachedLocationResolver@@@@@@CAPAU?$QMapNode@HV?$QList@URegisterPart@CachedLocationResolver@@@@@@PAUNode@QMapData@@@Z 10018a70 f i cachedlocationresolver.obj
 0001:00017a80       ?at@?$QList@VQString@@@@QBEABVQString@@H@Z 10018a80 f i cachedlocationresolver.obj
 0001:00017a90       ?findNode@?$QMap@HV?$QList@URegisterPart@CachedLocationResolver@@@@@@ABEPAUNode@QMapData@@ABH@Z 10018a90 f i cachedlocationresolver.obj
 0001:00017ae0       ?mutableFindNode@?$QMap@HV?$QList@URegisterPart@CachedLocationResolver@@@@@@ABEPAUNode@QMapData@@QAPAU23@ABH@Z 10018ae0 f i cachedlocationresolver.obj
 0001:00017b40       ?node_construct@?$QList@URegisterPart@CachedLocationResolver@@@@AAEXPAUNode@1@ABURegisterPart@CachedLocationResolver@@@Z 10018b40 f i cachedlocationresolver.obj
 0001:00017bc0       ?mutableFindNode@?$QMap@HVQStringList@@@@ABEPAUNode@QMapData@@QAPAU23@ABH@Z 10018bc0 f i cachedlocationresolver.obj
 0001:00017c20       ?node_destruct@?$QList@URegisterPart@CachedLocationResolver@@@@AAEXPAUNode@1@0@Z 10018c20 f i cachedlocationresolver.obj
 0001:00017c70       ??1?$QForeachContainer@V?$QVector@U?$QPair@IW4MemoryResult@IMemory@@@@@@@@QAE@XZ 10018c70 f i cachedlocationresolver.obj
 0001:00017c90       ?key@const_iterator@?$QMap@HV?$QList@URegisterPart@CachedLocationResolver@@@@@@QBEABHXZ 10018c90 f i cachedlocationresolver.obj
 0001:00017ca0       ?value@const_iterator@?$QMap@HV?$QList@URegisterPart@CachedLocationResolver@@@@@@QBEABV?$QList@URegisterPart@CachedLocationResolver@@@@XZ 10018ca0 f i cachedlocationresolver.obj
 0001:00017cb0       ?contains@?$QMap@HV?$QList@URegisterPart@CachedLocationResolver@@@@@@QBE_NABH@Z 10018cb0 f i cachedlocationresolver.obj
 0001:00017cd0       ?free@?$QList@URegisterPart@CachedLocationResolver@@@@AAEXPAUData@QListData@@@Z 10018cd0 f i cachedlocationresolver.obj
 0001:00017d00       ??1?$QList@URegisterPart@CachedLocationResolver@@@@QAE@XZ 10018d00 f i cachedlocationresolver.obj
 0001:00017d40       ?detach_helper@?$QList@URegisterPart@CachedLocationResolver@@@@AAEXXZ 10018d40 f i cachedlocationresolver.obj
 0001:00017db0       ??_G?$QList@URegisterPart@CachedLocationResolver@@@@QAEPAXI@Z 10018db0 f i cachedlocationresolver.obj
 0001:00017e10       ?detach@?$QList@URegisterPart@CachedLocationResolver@@@@QAEXXZ 10018e10 f i cachedlocationresolver.obj
 0001:00017e20       ??0?$QVector@U?$QPair@IW4MemoryResult@IMemory@@@@@@QAE@ABV0@@Z 10018e20 f i cachedlocationresolver.obj
 0001:00017e60       ??4?$QList@URegisterPart@CachedLocationResolver@@@@QAEAAV0@ABV0@@Z 10018e60 f i cachedlocationresolver.obj
 0001:00017ed0       ??0?$QList@URegisterPart@CachedLocationResolver@@@@QAE@ABV0@@Z 10018ed0 f i cachedlocationresolver.obj
 0001:00017f00       ?value@?$QMap@HV?$QList@URegisterPart@CachedLocationResolver@@@@@@QBE?BV?$QList@URegisterPart@CachedLocationResolver@@@@ABHABV2@@Z 10018f00 f i cachedlocationresolver.obj
 0001:00017f50       ?freeData@?$QMap@HV?$QList@URegisterPart@CachedLocationResolver@@@@@@AAEXPAUQMapData@@@Z 10018f50 f i cachedlocationresolver.obj
 0001:00017fc0       ?append@?$QList@URegisterPart@CachedLocationResolver@@@@QAEXABURegisterPart@CachedLocationResolver@@@Z 10018fc0 f i cachedlocationresolver.obj
 0001:00017ff0       ??_GQStringList@@QAEPAXI@Z 10018ff0 f i cachedlocationresolver.obj
 0001:00018050       ??0?$QForeachContainer@V?$QVector@U?$QPair@IW4MemoryResult@IMemory@@@@@@@@QAE@ABV?$QVector@U?$QPair@IW4MemoryResult@IMemory@@@@@@@Z 10019050 f i cachedlocationresolver.obj
 0001:000180a0       ?node_create@?$QMap@HV?$QList@URegisterPart@CachedLocationResolver@@@@@@AAEPAUNode@QMapData@@PAU3@QAPAU23@ABHABV?$QList@URegisterPart@CachedLocationResolver@@@@@Z 100190a0 f i cachedlocationresolver.obj
 0001:00018130       ?registerParts@CachedLocationResolver@@ABE?AV?$QList@URegisterPart@CachedLocationResolver@@@@H@Z 10019130 f   cachedlocationresolver.obj
 0001:000181f0       ??1?$QMap@HV?$QList@URegisterPart@CachedLocationResolver@@@@@@QAE@XZ 100191f0 f i cachedlocationresolver.obj
 0001:00018210       ??$qForeachContainerNew@V?$QVector@U?$QPair@IW4MemoryResult@IMemory@@@@@@@@YA?AV?$QForeachContainer@V?$QVector@U?$QPair@IW4MemoryResult@IMemory@@@@@@@@ABV?$QVector@U?$QPair@IW4MemoryResult@IMemory@@@@@@@Z 10019210 f i cachedlocationresolver.obj
 0001:00018270       ?freeData@?$QMap@HVQStringList@@@@AAEXPAUQMapData@@@Z 10019270 f i cachedlocationresolver.obj
 0001:000182e0       ?detach_helper@?$QMap@HV?$QList@URegisterPart@CachedLocationResolver@@@@@@AAEXXZ 100192e0 f i cachedlocationresolver.obj
 0001:00018360       ?node_create@?$QMap@HVQStringList@@@@AAEPAUNode@QMapData@@PAU3@QAPAU23@ABHABVQStringList@@@Z 10019360 f i cachedlocationresolver.obj
 0001:000183f0       ??0CachedLocationResolver@@QAE@XZ 100193f0 f   cachedlocationresolver.obj
 0001:00018420       ??1CachedLocationResolver@@UAE@XZ 10019420 f   cachedlocationresolver.obj
 0001:00018490       ?readMemoryAuxBlock@CachedLocationResolver@@UBEXVMemAddr@@PAIHPA_N@Z 10019490 f   cachedlocationresolver.obj
 0001:000185e0       ?readRegisterAux@CachedLocationResolver@@UBE?AVQByteArray@@HHPA_N@Z 100195e0 f   cachedlocationresolver.obj
 0001:00018800       ?writeRegisterAux@CachedLocationResolver@@UBE_NHVQByteArray@@H@Z 10019800 f   cachedlocationresolver.obj
 0001:00018a10       ??1?$QMap@HVQStringList@@@@QAE@XZ 10019a10 f i cachedlocationresolver.obj
 0001:00018a30       ?detach_helper@?$QMap@HVQStringList@@@@AAEXXZ 10019a30 f i cachedlocationresolver.obj
 0001:00018ab0       ?detach@?$QMap@HV?$QList@URegisterPart@CachedLocationResolver@@@@@@QAEXXZ 10019ab0 f i cachedlocationresolver.obj
 0001:00018ad0       ??4?$QMap@HV?$QList@URegisterPart@CachedLocationResolver@@@@@@QAEAAV0@ABV0@@Z 10019ad0 f i cachedlocationresolver.obj
 0001:00018b20       ??_ECachedLocationResolver@@UAEPAXI@Z 10019b20 f i cachedlocationresolver.obj
 0001:00018b20       ??_GCachedLocationResolver@@UAEPAXI@Z 10019b20 f i cachedlocationresolver.obj
 0001:00018b40       ?detach@?$QMap@HVQStringList@@@@QAEXXZ 10019b40 f i cachedlocationresolver.obj
 0001:00018b60       ?clear@?$QMap@HV?$QList@URegisterPart@CachedLocationResolver@@@@@@QAEXXZ 10019b60 f i cachedlocationresolver.obj
 0001:00018c10       ??A?$QMap@HV?$QList@URegisterPart@CachedLocationResolver@@@@@@QAEAAV?$QList@URegisterPart@CachedLocationResolver@@@@ABH@Z 10019c10 f i cachedlocationresolver.obj
 0001:00018cf0       ?insert@?$QMap@HV?$QList@URegisterPart@CachedLocationResolver@@@@@@QAE?AViterator@1@ABHABV?$QList@URegisterPart@CachedLocationResolver@@@@@Z 10019cf0 f i cachedlocationresolver.obj
 0001:00018d60       ?insert@?$QMap@HVQStringList@@@@QAE?AViterator@1@ABHABVQStringList@@@Z 10019d60 f i cachedlocationresolver.obj
 0001:00018dd0       ?addRegisterPart@CachedLocationResolver@@IAEXHU?$QPair@VQString@@H@@H@Z 10019dd0 f   cachedlocationresolver.obj
 0001:00018f40       ?clearRegisterParts@CachedLocationResolver@@IAEXXZ 10019f40 f   cachedlocationresolver.obj
 0001:00018f50       ??0?$QMap@HVQStringList@@@@QAE@ABV0@@Z 10019f50 f i cachedlocationresolver.obj
 0001:00018f90       ?registerMap@CachedLocationResolver@@UBE?AV?$QMap@HVQStringList@@@@XZ 10019f90 f   cachedlocationresolver.obj
 0001:000192c0       ?join@QStringList@@QBE?AVQString@@ABV2@@Z 1001a2c0 f i callstackwidget.obj
 0001:000192f0       ?setDisplayStackFrame@CallStackWidget@@QAEXH@Z 1001a2f0 f   callstackwidget.obj
 0001:00019310       ?emitCallStackFrameChanged@CallStackWidget@@AAEXH@Z 1001a310 f   callstackwidget.obj
 0001:00019330       ??0CallStackItem@@QAE@ABU0@@Z 1001a330 f i callstackwidget.obj
 0001:000193c0       ??1CallStackItem@@QAE@XZ   1001a3c0 f i callstackwidget.obj
 0001:00019450       ?setActiveIcon@CallStackWidget@@ABEXPAVQListWidgetItem@@_N@Z 1001a450 f   callstackwidget.obj
 0001:00019500       ?setOffsetUnit@CallStackWidget@@QAEXVQString@@@Z 1001a500 f   callstackwidget.obj
 0001:00019560       ??0?$QFlags@W4WindowType@Qt@@@@QAE@PAPAX@Z 1001a560 f i callstackwidget.obj
 0001:00019570       ??0?$QFlags@W4AlignmentFlag@Qt@@@@QAE@PAPAX@Z 1001a570 f i callstackwidget.obj
 0001:00019580       ??0?$QFlags@W4ImageConversionFlag@Qt@@@@QAE@W4ImageConversionFlag@Qt@@@Z 1001a580 f i callstackwidget.obj
 0001:00019590       ??0?$QList@UCallStackItem@@@@QAE@XZ 1001a590 f i callstackwidget.obj
 0001:000195b0       ?size@?$QList@UCallStackItem@@@@QBEHXZ 1001a5b0 f i callstackwidget.obj
 0001:000195c0       ?isEmpty@?$QList@UCallStackItem@@@@QBE_NXZ 1001a5c0 f i callstackwidget.obj
 0001:000195d0       ?count@?$QList@UCallStackItem@@@@QBEHXZ 1001a5d0 f i callstackwidget.obj
 0001:000195e0       ?t@Node@?$QList@UCallStackItem@@@@QAEAAUCallStackItem@@XZ 1001a5e0 f i callstackwidget.obj
 0001:000195f0       ?node_copy@?$QList@UCallStackItem@@@@AAEXPAUNode@1@00@Z 1001a5f0 f i callstackwidget.obj
 0001:00019670       ??_GCallStackItem@@QAEPAXI@Z 1001a670 f i callstackwidget.obj
 0001:00019690       ?resetStackFrame@CallStackWidget@@QAEXXZ 1001a690 f   callstackwidget.obj
 0001:000196e0       ?itemSelected@CallStackWidget@@AAEXPAVQListWidgetItem@@@Z 1001a6e0 f   callstackwidget.obj
 0001:00019740       ?at@?$QList@UCallStackItem@@@@QBEABUCallStackItem@@H@Z 1001a740 f i callstackwidget.obj
 0001:00019750       ?node_destruct@?$QList@UCallStackItem@@@@AAEXPAUNode@1@0@Z 1001a750 f i callstackwidget.obj
 0001:00019790       ?currentItemChanged@CallStackWidget@@AAEXPAVQListWidgetItem@@0@Z 1001a790 f   callstackwidget.obj
 0001:00019860       ?itemActivated@CallStackWidget@@AAEXPAVQListWidgetItem@@@Z 1001a860 f   callstackwidget.obj
 0001:00019880       ?displayStackItemList@CallStackWidget@@ABEXXZ 1001a880 f   callstackwidget.obj
 0001:0001a1e0       ??_EQListWidgetItem@@UAEPAXI@Z 1001b1e0 f i callstackwidget.obj
 0001:0001a1e0       ??_GQListWidgetItem@@UAEPAXI@Z 1001b1e0 f i callstackwidget.obj
 0001:0001a200       ?free@?$QList@UCallStackItem@@@@AAEXPAUData@QListData@@@Z 1001b200 f i callstackwidget.obj
 0001:0001a230       ??1?$QList@UCallStackItem@@@@QAE@XZ 1001b230 f i callstackwidget.obj
 0001:0001a270       ?detach_helper@?$QList@UCallStackItem@@@@AAEXXZ 1001b270 f i callstackwidget.obj
 0001:0001a2e0       ??0CallStackWidget@@QAE@PAVQWidget@@PBDVQString@@@Z 1001b2e0 f   callstackwidget.obj
 0001:0001a620       ??_GQVBoxLayout@@UAEPAXI@Z 1001b620 f i callstackwidget.obj
 0001:0001a620       ??_EQVBoxLayout@@UAEPAXI@Z 1001b620 f i callstackwidget.obj
 0001:0001a640       ??_GQListWidget@@UAEPAXI@Z 1001b640 f i callstackwidget.obj
 0001:0001a640       ??_EQListWidget@@UAEPAXI@Z 1001b640 f i callstackwidget.obj
 0001:0001a660       ??_EQVBoxLayout@@W7AEPAXI@Z 1001b660 f i callstackwidget.obj
 0001:0001a670       ??_EQListWidget@@W7AEPAXI@Z 1001b670 f i callstackwidget.obj
 0001:0001a680       ??_ECallStackWidget@@W7AEPAXI@Z 1001b680 f i callstackwidget.obj
 0001:0001a690       ??1CallStackWidget@@UAE@XZ 1001b690 f   callstackwidget.obj
 0001:0001a770       ??4?$QList@UCallStackItem@@@@QAEAAV0@ABV0@@Z 1001b770 f i callstackwidget.obj
 0001:0001a7e0       ?clear@?$QList@UCallStackItem@@@@QAEXXZ 1001b7e0 f i callstackwidget.obj
 0001:0001a880       ??_GCallStackWidget@@UAEPAXI@Z 1001b880 f i callstackwidget.obj
 0001:0001a880       ??_ECallStackWidget@@UAEPAXI@Z 1001b880 f i callstackwidget.obj
 0001:0001a8a0       ?clear@CallStackWidget@@QAEXXZ 1001b8a0 f   callstackwidget.obj
 0001:0001a8c0       ?setSource@CallStackWidget@@QAEXPAVStackFrameLocationResolver@@@Z 1001b8c0 f   callstackwidget.obj
 0001:0001a8f0       ?update@CallStackWidget@@QAEXXZ 1001b8f0 f   callstackwidget.obj
 0001:0001a9d0       ?showEvent@CallStackWidget@@UAEXPAVQShowEvent@@@Z 1001b9d0 f   callstackwidget.obj
 0001:0001aad0       ?uiItemText@CallStackWidget@@AAE?AVQStringList@@XZ 1001bad0 f   callstackwidget.obj
 0001:0001aba0       ?eventFilter@CallStackWidget@@UAE_NPAVQObject@@PAVQEvent@@@Z 1001bba0 f   callstackwidget.obj
 0001:0001acf0       ?contextMenuEvent@CallStackWidget@@MAEXPAVQContextMenuEvent@@@Z 1001bcf0 f   callstackwidget.obj
 0001:0001aef0       ??H@YA?BVQString@@DABV0@@Z 1001bef0 f i canonicalfile.obj
 0001:0001aff0       ??0CanonicalInfo@CanonicalFile@@QAE@XZ 1001bff0 f i canonicalfile.obj
 0001:0001b020       ??1CanonicalFile@@UAE@XZ   1001c020 f   canonicalfile.obj
 0001:0001b030       ?canonicalString@CanonicalFile@@QBE?AVQString@@XZ 1001c030 f   canonicalfile.obj
 0001:0001b060       ?userString@CanonicalFile@@QBE?AVQString@@XZ 1001c060 f   canonicalfile.obj
 0001:0001b090       ?exists@CanonicalFile@@QBE_NXZ 1001c090 f   canonicalfile.obj
 0001:0001b120       ??8CanonicalFile@@QAE_NABV0@@Z 1001c120 f   canonicalfile.obj
 0001:0001b1d0       ??9CanonicalFile@@QAE_NABV0@@Z 1001c1d0 f   canonicalfile.obj
 0001:0001b280       ?compare@CanonicalFile@@SA_NABV1@0@Z 1001c280 f   canonicalfile.obj
 0001:0001b330       ??4CanonicalInfo@CanonicalFile@@QAEAAU01@ABU01@@Z 1001c330 f i canonicalfile.obj
 0001:0001b360       ?match@CanonicalFile@@ABE_NABVQString@@0@Z 1001c360 f   canonicalfile.obj
 0001:0001b380       ?setNoLongPathName@CanonicalFile@@SAX_N@Z 1001c380 f   canonicalfile.obj
 0001:0001b390       ??0?$QHash@VQString@@UCanonicalInfo@CanonicalFile@@@@QAE@XZ 1001c390 f i canonicalfile.obj
 0001:0001b3b0       ??0const_iterator@?$QHash@VQString@@UCanonicalInfo@CanonicalFile@@@@QAE@ABViterator@1@@Z 1001c3b0 f i canonicalfile.obj
 0001:0001b3c0       ??9const_iterator@?$QHash@VQString@@UCanonicalInfo@CanonicalFile@@@@QBE_NABV01@@Z 1001c3c0 f i canonicalfile.obj
 0001:0001b3e0       ??0?$QHash@VQString@@V1@@@QAE@XZ 1001c3e0 f i canonicalfile.obj
 0001:0001b400       ??0const_iterator@?$QHash@VQString@@V1@@@QAE@ABViterator@1@@Z 1001c400 f i canonicalfile.obj
 0001:0001b410       ??9const_iterator@?$QHash@VQString@@V1@@@QBE_NABV01@@Z 1001c410 f i canonicalfile.obj
 0001:0001b430       ?concrete@?$QHash@VQString@@UCanonicalInfo@CanonicalFile@@@@CAPAU?$QHashNode@VQString@@UCanonicalInfo@CanonicalFile@@@@PAUNode@QHashData@@@Z 1001c430 f i canonicalfile.obj
 0001:0001b440       ??0iterator@?$QHash@VQString@@UCanonicalInfo@CanonicalFile@@@@QAE@PAX@Z 1001c440 f i canonicalfile.obj
 0001:0001b450       ?concrete@?$QHash@VQString@@V1@@@CAPAU?$QHashNode@VQString@@V1@@@PAUNode@QHashData@@@Z 1001c450 f i canonicalfile.obj
 0001:0001b460       ??0iterator@?$QHash@VQString@@V1@@@QAE@PAX@Z 1001c460 f i canonicalfile.obj
 0001:0001b470       ??1?$QHashNode@VQString@@UCanonicalInfo@CanonicalFile@@@@QAE@XZ 1001c470 f i canonicalfile.obj
 0001:0001b4d0       ??1?$QHashNode@VQString@@V1@@@QAE@XZ 1001c4d0 f i canonicalfile.obj
 0001:0001b540       ??0?$QHashNode@VQString@@UCanonicalInfo@CanonicalFile@@@@QAE@ABVQString@@ABUCanonicalInfo@CanonicalFile@@@Z 1001c540 f i canonicalfile.obj
 0001:0001b5a0       ?same_key@?$QHashNode@VQString@@UCanonicalInfo@CanonicalFile@@@@QAE_NIABVQString@@@Z 1001c5a0 f i canonicalfile.obj
 0001:0001b5d0       ??0?$QHashNode@VQString@@V1@@@QAE@ABVQString@@0@Z 1001c5d0 f i canonicalfile.obj
 0001:0001b630       ?same_key@?$QHashNode@VQString@@V1@@@QAE_NIABVQString@@@Z 1001c630 f i canonicalfile.obj
 0001:0001b660       ??0?$QHashDummyNode@VQString@@UCanonicalInfo@CanonicalFile@@@@QAE@ABVQString@@@Z 1001c660 f i canonicalfile.obj
 0001:0001b680       ??0?$QHashDummyNode@VQString@@V1@@@QAE@ABVQString@@@Z 1001c680 f i canonicalfile.obj
 0001:0001b6a0       ??0CanonicalFile@@QAE@XZ   1001c6a0 f   canonicalfile.obj
 0001:0001b730       ?value@const_iterator@?$QHash@VQString@@UCanonicalInfo@CanonicalFile@@@@QBEABUCanonicalInfo@CanonicalFile@@XZ 1001c730 f i canonicalfile.obj
 0001:0001b740       ?value@const_iterator@?$QHash@VQString@@V1@@@QBEABVQString@@XZ 1001c740 f i canonicalfile.obj
 0001:0001b750       ?findNode@?$QHash@VQString@@UCanonicalInfo@CanonicalFile@@@@ABEPAPAU?$QHashNode@VQString@@UCanonicalInfo@CanonicalFile@@@@ABVQString@@PAI@Z 1001c750 f i canonicalfile.obj
 0001:0001b7c0       ?createNode@?$QHash@VQString@@UCanonicalInfo@CanonicalFile@@@@AAEPAU?$QHashNode@VQString@@UCanonicalInfo@CanonicalFile@@@@IABVQString@@ABUCanonicalInfo@CanonicalFile@@PAPAU2@@Z 1001c7c0 f i canonicalfile.obj
 0001:0001b840       ?duplicateNode@?$QHash@VQString@@UCanonicalInfo@CanonicalFile@@@@CAXPAUNode@QHashData@@PAX@Z 1001c840 f i canonicalfile.obj
 0001:0001b890       ?findNode@?$QHash@VQString@@V1@@@ABEPAPAU?$QHashNode@VQString@@V1@@@ABVQString@@PAI@Z 1001c890 f i canonicalfile.obj
 0001:0001b900       ?createNode@?$QHash@VQString@@V1@@@AAEPAU?$QHashNode@VQString@@V1@@@IABVQString@@0PAPAU2@@Z 1001c900 f i canonicalfile.obj
 0001:0001b980       ?duplicateNode@?$QHash@VQString@@V1@@@CAXPAUNode@QHashData@@PAX@Z 1001c980 f i canonicalfile.obj
 0001:0001b9d0       ??_G?$QHashNode@VQString@@UCanonicalInfo@CanonicalFile@@@@QAEPAXI@Z 1001c9d0 f i canonicalfile.obj
 0001:0001b9f0       ??_G?$QHashNode@VQString@@V1@@@QAEPAXI@Z 1001c9f0 f i canonicalfile.obj
 0001:0001ba10       ?deleteNode@?$QHash@VQString@@UCanonicalInfo@CanonicalFile@@@@AAEXPAU?$QHashNode@VQString@@UCanonicalInfo@CanonicalFile@@@@@Z 1001ca10 f i canonicalfile.obj
 0001:0001ba30       ?deleteNode@?$QHash@VQString@@V1@@@AAEXPAU?$QHashNode@VQString@@V1@@@@Z 1001ca30 f i canonicalfile.obj
 0001:0001ba50       ?freeData@?$QHash@VQString@@UCanonicalInfo@CanonicalFile@@@@AAEXPAUQHashData@@@Z 1001ca50 f i canonicalfile.obj
 0001:0001bb60       ?freeData@?$QHash@VQString@@V1@@@AAEXPAUQHashData@@@Z 1001cb60 f i canonicalfile.obj
 0001:0001bc30       ??1?$QHash@VQString@@UCanonicalInfo@CanonicalFile@@@@QAE@XZ 1001cc30 f i canonicalfile.obj
 0001:0001bc50       ??1?$QHash@VQString@@V1@@@QAE@XZ 1001cc50 f i canonicalfile.obj
 0001:0001bc70       ?detach_helper@?$QHash@VQString@@UCanonicalInfo@CanonicalFile@@@@AAEXXZ 1001cc70 f i canonicalfile.obj
 0001:0001bcb0       ?detach_helper@?$QHash@VQString@@V1@@@AAEXXZ 1001ccb0 f i canonicalfile.obj
 0001:0001bcf0       ?detach@?$QHash@VQString@@UCanonicalInfo@CanonicalFile@@@@QAEXXZ 1001ccf0 f i canonicalfile.obj
 0001:0001bd30       ?detach@?$QHash@VQString@@V1@@@QAEXXZ 1001cd30 f i canonicalfile.obj
 0001:0001bd70       ?find@?$QHash@VQString@@UCanonicalInfo@CanonicalFile@@@@QAE?AViterator@1@ABVQString@@@Z 1001cd70 f i canonicalfile.obj
 0001:0001bdd0       ?insert@?$QHash@VQString@@UCanonicalInfo@CanonicalFile@@@@QAE?AViterator@1@ABVQString@@ABUCanonicalInfo@CanonicalFile@@@Z 1001cdd0 f i canonicalfile.obj
 0001:0001bea0       ?find@?$QHash@VQString@@V1@@@QAE?AViterator@1@ABVQString@@@Z 1001cea0 f i canonicalfile.obj
 0001:0001bf00       ?insert@?$QHash@VQString@@V1@@@QAE?AViterator@1@ABVQString@@0@Z 1001cf00 f i canonicalfile.obj
 0001:0001bfc0       ?end@?$QHash@VQString@@UCanonicalInfo@CanonicalFile@@@@QAE?AViterator@1@XZ 1001cfc0 f i canonicalfile.obj
 0001:0001c010       ?end@?$QHash@VQString@@V1@@@QAE?AViterator@1@XZ 1001d010 f i canonicalfile.obj
 0001:0001c060       ?longFileName@CanonicalFile@@CA?AVQString@@ABV2@@Z 1001d060 f   canonicalfile.obj
 0001:0001c3e0       ??_GQLibrary@@UAEPAXI@Z    1001d3e0 f i canonicalfile.obj
 0001:0001c3e0       ??_EQLibrary@@UAEPAXI@Z    1001d3e0 f i canonicalfile.obj
 0001:0001c400       ?canonicaliseAllFiles@CanonicalFile@@CA?AUCanonicalInfo@1@ABVQString@@_N@Z 1001d400 f   canonicalfile.obj
 0001:0001cc10       ?canonicalise@CanonicalFile@@AAEXABVQString@@_N@Z 1001dc10 f   canonicalfile.obj
 0001:0001cf10       ??0CanonicalFile@@QAE@ABVQString@@@Z 1001df10 f   canonicalfile.obj
 0001:0001cfc0       ??0CanonicalFile@@QAE@ABVQFileInfo@@@Z 1001dfc0 f   canonicalfile.obj
 0001:0001d070       ??0CanonicalFile@@QAE@ABVQDir@@ABVQString@@@Z 1001e070 f   canonicalfile.obj
 0001:0001d220       ?relativePath@CanonicalFile@@ABE?AVQString@@ABV2@_N@Z 1001e220 f   canonicalfile.obj
 0001:0001d750       ?canonicalRelativePath@CanonicalFile@@QBE?AVQString@@ABV2@@Z 1001e750 f   canonicalfile.obj
 0001:0001d780       ?userRelativePath@CanonicalFile@@QBE?AVQString@@ABV2@@Z 1001e780 f   canonicalfile.obj
 0001:0001d7b0       ?peek@Chomper@@QBEHH@Z     1001e7b0 f i chomper.obj
 0001:0001d7e0       ?step@Chomper@@QAEAAV1@XZ  1001e7e0 f i chomper.obj
 0001:0001d7f0       ?isDecimalDigit@Chomper@@QAE_NH@Z 1001e7f0 f i chomper.obj
 0001:0001d810       ?isOctalDigit@Chomper@@QAE_NH@Z 1001e810 f i chomper.obj
 0001:0001d830       ??0Chomper@@QAE@ABVQString@@@Z 1001e830 f   chomper.obj
 0001:0001d8f0       ??1Chomper@@UAE@XZ         1001e8f0 f   chomper.obj
 0001:0001d910       ?rest@Chomper@@QBE?AVQString@@XZ 1001e910 f   chomper.obj
 0001:0001d940       ?skipToDecimalDigit@Chomper@@QAEAAV1@XZ 1001e940 f   chomper.obj
 0001:0001d980       ?require@Chomper@@QAEAAV1@D@Z 1001e980 f   chomper.obj
 0001:0001da80       ??0SymbolException@@QAE@ABV0@@Z 1001ea80 f i chomper.obj
 0001:0001daa0       ?getInt@Chomper@@QAEHXZ    1001eaa0 f   chomper.obj
 0001:0001db10       ?getInt@Chomper@@QAEHD@Z   1001eb10 f   chomper.obj
 0001:0001db30       ?getOctalInt@Chomper@@QAEHXZ 1001eb30 f   chomper.obj
 0001:0001db70       ?getOctalInt@Chomper@@QAEHD@Z 1001eb70 f   chomper.obj
 0001:0001db90       ?peekInt@Chomper@@QAEHXZ   1001eb90 f   chomper.obj
 0001:0001dbb0       ?getOctalIntSize@Chomper@@QAEHXZ 1001ebb0 f   chomper.obj
 0001:0001dc10       ?getOctalIntSize@Chomper@@QAEHD@Z 1001ec10 f   chomper.obj
 0001:0001dc30       ?until@Chomper@@QAE?AVQString@@D@Z 1001ec30 f   chomper.obj
 0001:0001dd80       ?skipToTypeNumber@Chomper@@QAEAAV1@XZ 1001ed80 f   chomper.obj
 0001:0001ddc0       ?getTypeNumber@Chomper@@QAEHXZ 1001edc0 f   chomper.obj
 0001:0001de20       ?getTypeNumber@Chomper@@QAEHD@Z 1001ee20 f   chomper.obj
 0001:0001de40       ?peekTypeNumber@Chomper@@QAEHXZ 1001ee40 f   chomper.obj
 0001:0001de60       ??_GChomper@@UAEPAXI@Z     1001ee60 f i chomper.obj
 0001:0001de60       ??_EChomper@@UAEPAXI@Z     1001ee60 f i chomper.obj
 0001:0001de90       ??1BadSyntaxException@@QAE@XZ 1001ee90 f i chomper.obj
 0001:0001deb0       ??0BadSyntaxException@@QAE@ABV0@@Z 1001eeb0 f i chomper.obj
 0001:0001ded0       ?tr@CmdLineBuildEnvironmentBase@@SA?AVQString@@PBD0@Z 1001eed0 f i cmdlinebuildenvironmentbase.obj
 0001:0001df00       ??0FeedbackEvent@@QAE@ABVQString@@W4FeedbackType@CmdLineBuildEnvironmentBase@@@Z 1001ef00 f i cmdlinebuildenvironmentbase.obj
 0001:0001df80       ?feedbackType@FeedbackEvent@@QBE?AW4FeedbackType@CmdLineBuildEnvironmentBase@@XZ 1001ef80 f i cmdlinebuildenvironmentbase.obj
 0001:0001df90       ??0FinishEvent@@QAE@_N@Z   1001ef90 f i cmdlinebuildenvironmentbase.obj
 0001:0001dfc0       ?buildOk@FinishEvent@@QBE_NXZ 1001efc0 f i cmdlinebuildenvironmentbase.obj
 0001:0001dfd0       ??1FinishEvent@@UAE@XZ     1001efd0 f i cmdlinebuildenvironmentbase.obj
 0001:0001dfe0       ??0IProgrammer@@QAE@XZ     1001efe0 f i cmdlinebuildenvironmentbase.obj
 0001:0001dff0       ??0IDocTypes@@QAE@XZ       1001eff0 f i cmdlinebuildenvironmentbase.obj
 0001:0001e000       ?queryInterface@CmdLineBuildEnvironmentBase@@UAEKABUQUuid@@PAPAUQUnknownInterface@@@Z 1001f000 f   cmdlinebuildenvironmentbase.obj
 0001:0001e2f0       ?type@CmdLineBuildEnvironmentBase@@UBE?AW4Type@IExtension@@XZ 1001f2f0 f   cmdlinebuildenvironmentbase.obj
 0001:0001e300       ?name@CmdLineBuildEnvironmentBase@@UBE?AVQString@@XZ 1001f300 f   cmdlinebuildenvironmentbase.obj
 0001:0001e330       ?init@CmdLineBuildEnvironmentBase@@UAE_NPAUIBuildEvents@@ABVQString@@@Z 1001f330 f   cmdlinebuildenvironmentbase.obj
 0001:0001e3a0       ?setProject@CmdLineBuildEnvironmentBase@@UAEXPAUIProject@@@Z 1001f3a0 f   cmdlinebuildenvironmentbase.obj
 0001:0001e3d0       ?stop@CmdLineBuildEnvironmentBase@@UAEXXZ 1001f3d0 f   cmdlinebuildenvironmentbase.obj
 0001:0001e4d0       ??1?$QPair@VQString@@V1@@@QAE@XZ 1001f4d0 f i cmdlinebuildenvironmentbase.obj
 0001:0001e540       ?event@CmdLineBuildEnvironmentBase@@UAE_NPAVQEvent@@@Z 1001f540 f   cmdlinebuildenvironmentbase.obj
 0001:0001e6a0       ?continueRunning@CmdLineBuildEnvironmentBase@@AAE_NXZ 1001f6a0 f   cmdlinebuildenvironmentbase.obj
 0001:0001e720       ?waitForProcess@CmdLineBuildEnvironmentBase@@AAE?AVQString@@W4FeedbackType@1@@Z 1001f720 f   cmdlinebuildenvironmentbase.obj
 0001:0001e970       ?outputMode@CmdLineBuildEnvironmentBase@@AAEXH@Z 1001f970 f   cmdlinebuildenvironmentbase.obj
 0001:0001e9f0       ?propertyDefinitions@CmdLineBuildEnvironmentBase@@UAE?AVQString@@XZ 1001f9f0 f   cmdlinebuildenvironmentbase.obj
 0001:0001ea20       ?fileOrderSignificant@CmdLineBuildEnvironmentBase@@UAE_NXZ 1001fa20 f   cmdlinebuildenvironmentbase.obj
 0001:0001ea30       ?hasMatchLookupInfo@CmdLineBuildEnvironmentBase@@UAE_NABVQString@@AAV2@AAH@Z 1001fa30 f   cmdlinebuildenvironmentbase.obj
 0001:0001ea40       ?documentSupported@CmdLineBuildEnvironmentBase@@UAE_NW4BuiltInDocument@IDocTypes@@@Z 1001fa40 f   cmdlinebuildenvironmentbase.obj
 0001:0001ea50       ?documentOptions@CmdLineBuildEnvironmentBase@@UAEHW4BuiltInDocument@IDocTypes@@@Z 1001fa50 f   cmdlinebuildenvironmentbase.obj
 0001:0001ea60       ?waitForThreadFinished@CmdLineBuildEnvironmentBase@@AAE_NH@Z 1001fa60 f   cmdlinebuildenvironmentbase.obj
 0001:0001eb10       ??Econst_iterator@?$QList@PAUIProjectFile@@@@QAEAAV01@XZ 1001fb10 f i cmdlinebuildenvironmentbase.obj
 0001:0001eb20       ??0?$QList@U?$QPair@VQString@@V1@@@@@QAE@XZ 1001fb20 f i cmdlinebuildenvironmentbase.obj
 0001:0001eb40       ??0?$QPair@VQString@@V1@@@QAE@ABVQString@@0@Z 1001fb40 f i cmdlinebuildenvironmentbase.obj
 0001:0001eba0       ??9const_iterator@?$QList@PAUIProjectFile@@@@QBE_NABV01@@Z 1001fba0 f i cmdlinebuildenvironmentbase.obj
 0001:0001ebc0       ??$qMax@H@@YAABHABH0@Z     1001fbc0 f i cmdlinebuildenvironmentbase.obj
 0001:0001ebe0       ??$qForeachPointer@V?$QList@PAUIProjectFile@@@@@@YAPAV?$QList@PAUIProjectFile@@@@ABV0@@Z 1001fbe0 f i cmdlinebuildenvironmentbase.obj
 0001:0001ebf0       ??$qForeachContainer@V?$QList@PAUIProjectFile@@@@@@YAPBV?$QForeachContainer@V?$QList@PAUIProjectFile@@@@@@PBUQForeachContainerBase@@PBV?$QList@PAUIProjectFile@@@@@Z 1001fbf0 f i cmdlinebuildenvironmentbase.obj
 0001:0001ec00       ??0?$QPair@VQString@@V1@@@QAE@ABU0@@Z 1001fc00 f i cmdlinebuildenvironmentbase.obj
 0001:0001ec60       ??0const_iterator@?$QList@PAUIProjectFile@@@@QAE@PAUNode@1@@Z 1001fc60 f i cmdlinebuildenvironmentbase.obj
 0001:0001ec70       ?node_copy@?$QList@U?$QPair@VQString@@V1@@@@@AAEXPAUNode@1@00@Z 1001fc70 f i cmdlinebuildenvironmentbase.obj
 0001:0001ed00       ??4?$QPair@VQString@@V1@@@QAEAAU0@ABU0@@Z 1001fd00 f i cmdlinebuildenvironmentbase.obj
 0001:0001ed30       ??_G?$QPair@VQString@@V1@@@QAEPAXI@Z 1001fd30 f i cmdlinebuildenvironmentbase.obj
 0001:0001ed50       ??_EFinishEvent@@UAEPAXI@Z 1001fd50 f i cmdlinebuildenvironmentbase.obj
 0001:0001ed50       ??_GFinishEvent@@UAEPAXI@Z 1001fd50 f i cmdlinebuildenvironmentbase.obj
 0001:0001ed70       ?banner@?A0x52e0908e@@YA?AVQString@@ABV2@VQChar@@@Z 1001fd70 f   cmdlinebuildenvironmentbase.obj
 0001:0001f020       ?safeStart@CmdLineBuildEnvironmentBase@@IAEXXZ 10020020 f   cmdlinebuildenvironmentbase.obj
 0001:0001f040       ??Dconst_iterator@?$QList@PAUIProjectFile@@@@QBEABQAUIProjectFile@@XZ 10020040 f i cmdlinebuildenvironmentbase.obj
 0001:0001f050       ?condition@?$QForeachContainer@V?$QList@PAUIProjectFile@@@@@@QBE_NXZ 10020050 f i cmdlinebuildenvironmentbase.obj
 0001:0001f070       ?begin@?$QList@PAUIProjectFile@@@@QBE?AVconst_iterator@1@XZ 10020070 f i cmdlinebuildenvironmentbase.obj
 0001:0001f090       ?end@?$QList@PAUIProjectFile@@@@QBE?AVconst_iterator@1@XZ 10020090 f i cmdlinebuildenvironmentbase.obj
 0001:0001f0b0       ?node_construct@?$QList@U?$QPair@VQString@@V1@@@@@AAEXPAUNode@1@ABU?$QPair@VQString@@V1@@@@Z 100200b0 f i cmdlinebuildenvironmentbase.obj
 0001:0001f120       ?node_destruct@?$QList@U?$QPair@VQString@@V1@@@@@AAEXPAUNode@1@0@Z 10020120 f i cmdlinebuildenvironmentbase.obj
 0001:0001f160       ?free@?$QList@U?$QPair@VQString@@V1@@@@@AAEXPAUData@QListData@@@Z 10020160 f i cmdlinebuildenvironmentbase.obj
 0001:0001f190       ??1?$QForeachContainer@V?$QList@PAUIProjectFile@@@@@@QAE@XZ 10020190 f i cmdlinebuildenvironmentbase.obj
 0001:0001f1b0       ??1?$QList@U?$QPair@VQString@@V1@@@@@QAE@XZ 100201b0 f i cmdlinebuildenvironmentbase.obj
 0001:0001f1f0       ?detach_helper@?$QList@U?$QPair@VQString@@V1@@@@@AAEXXZ 100201f0 f i cmdlinebuildenvironmentbase.obj
 0001:0001f260       ??0?$QForeachContainer@V?$QList@PAUIProjectFile@@@@@@QAE@ABV?$QList@PAUIProjectFile@@@@@Z 10020260 f i cmdlinebuildenvironmentbase.obj
 0001:0001f2d0       ?detach@?$QList@U?$QPair@VQString@@V1@@@@@QAEXXZ 100202d0 f i cmdlinebuildenvironmentbase.obj
 0001:0001f2e0       ??0BuildCommand@CmdLineBuildEnvironmentBase@@QAE@XZ 100202e0 f i cmdlinebuildenvironmentbase.obj
 0001:0001f300       ??1BuildCommand@CmdLineBuildEnvironmentBase@@QAE@XZ 10020300 f i cmdlinebuildenvironmentbase.obj
 0001:0001f340       ??1CmdLineBuildEnvironmentBase@@UAE@XZ 10020340 f   cmdlinebuildenvironmentbase.obj
 0001:0001f4c0       ?addRef@CmdLineBuildEnvironmentBase@@UAEKXZ 100204c0 f i cmdlinebuildenvironmentbase.obj
 0001:0001f4d0       ?release@CmdLineBuildEnvironmentBase@@UAEKXZ 100204d0 f i cmdlinebuildenvironmentbase.obj
 0001:0001f4f0       ?release@CmdLineBuildEnvironmentBase@@WM@AEKXZ 100204f0 f i cmdlinebuildenvironmentbase.obj
 0001:0001f500       ?release@CmdLineBuildEnvironmentBase@@WBA@AEKXZ 10020500 f i cmdlinebuildenvironmentbase.obj
 0001:0001f510       ?queryInterface@CmdLineBuildEnvironmentBase@@W3AEKABUQUuid@@PAPAUQUnknownInterface@@@Z 10020510 f i cmdlinebuildenvironmentbase.obj
 0001:0001f520       ?queryInterface@CmdLineBuildEnvironmentBase@@W7AEKABUQUuid@@PAPAUQUnknownInterface@@@Z 10020520 f i cmdlinebuildenvironmentbase.obj
 0001:0001f530       ?addRef@CmdLineBuildEnvironmentBase@@W3AEKXZ 10020530 f i cmdlinebuildenvironmentbase.obj
 0001:0001f540       ?queryInterface@CmdLineBuildEnvironmentBase@@WM@AEKABUQUuid@@PAPAUQUnknownInterface@@@Z 10020540 f i cmdlinebuildenvironmentbase.obj
 0001:0001f550       ?addRef@CmdLineBuildEnvironmentBase@@W7AEKXZ 10020550 f i cmdlinebuildenvironmentbase.obj
 0001:0001f560       ?queryInterface@CmdLineBuildEnvironmentBase@@WBA@AEKABUQUuid@@PAPAUQUnknownInterface@@@Z 10020560 f i cmdlinebuildenvironmentbase.obj
 0001:0001f570       ?release@CmdLineBuildEnvironmentBase@@W3AEKXZ 10020570 f i cmdlinebuildenvironmentbase.obj
 0001:0001f580       ?addRef@CmdLineBuildEnvironmentBase@@WM@AEKXZ 10020580 f i cmdlinebuildenvironmentbase.obj
 0001:0001f590       ?release@CmdLineBuildEnvironmentBase@@W7AEKXZ 10020590 f i cmdlinebuildenvironmentbase.obj
 0001:0001f5a0       ?addRef@CmdLineBuildEnvironmentBase@@WBA@AEKXZ 100205a0 f i cmdlinebuildenvironmentbase.obj
 0001:0001f5b0       ??0?$QList@U?$QPair@VQString@@V1@@@@@QAE@ABV0@@Z 100205b0 f i cmdlinebuildenvironmentbase.obj
 0001:0001f5e0       ?clear@?$QList@VQString@@@@QAEXXZ 100205e0 f i cmdlinebuildenvironmentbase.obj
 0001:0001f680       ??$qForeachContainerNew@V?$QList@PAUIProjectFile@@@@@@YA?AV?$QForeachContainer@V?$QList@PAUIProjectFile@@@@@@ABV?$QList@PAUIProjectFile@@@@@Z 10020680 f i cmdlinebuildenvironmentbase.obj
 0001:0001f6a0       ?append@?$QList@U?$QPair@VQString@@V1@@@@@QAEXABU?$QPair@VQString@@V1@@@@Z 100206a0 f i cmdlinebuildenvironmentbase.obj
 0001:0001f6d0       ??0CmdLineBuildEnvironmentBase@@QAE@ABVQString@@@Z 100206d0 f   cmdlinebuildenvironmentbase.obj
 0001:0001f880       ??_GCmdLineBuildEnvironmentBase@@UAEPAXI@Z 10020880 f i cmdlinebuildenvironmentbase.obj
 0001:0001f880       ??_ECmdLineBuildEnvironmentBase@@UAEPAXI@Z 10020880 f i cmdlinebuildenvironmentbase.obj
 0001:0001f8a0       ?setAction@CmdLineBuildEnvironmentBase@@AAEXW4BuildAction@1@ABVQStringList@@PAUIProjectFile@@@Z 100208a0 f   cmdlinebuildenvironmentbase.obj
 0001:0001f900       ?getFileList@CmdLineBuildEnvironmentBase@@AAE?AV?$QList@PAUIProjectFile@@@@ABVQString@@PAUIProjectFolder@@@Z 10020900 f   cmdlinebuildenvironmentbase.obj
 0001:0001ff20       ?generatedFiles@CmdLineBuildEnvironmentBase@@UAE?AVQStringList@@ABVQString@@@Z 10020f20 f   cmdlinebuildenvironmentbase.obj
 0001:0001ff50       ?putEnv@CmdLineBuildEnvironmentBase@@AAEXABVQString@@0@Z 10020f50 f   cmdlinebuildenvironmentbase.obj
 0001:000202d0       ?extraFileExtensions@CmdLineBuildEnvironmentBase@@UAE?AVQStringList@@W4BuiltInDocument@IDocTypes@@@Z 100212d0 f   cmdlinebuildenvironmentbase.obj
 0001:00020300       ??6?$QList@U?$QPair@VQString@@V1@@@@@QAEAAV0@ABU?$QPair@VQString@@V1@@@@Z 10021300 f i cmdlinebuildenvironmentbase.obj
 0001:00020330       ?compileFile@CmdLineBuildEnvironmentBase@@UAEXABVQString@@0@Z 10021330 f   cmdlinebuildenvironmentbase.obj
 0001:000209a0       ?canCompileFile@CmdLineBuildEnvironmentBase@@UAE_NABVQString@@0@Z 100219a0 f   cmdlinebuildenvironmentbase.obj
 0001:00020da0       ?build@CmdLineBuildEnvironmentBase@@UAEXABVQStringList@@_N@Z 10021da0 f   cmdlinebuildenvironmentbase.obj
 0001:00020e20       ?clean@CmdLineBuildEnvironmentBase@@UAEXABVQStringList@@@Z 10021e20 f   cmdlinebuildenvironmentbase.obj
 0001:00020e90       ?load@CmdLineBuildEnvironmentBase@@UAEXABVQString@@@Z 10021e90 f   cmdlinebuildenvironmentbase.obj
 0001:00020f80       ?setupEnvironment@CmdLineBuildEnvironmentBase@@AAEXPAVQProcess@@ABVQString@@11@Z 10021f80 f   cmdlinebuildenvironmentbase.obj
 0001:00021330       ?upToDate@CmdLineBuildEnvironmentBase@@UAE_NABVQString@@@Z 10022330 f   cmdlinebuildenvironmentbase.obj
 0001:00021920       ?doCompileFile@CmdLineBuildEnvironmentBase@@AAEHPAUIProjectFile@@ABVQString@@@Z 10022920 f   cmdlinebuildenvironmentbase.obj
 0001:00022480       ?doClean@CmdLineBuildEnvironmentBase@@AAEHABVQString@@@Z 10023480 f   cmdlinebuildenvironmentbase.obj
 0001:00022d80       ?doBuild@CmdLineBuildEnvironmentBase@@AAEHABVQString@@@Z 10023d80 f   cmdlinebuildenvironmentbase.obj
 0001:00023670       ?doLoadFlash@CmdLineBuildEnvironmentBase@@AAEHABVQString@@@Z 10024670 f   cmdlinebuildenvironmentbase.obj
 0001:00023f50       ?run@CmdLineBuildEnvironmentBase@@MAEXXZ 10024f50 f   cmdlinebuildenvironmentbase.obj
 0001:00025b00       ??0?$QFlags@W4OpenModeFlag@QIODevice@@@@QAE@ABV0@@Z 10026b00 f i cmdlinebuildprojectproperties.obj
 0001:00025b10       ??0?$QFlags@W4OpenModeFlag@QIODevice@@@@QAE@PAPAX@Z 10026b10 f i cmdlinebuildprojectproperties.obj
 0001:00025b20       ??U?$QFlags@W4OpenModeFlag@QIODevice@@@@QBE?AV0@W4OpenModeFlag@QIODevice@@@Z 10026b20 f i cmdlinebuildprojectproperties.obj
 0001:00025b30       ??U@YA?AV?$QFlags@W4OpenModeFlag@QIODevice@@@@W4OpenModeFlag@QIODevice@@0@Z 10026b30 f i cmdlinebuildprojectproperties.obj
 0001:00025b40       ?cmdLineBuildProjectProperties@@YA?AVQString@@XZ 10026b40 f   cmdlinebuildprojectproperties.obj
 0001:00025c50       ??0CmdLineHelper@@QAE@ABVQString@@@Z 10026c50 f   cmdlinehelper.obj
 0001:00025cb0       ??1CmdLineHelper@@UAE@XZ   10026cb0 f   cmdlinehelper.obj
 0001:00025cd0       ?cmdLine@CmdLineHelper@@QBE?AVQString@@XZ 10026cd0 f   cmdlinehelper.obj
 0001:00025d00       ?size@?$QList@U?$QPair@VQString@@V1@@@@@QBEHXZ 10026d00 f i cmdlinehelper.obj
 0001:00025d10       ?t@Node@?$QList@U?$QPair@VQString@@V1@@@@@QAEAAU?$QPair@VQString@@V1@@@XZ 10026d10 f i cmdlinehelper.obj
 0001:00025d20       ??_ECmdLineHelper@@UAEPAXI@Z 10026d20 f i cmdlinehelper.obj
 0001:00025d20       ??_GCmdLineHelper@@UAEPAXI@Z 10026d20 f i cmdlinehelper.obj
 0001:00025d60       ?at@?$QList@U?$QPair@VQString@@V1@@@@@QBEABU?$QPair@VQString@@V1@@@H@Z 10026d60 f i cmdlinehelper.obj
 0001:00025d80       ?replace@CmdLineHelper@@QAEXV?$QList@U?$QPair@VQString@@V1@@@@@@Z 10026d80 f   cmdlinehelper.obj
 0001:00026140       ??0MemAddr@@QAE@XZ         10027140 f i codemodeldetector.obj
 0001:00026150       ?isEmpty@?$QList@VQString@@@@QBE_NXZ 10027150 f i codemodeldetector.obj
 0001:00026160       ??$signextend@H$07@@YAHH@Z 10027160 f i codemodeldetector.obj
 0001:00026170       ?fetchInstruction@?A0xa4e47e99@@YA_NPAVMemoryImage@@IAAIAAEAAH@Z 10027170 f   codemodeldetector.obj
 0001:000261f0       ?isFunction@?A0xa4e47e99@@YA_NPAVGlobalSymbols@@VMemAddr@@@Z 100271f0 f   codemodeldetector.obj
 0001:00026260       ?detectModel@CodeModelDetector@@SA_NPAVMemoryImage@@PAVGlobalSymbols@@HPA_N@Z 10027260 f   codemodeldetector.obj
 0001:00026490       ?validAddress@?A0x011ce151@@YA_NPAUXap2CsrEnvironmentBase@@_J@Z 10027490 f i commonpythonextension.obj
 0001:00026600       ?validLength@?A0x011ce151@@YA_NPAUXap2CsrEnvironmentBase@@_J@Z 10027600 f i commonpythonextension.obj
 0001:00026770       ?validData@?A0x011ce151@@YA_NJ@Z 10027770 f i commonpythonextension.obj
 0001:000268b0       ?transportIsSPI@@YA_NPAUPyExtension@@@Z 100278b0 f   commonpythonextension.obj
 0001:000268f0       ?PyExtension_read@@YAPAU_object@@PAUPyExtension@@PAU1@@Z 100278f0 f   commonpythonextension.obj
 0001:00026ad0       ?PyExtension_spiRead@@YAPAU_object@@PAUPyExtension@@PAU1@@Z 10027ad0 f   commonpythonextension.obj
 0001:00026b20       ?PyExtension_write@@YAPAU_object@@PAUPyExtension@@PAU1@@Z 10027b20 f   commonpythonextension.obj
 0001:00026dd0       ?PyExtension_spiWrite@@YAPAU_object@@PAUPyExtension@@PAU1@@Z 10027dd0 f   commonpythonextension.obj
 0001:00026e20       ?PyExtension_readBlock@@YAPAU_object@@PAUPyExtension@@PAU1@@Z 10027e20 f   commonpythonextension.obj
 0001:00027230       ?PyExtension_spiReadBlock@@YAPAU_object@@PAUPyExtension@@PAU1@@Z 10028230 f   commonpythonextension.obj
 0001:00027280       ?PyExtension_writeBlock@@YAPAU_object@@PAUPyExtension@@PAU1@@Z 10028280 f   commonpythonextension.obj
 0001:00027720       ?PyExtension_spiWriteBlock@@YAPAU_object@@PAUPyExtension@@PAU1@@Z 10028720 f   commonpythonextension.obj
 0001:00027770       ?PyExtension_spiChipSelect@@YAPAU_object@@PAUPyExtension@@PAU1@@Z 10028770 f   commonpythonextension.obj
 0001:00027840       ?PyExtension_spiMultiplexSelect@@YAPAU_object@@PAUPyExtension@@PAU1@@Z 10028840 f   commonpythonextension.obj
 0001:00027910       ?PyExtension_pluginNameAndVersion@@YAPAU_object@@PAUPyExtension@@PAU1@@Z 10028910 f   commonpythonextension.obj
 0001:00027930       ?PyExtension_sequence@@YAPAU_object@@PAUPyExtension@@PAU1@@Z 10028930 f   commonpythonextension.obj
 0001:00027950       ?PyExtension_spiSequence@@YAPAU_object@@PAUPyExtension@@PAU1@@Z 10028950 f   commonpythonextension.obj
 0001:000279a0       ?PyExtension_transportType@@YAPAU_object@@PAUPyExtension@@PAU1@@Z 100289a0 f   commonpythonextension.obj
 0001:000279d0       ?PyExtension_getpollDelay@@YAPAU_object@@PAUPyExtension@@PAX@Z 100289d0 f   commonpythonextension.obj
 0001:00027a00       ?PyExtension_getspiPollDelay@@YAPAU_object@@PAUPyExtension@@PAX@Z 10028a00 f   commonpythonextension.obj
 0001:00027a60       ?PyExtension_getspiAlways@@YAPAU_object@@PAUPyExtension@@PAX@Z 10028a60 f   commonpythonextension.obj
 0001:00027ac0       ?PyExtension_setpollDelay@@YAHPAUPyExtension@@PAU_object@@PAX@Z 10028ac0 f   commonpythonextension.obj
 0001:00027c20       ?PyExtension_setspiPollDelay@@YAHPAUPyExtension@@PAU_object@@PAX@Z 10028c20 f   commonpythonextension.obj
 0001:00027c70       ?PyExtension_setspiAlways@@YAHPAUPyExtension@@PAU_object@@PAX@Z 10028c70 f   commonpythonextension.obj
 0001:00027ce0       ?PyExtension_getsymbolTree@@YAPAU_object@@PAUPyExtension@@PAX@Z 10028ce0 f   commonpythonextension.obj
 0001:00027d10       ?PyExtension_getglobalSymbols@@YAPAU_object@@PAUPyExtension@@PAX@Z 10028d10 f   commonpythonextension.obj
 0001:00027d40       ?PyExtension_getcallStack@@YAPAU_object@@PAUPyExtension@@PAX@Z 10028d40 f   commonpythonextension.obj
 0001:00027d70       ?PyExtension_getspiClock@@YAPAU_object@@PAUPyExtension@@PAX@Z 10028d70 f   commonpythonextension.obj
 0001:00027dd0       ?PyExtension_getspiDelay@@YAPAU_object@@PAUPyExtension@@PAX@Z 10028dd0 f   commonpythonextension.obj
 0001:00027e30       ?PyExtension_setspiDelay@@YAHPAUPyExtension@@PAU_object@@PAX@Z 10028e30 f   commonpythonextension.obj
 0001:00027f00       ?PyExtension_getdisassembleWhileRunning@@YAPAU_object@@PAUPyExtension@@PAX@Z 10028f00 f   commonpythonextension.obj
 0001:00027f30       ?PyExtension_setdisassembleWhileRunning@@YAHPAUPyExtension@@PAU_object@@PAX@Z 10028f30 f   commonpythonextension.obj
 0001:00027f70       ?size@ComposableType@@UBEHPBVLocationResolver@@@Z 10028f70 f   composabletype.obj
 0001:00027f80       ??0TypeElement@@QAE@ABV0@@Z 10028f80 f i composabletype.obj
 0001:00027fc0       ??_ETypeElement@@UAEPAXI@Z 10028fc0 f i composabletype.obj
 0001:00027fc0       ??_GTypeElement@@UAEPAXI@Z 10028fc0 f i composabletype.obj
 0001:00027fe0       ?describe@ComposableType@@UBE?AVQString@@XZ 10028fe0 f   composabletype.obj
 0001:00028010       ??0?$QList@VTypeElement@@@@QAE@XZ 10029010 f i composabletype.obj
 0001:00028030       ?count@?$QList@VTypeElement@@@@QBEHXZ 10029030 f i composabletype.obj
 0001:00028040       ??0?$QList@V?$QList@VLocation@@@@@@QAE@XZ 10029040 f i composabletype.obj
 0001:00028060       ?t@Node@?$QList@VTypeElement@@@@QAEAAVTypeElement@@XZ 10029060 f i composabletype.obj
 0001:00028070       ?t@Node@?$QList@V?$QList@VLocation@@@@@@QAEAAV?$QList@VLocation@@@@XZ 10029070 f i composabletype.obj
 0001:00028080       ??4TypeElement@@QAEAAV0@ABV0@@Z 10029080 f i composabletype.obj
 0001:000280c0       ?node_destruct@?$QList@VLocation@@@@AAEXPAUNode@1@0@Z 100290c0 f i composabletype.obj
 0001:000280f0       ?node_destruct@?$QList@VTypeElement@@@@AAEXPAUNode@1@0@Z 100290f0 f i composabletype.obj
 0001:00028120       ?node_copy@?$QList@VTypeElement@@@@AAEXPAUNode@1@00@Z 10029120 f i composabletype.obj
 0001:000281c0       ?node_destruct@?$QList@VLocationPiece@@@@AAEXPAUNode@1@0@Z 100291c0 f i composabletype.obj
 0001:000281f0       ??0LocationOperation@@QAE@ABV0@@Z 100291f0 f i composabletype.obj
 0001:00028250       ??_GLocationOperation@@UAEPAXI@Z 10029250 f i composabletype.obj
 0001:00028250       ??_ELocationOperation@@UAEPAXI@Z 10029250 f i composabletype.obj
 0001:00028270       ?node_destruct@?$QList@VLocationOperation@@@@AAEXPAUNode@1@0@Z 10029270 f i composabletype.obj
 0001:000282a0       ?childCount@ComposableType@@UBEHPBVLocationResolver@@@Z 100292a0 f   composabletype.obj
 0001:000282b0       ??A?$QList@VTypeElement@@@@QBEABVTypeElement@@H@Z 100292b0 f i composabletype.obj
 0001:000282c0       ??A?$QList@V?$QList@VLocation@@@@@@QBEABV?$QList@VLocation@@@@H@Z 100292c0 f i composabletype.obj
 0001:000282d0       ?free@?$QList@VLocation@@@@AAEXPAUData@QListData@@@Z 100292d0 f i composabletype.obj
 0001:00028320       ?free@?$QList@VTypeElement@@@@AAEXPAUData@QListData@@@Z 10029320 f i composabletype.obj
 0001:00028370       ?node_construct@?$QList@VTypeElement@@@@AAEXPAUNode@1@ABVTypeElement@@@Z 10029370 f i composabletype.obj
 0001:000283e0       ?free@?$QList@VLocationPiece@@@@AAEXPAUData@QListData@@@Z 100293e0 f i composabletype.obj
 0001:00028430       ?free@?$QList@VLocationOperation@@@@AAEXPAUData@QListData@@@Z 10029430 f i composabletype.obj
 0001:00028480       ?node_copy@?$QList@VLocationOperation@@@@AAEXPAUNode@1@00@Z 10029480 f i composabletype.obj
 0001:00028550       ?childElement@ComposableType@@UBEPBVTypeElement@@H@Z 10029550 f   composabletype.obj
 0001:00028570       ??1?$QList@VLocation@@@@QAE@XZ 10029570 f i composabletype.obj
 0001:00028590       ??1?$QList@VTypeElement@@@@QAE@XZ 10029590 f i composabletype.obj
 0001:000285b0       ?detach_helper@?$QList@VTypeElement@@@@AAEXXZ 100295b0 f i composabletype.obj
 0001:00028600       ??1?$QList@VLocationPiece@@@@QAE@XZ 10029600 f i composabletype.obj
 0001:00028620       ??_G?$QList@VLocation@@@@QAEPAXI@Z 10029620 f i composabletype.obj
 0001:00028660       ??1?$QList@VLocationOperation@@@@QAE@XZ 10029660 f i composabletype.obj
 0001:00028680       ?detach_helper@?$QList@VLocationOperation@@@@AAEXXZ 10029680 f i composabletype.obj
 0001:000286d0       ?detach@?$QList@VTypeElement@@@@QAEXXZ 100296d0 f i composabletype.obj
 0001:000286e0       ?node_destruct@?$QList@V?$QList@VLocation@@@@@@AAEXPAUNode@1@0@Z 100296e0 f i composabletype.obj
 0001:00028730       ??0?$QList@VLocationOperation@@@@QAE@ABV0@@Z 10029730 f i composabletype.obj
 0001:00028760       ?append@?$QList@VTypeElement@@@@QAEXABVTypeElement@@@Z 10029760 f i composabletype.obj
 0001:00028790       ?free@?$QList@V?$QList@VLocation@@@@@@AAEXPAUData@QListData@@@Z 10029790 f i composabletype.obj
 0001:000287c0       ??0LocationPiece@@QAE@ABV0@@Z 100297c0 f i composabletype.obj
 0001:00028800       ??_GLocationPiece@@UAEPAXI@Z 10029800 f i composabletype.obj
 0001:00028800       ??_ELocationPiece@@UAEPAXI@Z 10029800 f i composabletype.obj
 0001:00028820       ??1?$QList@V?$QList@VLocation@@@@@@QAE@XZ 10029820 f i composabletype.obj
 0001:00028860       ?node_copy@?$QList@VLocationPiece@@@@AAEXPAUNode@1@00@Z 10029860 f i composabletype.obj
 0001:00028970       ??0ComposableType@@QAE@ABVQString@@0@Z 10029970 f   composabletype.obj
 0001:000289c0       ??1ComposableType@@UAE@XZ  100299c0 f   composabletype.obj
 0001:00028a70       ?detach_helper@?$QList@VLocationPiece@@@@AAEXXZ 10029a70 f i composabletype.obj
 0001:00028ac0       ??_EComposableType@@UAEPAXI@Z 10029ac0 f i composabletype.obj
 0001:00028ac0       ??_GComposableType@@UAEPAXI@Z 10029ac0 f i composabletype.obj
 0001:00028ae0       ??0?$QList@VLocationPiece@@@@QAE@ABV0@@Z 10029ae0 f i composabletype.obj
 0001:00028b10       ??0Location@@QAE@ABV0@@Z   10029b10 f i composabletype.obj
 0001:00028b70       ??_ELocation@@UAEPAXI@Z    10029b70 f i composabletype.obj
 0001:00028b70       ??_GLocation@@UAEPAXI@Z    10029b70 f i composabletype.obj
 0001:00028b90       ?node_copy@?$QList@VLocation@@@@AAEXPAUNode@1@00@Z 10029b90 f i composabletype.obj
 0001:00028cc0       ?detach_helper@?$QList@VLocation@@@@AAEXXZ 10029cc0 f i composabletype.obj
 0001:00028d10       ??4?$QList@VLocation@@@@QAEAAV0@ABV0@@Z 10029d10 f i composabletype.obj
 0001:00028d60       ??0?$QList@VLocation@@@@QAE@ABV0@@Z 10029d60 f i composabletype.obj
 0001:00028d90       ?node_construct@?$QList@V?$QList@VLocation@@@@@@AAEXPAUNode@1@ABV?$QList@VLocation@@@@@Z 10029d90 f i composabletype.obj
 0001:00028e20       ?node_copy@?$QList@V?$QList@VLocation@@@@@@AAEXPAUNode@1@00@Z 10029e20 f i composabletype.obj
 0001:00028f00       ??0Symbol@@QAE@ABV0@@Z     10029f00 f i composabletype.obj
 0001:00028f90       ??_ESymbol@@UAEPAXI@Z      10029f90 f i composabletype.obj
 0001:00028f90       ??_GSymbol@@UAEPAXI@Z      10029f90 f i composabletype.obj
 0001:00028fb0       ?detach_helper@?$QList@V?$QList@VLocation@@@@@@AAEXXZ 10029fb0 f i composabletype.obj
 0001:00029020       ?child@ComposableType@@UBE?AVSymbol@@ABVLocation@@HPAVLocationResolver@@@Z 1002a020 f   composabletype.obj
 0001:000291b0       ?detach@?$QList@V?$QList@VLocation@@@@@@QAEXXZ 1002a1b0 f i composabletype.obj
 0001:000291c0       ?append@?$QList@V?$QList@VLocation@@@@@@QAEXABV?$QList@VLocation@@@@@Z 1002a1c0 f i composabletype.obj
 0001:000291f0       ?addChild@ComposableType@@UAEXVTypeElement@@V?$QList@VLocation@@@@@Z 1002a1f0 f   composabletype.obj
 0001:000292b0       ?chars@CompositeType@@IBEHXZ 1002a2b0 f   compositetype.obj
 0001:000292c0       ?needsEndianAdjustForBigEndianCpus@CompositeType@@IBE_NXZ 1002a2c0 f   compositetype.obj
 0001:000292d0       ??Econst_iterator@?$QList@VTypeElement@@@@QAEAAV01@XZ 1002a2d0 f i compositetype.obj
 0001:000292e0       ??9const_iterator@?$QList@VTypeElement@@@@QBE_NABV01@@Z 1002a2e0 f i compositetype.obj
 0001:00029300       ??$qForeachPointer@V?$QList@VTypeElement@@@@@@YAPAV?$QList@VTypeElement@@@@ABV0@@Z 1002a300 f i compositetype.obj
 0001:00029310       ??$qForeachContainer@V?$QList@VTypeElement@@@@@@YAPBV?$QForeachContainer@V?$QList@VTypeElement@@@@@@PBUQForeachContainerBase@@PBV?$QList@VTypeElement@@@@@Z 1002a310 f i compositetype.obj
 0001:00029320       ??0const_iterator@?$QList@VTypeElement@@@@QAE@PAUNode@1@@Z 1002a320 f i compositetype.obj
 0001:00029330       ?childCount@CompositeType@@UBEHPBVLocationResolver@@@Z 1002a330 f   compositetype.obj
 0001:00029340       ?childElement@CompositeType@@UBEPBVTypeElement@@H@Z 1002a340 f   compositetype.obj
 0001:00029360       ?condition@?$QForeachContainer@V?$QList@VTypeElement@@@@@@QBE_NXZ 1002a360 f i compositetype.obj
 0001:00029380       ??Dconst_iterator@?$QList@VTypeElement@@@@QBEABVTypeElement@@XZ 1002a380 f i compositetype.obj
 0001:00029390       ?begin@?$QList@VTypeElement@@@@QBE?AVconst_iterator@1@XZ 1002a390 f i compositetype.obj
 0001:000293b0       ?end@?$QList@VTypeElement@@@@QBE?AVconst_iterator@1@XZ 1002a3b0 f i compositetype.obj
 0001:000293d0       ??1CompositeType@@UAE@XZ   1002a3d0 f   compositetype.obj
 0001:00029440       ??1?$QForeachContainer@V?$QList@VTypeElement@@@@@@QAE@XZ 1002a440 f i compositetype.obj
 0001:00029460       ??0?$QList@VTypeElement@@@@QAE@ABV0@@Z 1002a460 f i compositetype.obj
 0001:00029490       ??4?$QList@VTypeElement@@@@QAEAAV0@ABV0@@Z 1002a490 f i compositetype.obj
 0001:000294e0       ??0?$QForeachContainer@V?$QList@VTypeElement@@@@@@QAE@ABV?$QList@VTypeElement@@@@@Z 1002a4e0 f i compositetype.obj
 0001:00029530       ??0CompositeType@@QAE@ABVQString@@0HABV?$QList@VTypeElement@@@@_N@Z 1002a530 f   compositetype.obj
 0001:00029600       ??_GCompositeType@@UAEPAXI@Z 1002a600 f i compositetype.obj
 0001:00029600       ??_ECompositeType@@UAEPAXI@Z 1002a600 f i compositetype.obj
 0001:00029620       ??$qForeachContainerNew@V?$QList@VTypeElement@@@@@@YA?AV?$QForeachContainer@V?$QList@VTypeElement@@@@@@ABV?$QList@VTypeElement@@@@@Z 1002a620 f i compositetype.obj
 0001:00029680       ?size@CompositeType@@UBEHPBVLocationResolver@@@Z 1002a680 f   compositetype.obj
 0001:00029780       ?wrapElementsConst@CompositeType@@IBE?AV?$QList@VTypeElement@@@@PAV?$QList@PAVSymbolType@@@@@Z 1002a780 f   compositetype.obj
 0001:000299f0       ?wrapElementsVolatile@CompositeType@@IBE?AV?$QList@VTypeElement@@@@PAV?$QList@PAVSymbolType@@@@@Z 1002a9f0 f   compositetype.obj
 0001:00029c60       ??4?$QList@VLocationPiece@@@@QAEAAV0@ABV0@@Z 1002ac60 f i compositetype.obj
 0001:00029cb0       ??4Location@@QAEAAV0@ABV0@@Z 1002acb0 f i compositetype.obj
 0001:00029d30       ?child@CompositeType@@UBE?AVSymbol@@ABVLocation@@HPAVLocationResolver@@@Z 1002ad30 f   compositetype.obj
 0001:00029fa0       ??0ConstType@@QAE@PAVSymbolType@@@Z 1002afa0 f   consttype.obj
 0001:0002a040       ??1ConstType@@UAE@XZ       1002b040 f   consttype.obj
 0001:0002a050       ?name@ConstType@@UBE?AVQString@@XZ 1002b050 f   consttype.obj
 0001:0002a070       ?describe@ConstType@@UBE?AVQString@@XZ 1002b070 f   consttype.obj
 0001:0002a100       ?size@ConstType@@UBEHPBVLocationResolver@@@Z 1002b100 f   consttype.obj
 0001:0002a110       ?childCount@ConstType@@UBEHPBVLocationResolver@@@Z 1002b110 f   consttype.obj
 0001:0002a120       ?child@ConstType@@UBE?AVSymbol@@ABVLocation@@HPAVLocationResolver@@@Z 1002b120 f   consttype.obj
 0001:0002a150       ?formatValue@ConstType@@UBE?AVQString@@ABVLocation@@PBVLocationResolver@@@Z 1002b150 f   consttype.obj
 0001:0002a180       ?readVariant@ConstType@@UBE?AVQVariant@@ABVLocation@@PBVLocationResolver@@@Z 1002b180 f   consttype.obj
 0001:0002a1b0       ?isVolatile@ConstType@@UBE_NXZ 1002b1b0 f   consttype.obj
 0001:0002a1c0       ?setVolatile@ConstType@@IAEX_N@Z 1002b1c0 f   consttype.obj
 0001:0002a1e0       ?performRangeChecking@ConstType@@UBE_NXZ 1002b1e0 f   consttype.obj
 0001:0002a1f0       ?setPerformRangeChecking@ConstType@@IAEX_N@Z 1002b1f0 f   consttype.obj
 0001:0002a210       ?pointerSize@ConstType@@UBEHPBVLocationResolver@@@Z 1002b210 f   consttype.obj
 0001:0002a220       ?isChar@ConstType@@UBE_NXZ 1002b220 f   consttype.obj
 0001:0002a230       ??_EConstType@@UAEPAXI@Z   1002b230 f i consttype.obj
 0001:0002a230       ??_GConstType@@UAEPAXI@Z   1002b230 f i consttype.obj
 0001:0002a260       ??0CursorSetter@@QAE@W4CursorShape@Qt@@@Z 1002b260 f   cursorsetter.obj
 0001:0002a2d0       ??1CursorSetter@@UAE@XZ    1002b2d0 f   cursorsetter.obj
 0001:0002a2e0       ??_GCursorSetter@@UAEPAXI@Z 1002b2e0 f i cursorsetter.obj
 0001:0002a2e0       ??_ECursorSetter@@UAEPAXI@Z 1002b2e0 f i cursorsetter.obj
 0001:0002a310       ?qvariant_cast_helper@@YA_NABVQVariant@@W4Type@1@PAX@Z 1002b310 f i customsortfilterproxymodel.obj
 0001:0002a340       ?visitNodeUpwardMatchingFilter@CustomSortFilterProxyModel@@ABE_NABVQModelIndex@@@Z 1002b340 f   customsortfilterproxymodel.obj
 0001:0002a480       ?visitNodeDownwardMatchingFilter@CustomSortFilterProxyModel@@ABE_NABVQModelIndex@@@Z 1002b480 f   customsortfilterproxymodel.obj
 0001:0002a5d0       ?data@?$Basic@VAbstractPeripheralsTreeData@@@QtSharedPointer@@QBEPAVAbstractPeripheralsTreeData@@XZ 1002b5d0 f i customsortfilterproxymodel.obj
 0001:0002a5e0       ??C?$Basic@VAbstractPeripheralsTreeData@@@QtSharedPointer@@QBEPAVAbstractPeripheralsTreeData@@XZ 1002b5e0 f i customsortfilterproxymodel.obj
 0001:0002a5f0       ?isNull@?$Basic@VAbstractPeripheralsTreeData@@@QtSharedPointer@@QBE_NXZ 1002b5f0 f i customsortfilterproxymodel.obj
 0001:0002a600       ?ref@?$ExternalRefCount@VAbstractPeripheralsTreeData@@@QtSharedPointer@@IBEXXZ 1002b600 f i customsortfilterproxymodel.obj
 0001:0002a620       ??0?$Basic@VAbstractPeripheralsTreeData@@@QtSharedPointer@@IAE@XZ 1002b620 f i customsortfilterproxymodel.obj
 0001:0002a630       ?internalDestroy@?$Basic@VAbstractPeripheralsTreeData@@@QtSharedPointer@@IAEXXZ 1002b630 f i customsortfilterproxymodel.obj
 0001:0002a640       ?filterAcceptsRow@CustomSortFilterProxyModel@@MBE_NHABVQModelIndex@@@Z 1002b640 f   customsortfilterproxymodel.obj
 0001:0002a6d0       ??B?$Basic@VAbstractPeripheralsTreeData@@@QtSharedPointer@@QBEPQ01@PAVAbstractPeripheralsTreeData@@XZ 1002b6d0 f i customsortfilterproxymodel.obj
 0001:0002a6e0       ??0?$ExternalRefCount@VAbstractPeripheralsTreeData@@@QtSharedPointer@@IAE@XZ 1002b6e0 f i customsortfilterproxymodel.obj
 0001:0002a6f0       ??0?$ExternalRefCount@VAbstractPeripheralsTreeData@@@QtSharedPointer@@IAE@ABV01@@Z 1002b6f0 f i customsortfilterproxymodel.obj
 0001:0002a730       ?internalDestroy@?$ExternalRefCount@VAbstractPeripheralsTreeData@@@QtSharedPointer@@IAEXXZ 1002b730 f i customsortfilterproxymodel.obj
 0001:0002a760       ?deref@?$ExternalRefCount@VAbstractPeripheralsTreeData@@@QtSharedPointer@@IAE_NXZ 1002b760 f i customsortfilterproxymodel.obj
 0001:0002a7b0       ??1?$ExternalRefCount@VAbstractPeripheralsTreeData@@@QtSharedPointer@@IAE@XZ 1002b7b0 f i customsortfilterproxymodel.obj
 0001:0002a7e0       ??1?$QSharedPointer@VAbstractPeripheralsTreeData@@@@QAE@XZ 1002b7e0 f i customsortfilterproxymodel.obj
 0001:0002a810       ??1PeripheralsTreeNodeHolder@@QAE@XZ 1002b810 f i customsortfilterproxymodel.obj
 0001:0002a840       ??0?$QSharedPointer@VAbstractPeripheralsTreeData@@@@QAE@XZ 1002b840 f i customsortfilterproxymodel.obj
 0001:0002a850       ??0?$QSharedPointer@VAbstractPeripheralsTreeData@@@@QAE@ABV0@@Z 1002b850 f i customsortfilterproxymodel.obj
 0001:0002a890       ??0PeripheralsTreeNodeHolder@@QAE@ABV0@@Z 1002b890 f i customsortfilterproxymodel.obj
 0001:0002a8d0       ??_GPeripheralsTreeNodeHolder@@QAEPAXI@Z 1002b8d0 f i customsortfilterproxymodel.obj
 0001:0002a910       ??0PeripheralsTreeNodeHolder@@QAE@XZ 1002b910 f i customsortfilterproxymodel.obj
 0001:0002a920       ?getData@PeripheralsTreeNodeHolder@@QBE?AV?$QSharedPointer@VAbstractPeripheralsTreeData@@@@XZ 1002b920 f i customsortfilterproxymodel.obj
 0001:0002a960       ??$qMetaTypeConstructHelper@VPeripheralsTreeNodeHolder@@@@YAPAXPBVPeripheralsTreeNodeHolder@@@Z 1002b960 f i customsortfilterproxymodel.obj
 0001:0002a9c0       ??$qMetaTypeDeleteHelper@VPeripheralsTreeNodeHolder@@@@YAXPAVPeripheralsTreeNodeHolder@@@Z 1002b9c0 f i customsortfilterproxymodel.obj
 0001:0002aa00       ??$qRegisterMetaType@VPeripheralsTreeNodeHolder@@@@YAHPBDPAVPeripheralsTreeNodeHolder@@@Z 1002ba00 f i customsortfilterproxymodel.obj
 0001:0002aa20       ?qt_metatype_id@?$QMetaTypeId@VPeripheralsTreeNodeHolder@@@@SAHXZ 1002ba20 f i customsortfilterproxymodel.obj
 0001:0002aa50       ?qt_metatype_id@?$QMetaTypeId2@VPeripheralsTreeNodeHolder@@@@SAHXZ 1002ba50 f i customsortfilterproxymodel.obj
 0001:0002aa80       ??$qMetaTypeId@VPeripheralsTreeNodeHolder@@@@YAHPAVPeripheralsTreeNodeHolder@@@Z 1002ba80 f i customsortfilterproxymodel.obj
 0001:0002aab0       ??$qvariant_cast@VPeripheralsTreeNodeHolder@@@@YA?AVPeripheralsTreeNodeHolder@@ABVQVariant@@@Z 1002bab0 f i customsortfilterproxymodel.obj
 0001:0002ac80       ??$qVariantValue@VPeripheralsTreeNodeHolder@@@@YA?AVPeripheralsTreeNodeHolder@@ABVQVariant@@@Z 1002bc80 f i customsortfilterproxymodel.obj
 0001:0002acb0       ??$value@VPeripheralsTreeNodeHolder@@@QVariant@@QBE?AVPeripheralsTreeNodeHolder@@XZ 1002bcb0 f i customsortfilterproxymodel.obj
 0001:0002acd0       ?lessThan@CustomSortFilterProxyModel@@MBE_NABVQModelIndex@@0@Z 1002bcd0 f   customsortfilterproxymodel.obj
 0001:0002b090       ?retranslateUi@Ui_DataBreakpointDialogBase@@QAEXPAVQDialog@@@Z 1002c090 f i databreakpointdialog.obj
 0001:0002b530       ??1DataBreakpointDialogBase@@UAE@XZ 1002c530 f i databreakpointdialog.obj
 0001:0002b540       ??0ExternalRefCountData@QtSharedPointer@@QAE@XZ 1002c540 f i databreakpointdialog.obj
 0001:0002b560       ??1ExternalRefCountData@QtSharedPointer@@UAE@XZ 1002c560 f i databreakpointdialog.obj
 0001:0002b570       ?destroy@ExternalRefCountData@QtSharedPointer@@UAE_NXZ 1002c570 f i databreakpointdialog.obj
 0001:0002b580       ??_GExternalRefCountData@QtSharedPointer@@UAEPAXI@Z 1002c580 f i databreakpointdialog.obj
 0001:0002b580       ??_EExternalRefCountData@QtSharedPointer@@UAEPAXI@Z 1002c580 f i databreakpointdialog.obj
 0001:0002b5a0       ?tr@DataBreakpointDialog@@SA?AVQString@@PBD0@Z 1002c5a0 f i databreakpointdialog.obj
 0001:0002b5d0       ??0DataBreakpointRegisterConfiguration@@QAE@XZ 1002c5d0 f i databreakpointdialog.obj
 0001:0002b5f0       ??0DataBreakpointRegisterConfiguration@@QAE@II_N0000@Z 1002c5f0 f i databreakpointdialog.obj
 0001:0002b630       ?getStartAddress@DataBreakpointRegisterConfiguration@@QBEIXZ 1002c630 f i databreakpointdialog.obj
 0001:0002b640       ?getEndAddress@DataBreakpointRegisterConfiguration@@QBEIXZ 1002c640 f i databreakpointdialog.obj
 0001:0002b650       ?getBreakDataRead@DataBreakpointRegisterConfiguration@@QBE_NXZ 1002c650 f i databreakpointdialog.obj
 0001:0002b660       ?getBreakDataWrite@DataBreakpointRegisterConfiguration@@QBE_NXZ 1002c660 f i databreakpointdialog.obj
 0001:0002b670       ?getBreakNullPtr@DataBreakpointRegisterConfiguration@@QBE_NXZ 1002c670 f i databreakpointdialog.obj
 0001:0002b680       ?getBreakUnmappedRead@DataBreakpointRegisterConfiguration@@QBE_NXZ 1002c680 f i databreakpointdialog.obj
 0001:0002b690       ?getBreakUnmappedWrite@DataBreakpointRegisterConfiguration@@QBE_NXZ 1002c690 f i databreakpointdialog.obj
 0001:0002b6a0       ?rememberComboEntry@?A0x66db9be3@@YAXABVQString@@PAVQComboBox@@@Z 1002c6a0 f   databreakpointdialog.obj
 0001:0002b7d0       ?getAddress@DataBreakpointDialog@@ABE_NPAI@Z 1002c7d0 f   databreakpointdialog.obj
 0001:0002b8f0       ?getLength@DataBreakpointDialog@@ABE_NPAH@Z 1002c8f0 f   databreakpointdialog.obj
 0001:0002b980       ?disabledButtonChange@DataBreakpointDialog@@AAEX_N@Z 1002c980 f   databreakpointdialog.obj
 0001:0002b9b0       ?data@?$Basic@VDataBreakpointRegisterConfiguration@@@QtSharedPointer@@QBEPAVDataBreakpointRegisterConfiguration@@XZ 1002c9b0 f i databreakpointdialog.obj
 0001:0002b9c0       ?isNull@?$Basic@VDataBreakpointRegisterConfiguration@@@QtSharedPointer@@QBE_NXZ 1002c9c0 f i databreakpointdialog.obj
 0001:0002b9d0       ?ref@?$ExternalRefCount@VDataBreakpointRegisterConfiguration@@@QtSharedPointer@@IBEXXZ 1002c9d0 f i databreakpointdialog.obj
 0001:0002b9f0       ??0?$Basic@VDataBreakpointRegisterConfiguration@@@QtSharedPointer@@IAE@XZ 1002c9f0 f i databreakpointdialog.obj
 0001:0002ba00       ?internalConstruct@?$Basic@VDataBreakpointRegisterConfiguration@@@QtSharedPointer@@IAEXPAVDataBreakpointRegisterConfiguration@@@Z 1002ca00 f i databreakpointdialog.obj
 0001:0002ba10       ?internalDestroy@?$Basic@VDataBreakpointRegisterConfiguration@@@QtSharedPointer@@IAEXXZ 1002ca10 f i databreakpointdialog.obj
 0001:0002ba20       ?verifyReconstruction@?$Basic@VDataBreakpointRegisterConfiguration@@@QtSharedPointer@@IAEXPBVDataBreakpointRegisterConfiguration@@@Z 1002ca20 f i databreakpointdialog.obj
 0001:0002ba30       ?setupUi@Ui_DataBreakpointDialogBase@@QAEXPAVQDialog@@@Z 1002ca30 f i databreakpointdialog.obj
 0001:0002ca10       ??_EQSpacerItem@@UAEPAXI@Z 1002da10 f i databreakpointdialog.obj
 0001:0002ca10       ??_GQSpacerItem@@UAEPAXI@Z 1002da10 f i databreakpointdialog.obj
 0001:0002ca30       ??_EQGroupBox@@UAEPAXI@Z   1002da30 f i databreakpointdialog.obj
 0001:0002ca30       ??_GQGroupBox@@UAEPAXI@Z   1002da30 f i databreakpointdialog.obj
 0001:0002ca50       ??_GQHBoxLayout@@UAEPAXI@Z 1002da50 f i databreakpointdialog.obj
 0001:0002ca50       ??_EQHBoxLayout@@UAEPAXI@Z 1002da50 f i databreakpointdialog.obj
 0001:0002ca70       ??_EQLabel@@UAEPAXI@Z      1002da70 f i databreakpointdialog.obj
 0001:0002ca70       ??_GQLabel@@UAEPAXI@Z      1002da70 f i databreakpointdialog.obj
 0001:0002ca90       ??_EQComboBox@@UAEPAXI@Z   1002da90 f i databreakpointdialog.obj
 0001:0002ca90       ??_GQComboBox@@UAEPAXI@Z   1002da90 f i databreakpointdialog.obj
 0001:0002cab0       ??_GQRadioButton@@UAEPAXI@Z 1002dab0 f i databreakpointdialog.obj
 0001:0002cab0       ??_EQRadioButton@@UAEPAXI@Z 1002dab0 f i databreakpointdialog.obj
 0001:0002cad0       ??_GQCheckBox@@UAEPAXI@Z   1002dad0 f i databreakpointdialog.obj
 0001:0002cad0       ??_EQCheckBox@@UAEPAXI@Z   1002dad0 f i databreakpointdialog.obj
 0001:0002caf0       ??_EQPushButton@@UAEPAXI@Z 1002daf0 f i databreakpointdialog.obj
 0001:0002caf0       ??_GQPushButton@@UAEPAXI@Z 1002daf0 f i databreakpointdialog.obj
 0001:0002cb10       ??_EQLabel@@W7AEPAXI@Z     1002db10 f i databreakpointdialog.obj
 0001:0002cb20       ??_EQGroupBox@@W7AEPAXI@Z  1002db20 f i databreakpointdialog.obj
 0001:0002cb30       ??_EQPushButton@@W7AEPAXI@Z 1002db30 f i databreakpointdialog.obj
 0001:0002cb40       ??_EQRadioButton@@W7AEPAXI@Z 1002db40 f i databreakpointdialog.obj
 0001:0002cb50       ??_EQCheckBox@@W7AEPAXI@Z  1002db50 f i databreakpointdialog.obj
 0001:0002cb60       ??_EQHBoxLayout@@W7AEPAXI@Z 1002db60 f i databreakpointdialog.obj
 0001:0002cb70       ??_EQComboBox@@W7AEPAXI@Z  1002db70 f i databreakpointdialog.obj
 0001:0002cb80       ??0DataBreakpointDialogBase@@QAE@PAVQWidget@@PBD@Z 1002db80 f i databreakpointdialog.obj
 0001:0002cc70       ??_EDataBreakpointDialogBase@@W7AEPAXI@Z 1002dc70 f i databreakpointdialog.obj
 0001:0002cc80       ??_GDataBreakpointDialogBase@@UAEPAXI@Z 1002dc80 f i databreakpointdialog.obj
 0001:0002cc80       ??_EDataBreakpointDialogBase@@UAEPAXI@Z 1002dc80 f i databreakpointdialog.obj
 0001:0002cca0       ??0DataBreakpointDialog@@QAE@PAVSymbolListBase@@PAVQWidget@@@Z 1002dca0 f   databreakpointdialog.obj
 0001:0002cd30       ??1DataBreakpointDialog@@UAE@XZ 1002dd30 f i databreakpointdialog.obj
 0001:0002cd40       ??_EDataBreakpointDialog@@W7AEPAXI@Z 1002dd40 f i databreakpointdialog.obj
 0001:0002cd50       ??_EDataBreakpointDialog@@UAEPAXI@Z 1002dd50 f i databreakpointdialog.obj
 0001:0002cd50       ??_GDataBreakpointDialog@@UAEPAXI@Z 1002dd50 f i databreakpointdialog.obj
 0001:0002cd70       ?accept@DataBreakpointDialog@@EAEXXZ 1002dd70 f   databreakpointdialog.obj
 0001:0002d080       ??7?$Basic@VDataBreakpointRegisterConfiguration@@@QtSharedPointer@@QBE_NXZ 1002e080 f i databreakpointdialog.obj
 0001:0002d090       ??C?$Basic@VDataBreakpointRegisterConfiguration@@@QtSharedPointer@@QBEPAVDataBreakpointRegisterConfiguration@@XZ 1002e090 f i databreakpointdialog.obj
 0001:0002d0a0       ?internalConstruct@?$ExternalRefCount@VDataBreakpointRegisterConfiguration@@@QtSharedPointer@@IAEXPAVDataBreakpointRegisterConfiguration@@@Z 1002e0a0 f i databreakpointdialog.obj
 0001:0002d0e0       ??0?$ExternalRefCount@VDataBreakpointRegisterConfiguration@@@QtSharedPointer@@IAE@XZ 1002e0e0 f i databreakpointdialog.obj
 0001:0002d0f0       ??0?$ExternalRefCount@VDataBreakpointRegisterConfiguration@@@QtSharedPointer@@IAE@ABV01@@Z 1002e0f0 f i databreakpointdialog.obj
 0001:0002d130       ?internalDestroy@?$ExternalRefCount@VDataBreakpointRegisterConfiguration@@@QtSharedPointer@@IAEXXZ 1002e130 f i databreakpointdialog.obj
 0001:0002d150       ?deref@?$ExternalRefCount@VDataBreakpointRegisterConfiguration@@@QtSharedPointer@@IAE_NXZ 1002e150 f i databreakpointdialog.obj
 0001:0002d1a0       ?internalSet@?$ExternalRefCount@VDataBreakpointRegisterConfiguration@@@QtSharedPointer@@QAEXPAUExternalRefCountData@2@PAVDataBreakpointRegisterConfiguration@@@Z 1002e1a0 f i databreakpointdialog.obj
 0001:0002d220       ??1?$ExternalRefCount@VDataBreakpointRegisterConfiguration@@@QtSharedPointer@@IAE@XZ 1002e220 f i databreakpointdialog.obj
 0001:0002d270       ??$internalCopy@VDataBreakpointRegisterConfiguration@@@?$ExternalRefCount@VDataBreakpointRegisterConfiguration@@@QtSharedPointer@@IAEXABV01@@Z 1002e270 f i databreakpointdialog.obj
 0001:0002d290       ??1?$QSharedPointer@VDataBreakpointRegisterConfiguration@@@@QAE@XZ 1002e290 f i databreakpointdialog.obj
 0001:0002d2a0       ?setupDlgControls@DataBreakpointDialog@@AAEXV?$QSharedPointer@VDataBreakpointRegisterConfiguration@@@@_NQBVQString@@I@Z 1002e2a0 f   databreakpointdialog.obj
 0001:0002d5b0       ??0?$QSharedPointer@VDataBreakpointRegisterConfiguration@@@@QAE@PAVDataBreakpointRegisterConfiguration@@@Z 1002e5b0 f i databreakpointdialog.obj
 0001:0002d620       ??0?$QSharedPointer@VDataBreakpointRegisterConfiguration@@@@QAE@ABV0@@Z 1002e620 f i databreakpointdialog.obj
 0001:0002d660       ??4?$QSharedPointer@VDataBreakpointRegisterConfiguration@@@@QAEAAV0@ABV0@@Z 1002e660 f i databreakpointdialog.obj
 0001:0002d680       ?loadConfiguration@DataBreakpointDialog@@QAEXV?$QSharedPointer@VDataBreakpointRegisterConfiguration@@@@QBVQString@@I@Z 1002e680 f   databreakpointdialog.obj
 0001:0002d8b0       ?getConfiguration@DataBreakpointDialog@@QBE?AV?$QSharedPointer@VDataBreakpointRegisterConfiguration@@@@XZ 1002e8b0 f   databreakpointdialog.obj
 0001:0002d9b0       ?qHash@@YAIH@Z             1002e9b0 f i debugbehaviour.obj
 0001:0002d9c0       ??1DebugOption@@QAE@XZ     1002e9c0 f i debugbehaviour.obj
 0001:0002d9d0       ?lookup@DebugBehaviour@@AAEPBUDebugOption@@ABV?$basic_string@DU?$char_traits@D@std@@V?$allocator@D@2@@std@@@Z 1002e9d0 f   debugbehaviour.obj
 0001:0002da10       ?lookupValue@DebugBehaviour@@AAEHABV?$basic_string@DU?$char_traits@D@std@@V?$allocator@D@2@@std@@PBUDebugOption@@@Z 1002ea10 f   debugbehaviour.obj
 0001:0002da70       ??0?$QHash@W4DebugOptionE@@H@@QAE@XZ 1002ea70 f i debugbehaviour.obj
 0001:0002da90       ?deleteNode@?$QHash@W4DebugOptionE@@H@@AAEXPAU?$QHashNode@W4DebugOptionE@@H@@@Z 1002ea90 f i debugbehaviour.obj
 0001:0002daa0       ??0?$QHashNode@W4DebugOptionE@@H@@QAE@ABW4DebugOptionE@@ABH@Z 1002eaa0 f i debugbehaviour.obj
 0001:0002dac0       ?same_key@?$QHashNode@W4DebugOptionE@@H@@QAE_NIABW4DebugOptionE@@@Z 1002eac0 f i debugbehaviour.obj
 0001:0002daf0       ??0?$QHashDummyNode@W4DebugOptionE@@H@@QAE@ABW4DebugOptionE@@@Z 1002eaf0 f i debugbehaviour.obj
 0001:0002db00       ?concrete@?$QHash@W4DebugOptionE@@H@@CAPAU?$QHashNode@W4DebugOptionE@@H@@PAUNode@QHashData@@@Z 1002eb00 f i debugbehaviour.obj
 0001:0002db10       ?freeData@?$QHash@W4DebugOptionE@@H@@AAEXPAUQHashData@@@Z 1002eb10 f i debugbehaviour.obj
 0001:0002db60       ?findNode@?$QHash@W4DebugOptionE@@H@@ABEPAPAU?$QHashNode@W4DebugOptionE@@H@@ABW4DebugOptionE@@PAI@Z 1002eb60 f i debugbehaviour.obj
 0001:0002dbb0       ?createNode@?$QHash@W4DebugOptionE@@H@@AAEPAU?$QHashNode@W4DebugOptionE@@H@@IABW4DebugOptionE@@ABHPAPAU2@@Z 1002ebb0 f i debugbehaviour.obj
 0001:0002dbf0       ?duplicateNode@?$QHash@W4DebugOptionE@@H@@CAXPAUNode@QHashData@@PAX@Z 1002ebf0 f i debugbehaviour.obj
 0001:0002dc10       ??1?$QHash@W4DebugOptionE@@H@@QAE@XZ 1002ec10 f i debugbehaviour.obj
 0001:0002dc30       ?contains@?$QHash@W4DebugOptionE@@H@@QBE_NABW4DebugOptionE@@@Z 1002ec30 f i debugbehaviour.obj
 0001:0002dc80       ?detach_helper@?$QHash@W4DebugOptionE@@H@@AAEXXZ 1002ec80 f i debugbehaviour.obj
 0001:0002dcc0       ??1DebugBehaviour@@QAE@XZ  1002ecc0 f   debugbehaviour.obj
 0001:0002dce0       ?detach@?$QHash@W4DebugOptionE@@H@@QAEXXZ 1002ece0 f i debugbehaviour.obj
 0001:0002dd20       ??A?$QHash@W4DebugOptionE@@H@@QAEAAHABW4DebugOptionE@@@Z 1002ed20 f i debugbehaviour.obj
 0001:0002dde0       ?setValue@DebugBehaviour@@QAE_NABV?$basic_string@DU?$char_traits@D@std@@V?$allocator@D@2@@std@@0@Z 1002ede0 f   debugbehaviour.obj
 0001:0002de30       ?getValue@DebugBehaviour@@QAEHW4DebugOptionE@@@Z 1002ee30 f   debugbehaviour.obj
 0001:0002de60       ?getValue@DebugBehaviour@@QAEHABVQString@@@Z 1002ee60 f   debugbehaviour.obj
 0001:0002df20       ?restore@DebugBehaviour@@QAEXXZ 1002ef20 f   debugbehaviour.obj
 0001:0002df60       ??0DebugBehaviour@@QAE@XZ  1002ef60 f   debugbehaviour.obj
 0001:0002dfc0       ?hasDebugType@DebugRecordDetector@@QBE_NW4DebugType@1@@Z 1002efc0 f   debugrecorddetector.obj
 0001:0002dfe0       ??1DebugRecordDetector@@UAE@XZ 1002efe0 f   debugrecorddetector.obj
 0001:0002e030       ??_EDebugRecordDetector@@UAEPAXI@Z 1002f030 f i debugrecorddetector.obj
 0001:0002e030       ??_GDebugRecordDetector@@UAEPAXI@Z 1002f030 f i debugrecorddetector.obj
 0001:0002e090       ?idents@DebugRecordDetector@@QBE?AVQStringList@@XZ 1002f090 f   debugrecorddetector.obj
 0001:0002e0d0       ?processElf@DebugRecordDetector@@AAE_NPAUElf@@@Z 1002f0d0 f   debugrecorddetector.obj
 0001:0002e3a0       ?load@DebugRecordDetector@@AAE_NABVQString@@@Z 1002f3a0 f   debugrecorddetector.obj
 0001:0002e490       ??0DebugRecordDetector@@QAE@ABVQString@@@Z 1002f490 f   debugrecorddetector.obj
 0001:0002e4f0       ?isDebuggerPresent@@YA_NXZ 1002f4f0 f   debugservices.obj
 0001:0002e530       ?debugPrint@@YAXPBDZZ      1002f530 f   debugservices.obj
 0001:0002e5c0       ?simpleProfStart@@YAXXZ    1002f5c0 f   debugservices.obj
 0001:0002e5d0       ?simpleProfEnd@@YAXPBD@Z   1002f5d0 f   debugservices.obj
 0001:0002e5f0       ??0?$QFlags@W4WindowType@Qt@@@@QAE@ABV0@@Z 1002f5f0 f i debugservices.obj
 0001:0002e600       ??0?$QFlags@W4WindowType@Qt@@@@QAE@W4WindowType@Qt@@@Z 1002f600 f i debugservices.obj
 0001:0002e610       ??0?$QFlags@W4StandardButton@QMessageBox@@@@QAE@PAPAX@Z 1002f610 f i debugservices.obj
 0001:0002e620       ?_warn@@YAXPBD0ZZ          1002f620 f   debugservices.obj
 0001:0002e680       ??U?$QFlags@W4WindowType@Qt@@@@QBE?AV0@W4WindowType@Qt@@@Z 1002f680 f i debugservices.obj
 0001:0002e690       ??U@YA?AV?$QFlags@W4WindowType@Qt@@@@W4WindowType@Qt@@0@Z 1002f690 f i debugservices.obj
 0001:0002e6a0       ?_assertOrDie@@YA_NPBD0H@Z 1002f6a0 f   debugservices.obj
 0001:0002e8f0       ??0SourceLine@SourceSymbols@@QAE@XZ 1002f8f0 f i disassemblerbase.obj
 0001:0002e910       ??1SourceLine@SourceSymbols@@QAE@XZ 1002f910 f i disassemblerbase.obj
 0001:0002e930       ?setSourceSymbols@DisassemblerBase@@QAEXPAVSourceSymbols@@@Z 1002f930 f   disassemblerbase.obj
 0001:0002e940       ?setBasePath@DisassemblerBase@@QAEXABVQString@@@Z 1002f940 f   disassemblerbase.obj
 0001:0002e950       ?clear@DisassemblerBase@@QAEXXZ 1002f950 f   disassemblerbase.obj
 0001:0002e9b0       ??4SourceLine@SourceSymbols@@QAEAAU01@ABU01@@Z 1002f9b0 f i disassemblerbase.obj
 0001:0002e9d0       ?disassembleSingle@DisassemblerBase@@QAE?AVQString@@I@Z 1002f9d0 f   disassemblerbase.obj
 0001:0002eca0       ?openFiles@DisassemblerBase@@QBEABVQStringList@@XZ 1002fca0 f   disassemblerbase.obj
 0001:0002ecb0       ?setExeLastModified@DisassemblerBase@@QAEXVQDateTime@@@Z 1002fcb0 f   disassemblerbase.obj
 0001:0002ed00       ?exeLastModified@DisassemblerBase@@QBE?AVQDateTime@@XZ 1002fd00 f   disassemblerbase.obj
 0001:0002ed30       ?instructionStartAddr@DisassemblerBase@@EAEII@Z 1002fd30 f   disassemblerbase.obj
 0001:0002ed40       ?currentBeginAddr@DisassemblerBase@@QBEIXZ 1002fd40 f   disassemblerbase.obj
 0001:0002ed50       ?advanceCurrentBeginAddr@DisassemblerBase@@QAEXI@Z 1002fd50 f   disassemblerbase.obj
 0001:0002ed60       ??0iterator@?$QList@VQString@@@@QAE@ABV01@@Z 1002fd60 f i disassemblerbase.obj
 0001:0002ed70       ??Yiterator@?$QList@VQString@@@@QAEAAV01@H@Z 1002fd70 f i disassemblerbase.obj
 0001:0002ed90       ??Ziterator@?$QList@VQString@@@@QAEAAV01@H@Z 1002fd90 f i disassemblerbase.obj
 0001:0002edb0       ??Hiterator@?$QList@VQString@@@@QBE?AV01@H@Z 1002fdb0 f i disassemblerbase.obj
 0001:0002edd0       ??Giterator@?$QList@VQString@@@@QBEHV01@@Z 1002fdd0 f i disassemblerbase.obj
 0001:0002ede0       ??0DisassemblerBase@@QAE@XZ 1002fde0 f   disassemblerbase.obj
 0001:0002ee80       ??1DisassemblerBase@@UAE@XZ 1002fe80 f   disassemblerbase.obj
 0001:0002ef60       ??Y?$QList@VQString@@@@QAEAAV0@ABV0@@Z 1002ff60 f i disassemblerbase.obj
 0001:0002efb0       ??6QStringList@@QAEAAV0@ABV0@@Z 1002ffb0 f i disassemblerbase.obj
 0001:0002f000       ??_GDisassemblerBase@@UAEPAXI@Z 10030000 f i disassemblerbase.obj
 0001:0002f000       ??_EDisassemblerBase@@UAEPAXI@Z 10030000 f i disassemblerbase.obj
 0001:0002f020       ?beginDisassembly@DisassemblerBase@@QAEXI_N0@Z 10030020 f   disassemblerbase.obj
 0001:0002f200       ?disassemblySourceLines@DisassemblerBase@@UAE?AVQStringList@@I@Z 10030200 f   disassemblerbase.obj
 0001:0002fb90       ?erase@?$QList@VQString@@@@QAE?AViterator@1@V21@0@Z 10030b90 f i disassemblerbase.obj
 0001:0002fc20       ?nextInstruction@DisassemblerBase@@QAE?AVQStringList@@PAI@Z 10030c20 f   disassemblerbase.obj
 0001:0002fe80       ??0DivisorSpinBox@@QAE@PAVQWidget@@@Z 10030e80 f   divisorspinbox.obj
 0001:0002ff00       ??_GDivisorData@@QAEPAXI@Z 10030f00 f i divisorspinbox.obj
 0001:0002ff20       ?divisor@DivisorSpinBox@@QBE?AUDivisorData@@XZ 10030f20 f   divisorspinbox.obj
 0001:0002ff60       ?stepBy@DivisorSpinBox@@UAEXH@Z 10030f60 f   divisorspinbox.obj
 0001:0002ff70       ?updateRange@DivisorSpinBox@@AAEXXZ 10030f70 f   divisorspinbox.obj
 0001:00030010       ?textFromValue@DivisorSpinBox@@MBE?AVQString@@H@Z 10031010 f   divisorspinbox.obj
 0001:000301f0       ?closestValue@DivisorSpinBox@@ABEHN@Z 100311f0 f   divisorspinbox.obj
 0001:00030270       ?valueFromText@DivisorSpinBox@@MBEHABVQString@@@Z 10031270 f   divisorspinbox.obj
 0001:00030470       ?validate@DivisorSpinBox@@MBE?AW4State@QValidator@@AAVQString@@AAH@Z 10031470 f   divisorspinbox.obj
 0001:00030700       ?changeDivisorValue@DivisorSpinBox@@AAEXH@Z 10031700 f   divisorspinbox.obj
 0001:00030710       ??0?$QFlags@W4StepEnabledFlag@QAbstractSpinBox@@@@QAE@ABV0@@Z 10031710 f i divisorspinbox.obj
 0001:00030720       ??0?$QFlags@W4StepEnabledFlag@QAbstractSpinBox@@@@QAE@W4StepEnabledFlag@QAbstractSpinBox@@@Z 10031720 f i divisorspinbox.obj
 0001:00030730       ??0?$QFlags@W4StepEnabledFlag@QAbstractSpinBox@@@@QAE@PAPAX@Z 10031730 f i divisorspinbox.obj
 0001:00030740       ??_5?$QFlags@W4StepEnabledFlag@QAbstractSpinBox@@@@QAEAAV0@W4StepEnabledFlag@QAbstractSpinBox@@@Z 10031740 f i divisorspinbox.obj
 0001:00030750       ??U?$QFlags@W4StepEnabledFlag@QAbstractSpinBox@@@@QBE?AV0@W4StepEnabledFlag@QAbstractSpinBox@@@Z 10031750 f i divisorspinbox.obj
 0001:00030760       ??_EDivisorSpinBox@@W7AEPAXI@Z 10031760 f i divisorspinbox.obj
 0001:00030770       ??U@YA?AV?$QFlags@W4StepEnabledFlag@QAbstractSpinBox@@@@W4StepEnabledFlag@QAbstractSpinBox@@0@Z 10031770 f i divisorspinbox.obj
 0001:00030780       ??1DivisorSpinBox@@UAE@XZ  10031780 f   divisorspinbox.obj
 0001:000307f0       ?setDivisorRange@DivisorSpinBox@@QAEXHHHH@Z 100317f0 f   divisorspinbox.obj
 0001:00030820       ?setDivisor@DivisorSpinBox@@QAEXABUDivisorData@@@Z 10031820 f   divisorspinbox.obj
 0001:00030860       ?stepEnabled@DivisorSpinBox@@MBE?AV?$QFlags@W4StepEnabledFlag@QAbstractSpinBox@@@@XZ 10031860 f   divisorspinbox.obj
 0001:000308c0       ??_GDivisorSpinBox@@UAEPAXI@Z 100318c0 f i divisorspinbox.obj
 0001:000308c0       ??_EDivisorSpinBox@@UAEPAXI@Z 100318c0 f i divisorspinbox.obj
 0001:000308e0       ??0DwarfHelperReporter@@QAE@XZ 100318e0 f i dwarfbuilder.obj
 0001:000308f0       ??1DwarfHelperReporter@@UAE@XZ 100318f0 f i dwarfbuilder.obj
 0001:00030900       ??_EDwarfHelperReporter@@UAEPAXI@Z 10031900 f i dwarfbuilder.obj
 0001:00030900       ??_GDwarfHelperReporter@@UAEPAXI@Z 10031900 f i dwarfbuilder.obj
 0001:00030920       ??0SourceCoord@@QAE@XZ     10031920 f i dwarfbuilder.obj
 0001:00030940       ??0SourceCoord@@QAE@VQString@@H@Z 10031940 f i dwarfbuilder.obj
 0001:000309b0       ?file@SourceCoord@@QBE?AVQString@@XZ 100319b0 f i dwarfbuilder.obj
 0001:000309d0       ?line@SourceCoord@@QBEHXZ  100319d0 f i dwarfbuilder.obj
 0001:000309e0       ??1SourceCoord@@QAE@XZ     100319e0 f i dwarfbuilder.obj
 0001:00030a00       ??8@YA_NABVSourceCoord@@0@Z 10031a00 f i dwarfbuilder.obj
 0001:00030ae0       ??0DwarfHelperBuilderReporter@@QAE@XZ 10031ae0 f i dwarfbuilder.obj
 0001:00030b10       ??1DwarfHelperBuilderReporter@@UAE@XZ 10031b10 f i dwarfbuilder.obj
 0001:00030b30       ??_EDwarfHelperBuilderReporter@@UAEPAXI@Z 10031b30 f i dwarfbuilder.obj
 0001:00030b30       ??_GDwarfHelperBuilderReporter@@UAEPAXI@Z 10031b30 f i dwarfbuilder.obj
 0001:00030b60       ?report@DwarfHelperBuilderReporter@@UAEXVQString@@_N@Z 10031b60 f   dwarfbuilder.obj
 0001:00030bd0       ?dataFinished@DwarfBuilder@@AAEXXZ 10031bd0 f   dwarfbuilder.obj
 0001:00030c10       ?makeLiteral@DwarfBuilder@@UAE?AVSymbol@@H@Z 10031c10 f   dwarfbuilder.obj
 0001:00030d30       ?setElfConsumer@DwarfBuilder@@QAEXPAVElfConsumer@@@Z 10031d30 f   dwarfbuilder.obj
 0001:00030d40       ?setStackFrameResolver@DwarfBuilder@@QAEXPAVDwarfStackFrameLocationResolver@@@Z 10031d40 f   dwarfbuilder.obj
 0001:00030d50       ?setAddressMask@DwarfBuilder@@QAEX_K@Z 10031d50 f   dwarfbuilder.obj
 0001:00030d70       ?setCodeAddressIndicator@DwarfBuilder@@QAEX_K0_N@Z 10031d70 f   dwarfbuilder.obj
 0001:00030da0       ?setEliminatedSectionIndicator@DwarfBuilder@@QAEX_K0_N@Z 10031da0 f   dwarfbuilder.obj
 0001:00030dd0       ?setUseCommonCompileDirectories@DwarfBuilder@@QAEX_N@Z 10031dd0 f   dwarfbuilder.obj
 0001:00030de0       ?setOctetsPerDataAddress@DwarfBuilder@@QAEXE@Z 10031de0 f   dwarfbuilder.obj
 0001:00030df0       ??4SourceCoord@@QAEAAV0@ABV0@@Z 10031df0 f i dwarfbuilder.obj
 0001:00030e10       ??0SourceCoord@@QAE@ABV0@@Z 10031e10 f i dwarfbuilder.obj
 0001:00030e30       ??0AddressRange@@QAE@ABV0@@Z 10031e30 f i dwarfbuilder.obj
 0001:00030e60       ?addSourceLineSymbol@DwarfBuilder@@AAEXABVQString@@HVAddressRange@@@Z 10031e60 f   dwarfbuilder.obj
 0001:00030ee0       ?estimateExtractFrameTableSteps@DwarfBuilder@@AAE_NPAVDwarfHelper@@PAH@Z 10031ee0 f   dwarfbuilder.obj
 0001:00030f90       ?isEmpty@?$QList@VLocation@@@@QBE_NXZ 10031f90 f i dwarfbuilder.obj
 0001:00030fa0       ??0?$QMap@VQString@@VSymbol@@@@QAE@XZ 10031fa0 f i dwarfbuilder.obj
 0001:00030fc0       ??0?$QList@PAVSymbolContext@@@@QAE@XZ 10031fc0 f i dwarfbuilder.obj
 0001:00030fe0       ?size@?$QList@PAVSymbolContext@@@@QBEHXZ 10031fe0 f i dwarfbuilder.obj
 0001:00030ff0       ??0?$QMap@HVLocation@@@@QAE@XZ 10031ff0 f i dwarfbuilder.obj
 0001:00031010       ??0?$QMap@VSourceCoord@@VAddressRange@@@@QAE@XZ 10032010 f i dwarfbuilder.obj
 0001:00031030       ??0?$QHash@VQString@@VSymbol@@@@QAE@XZ 10032030 f i dwarfbuilder.obj
 0001:00031050       ??0const_iterator@?$QHash@VQString@@VSymbol@@@@QAE@XZ 10032050 f i dwarfbuilder.obj
 0001:00031060       ??9const_iterator@?$QHash@VQString@@VSymbol@@@@QBE_NABV01@@Z 10032060 f i dwarfbuilder.obj
 0001:00031080       ??Econst_iterator@?$QHash@VQString@@VSymbol@@@@QAE?AV01@H@Z 10032080 f i dwarfbuilder.obj
 0001:000310a0       ??0iterator@?$QList@PAPAUDwarf_Line_s@@@@QAE@XZ 100320a0 f i dwarfbuilder.obj
 0001:000310b0       ??9iterator@?$QList@PAPAUDwarf_Line_s@@@@QBE_NABV01@@Z 100320b0 f i dwarfbuilder.obj
 0001:000310d0       ??Eiterator@?$QList@PAPAUDwarf_Line_s@@@@QAEAAV01@XZ 100320d0 f i dwarfbuilder.obj
 0001:000310e0       ??9iterator@?$QMap@VSourceCoord@@VAddressRange@@@@QBE_NABV01@@Z 100320e0 f i dwarfbuilder.obj
 0001:00031100       ??0const_iterator@?$QMap@VSourceCoord@@VAddressRange@@@@QAE@ABViterator@1@@Z 10032100 f i dwarfbuilder.obj
 0001:00031110       ??8const_iterator@?$QMap@VSourceCoord@@VAddressRange@@@@QBE_NABV01@@Z 10032110 f i dwarfbuilder.obj
 0001:00031130       ??9const_iterator@?$QMap@VSourceCoord@@VAddressRange@@@@QBE_NABV01@@Z 10032130 f i dwarfbuilder.obj
 0001:00031150       ??Econst_iterator@?$QMap@VSourceCoord@@VAddressRange@@@@QAEAAV01@XZ 10032150 f i dwarfbuilder.obj
 0001:00031160       ??Econst_iterator@?$QList@PAVSymbolContext@@@@QAEAAV01@XZ 10032160 f i dwarfbuilder.obj
 0001:00031170       ?size@?$QList@U?$QPair@_K_K@@@@QBEHXZ 10032170 f i dwarfbuilder.obj
 0001:00031180       ??0?$QPair@_K_K@@QAE@XZ    10032180 f i dwarfbuilder.obj
 0001:00031190       ??4?$QPair@_K_K@@QAEAAU0@ABU0@@Z 10032190 f i dwarfbuilder.obj
 0001:000311b0       ??0const_iterator@?$QList@U?$QPair@_K_K@@@@QAE@XZ 100321b0 f i dwarfbuilder.obj
 0001:000311c0       ??9const_iterator@?$QList@U?$QPair@_K_K@@@@QBE_NABV01@@Z 100321c0 f i dwarfbuilder.obj
 0001:000311e0       ??Econst_iterator@?$QList@U?$QPair@_K_K@@@@QAEAAV01@XZ 100321e0 f i dwarfbuilder.obj
 0001:000311f0       ??9const_iterator@?$QMap@HVLocation@@@@QBE_NABV01@@Z 100321f0 f i dwarfbuilder.obj
 0001:00031210       ??Econst_iterator@?$QMap@HVLocation@@@@QAEAAV01@XZ 10032210 f i dwarfbuilder.obj
 0001:00031220       ?concrete@?$QHash@VQString@@VSymbol@@@@CAPAU?$QHashNode@VQString@@VSymbol@@@@PAUNode@QHashData@@@Z 10032220 f i dwarfbuilder.obj
 0001:00031230       ??0const_iterator@?$QHash@VQString@@VSymbol@@@@QAE@PAX@Z 10032230 f i dwarfbuilder.obj
 0001:00031240       ??0iterator@?$QList@PAPAUDwarf_Line_s@@@@QAE@PAUNode@1@@Z 10032240 f i dwarfbuilder.obj
 0001:00031250       ??0iterator@?$QMap@VSourceCoord@@VAddressRange@@@@QAE@PAUNode@QMapData@@@Z 10032250 f i dwarfbuilder.obj
 0001:00031260       ??Fconst_iterator@?$QMap@VSourceCoord@@VAddressRange@@@@QAEAAV01@XZ 10032260 f i dwarfbuilder.obj
 0001:00031270       ??9const_iterator@?$QList@PAVSymbolContext@@@@QBE_NABV01@@Z 10032270 f i dwarfbuilder.obj
 0001:00031290       ??0const_iterator@?$QList@U?$QPair@_K_K@@@@QAE@PAUNode@1@@Z 10032290 f i dwarfbuilder.obj
 0001:000312a0       ??0const_iterator@?$QMap@HVLocation@@@@QAE@PAUNode@QMapData@@@Z 100322a0 f i dwarfbuilder.obj
 0001:000312b0       ?t@Node@?$QList@PAPAUDwarf_Line_s@@@@QAEAAPAPAUDwarf_Line_s@@XZ 100322b0 f i dwarfbuilder.obj
 0001:000312c0       ?t@Node@?$QList@PAVSymbolContext@@@@QAEAAPAVSymbolContext@@XZ 100322c0 f i dwarfbuilder.obj
 0001:000312d0       ?t@Node@?$QList@U?$QPair@_K_K@@@@QAEAAU?$QPair@_K_K@@XZ 100322d0 f i dwarfbuilder.obj
 0001:000312e0       ?payload@?$QMap@HVLocation@@@@CAHXZ 100322e0 f i dwarfbuilder.obj
 0001:000312f0       ?payload@?$QMap@VSourceCoord@@VAddressRange@@@@CAHXZ 100322f0 f i dwarfbuilder.obj
 0001:00031300       ??0const_iterator@?$QList@PAVSymbolContext@@@@QAE@PAUNode@1@@Z 10032300 f i dwarfbuilder.obj
 0001:00031310       ??0iterator@?$QList@VLocation@@@@QAE@PAUNode@1@@Z 10032310 f i dwarfbuilder.obj
 0001:00031320       ??0iterator@?$QList@PAVSymbolContext@@@@QAE@PAUNode@1@@Z 10032320 f i dwarfbuilder.obj
 0001:00031330       ??0iterator@?$QList@U?$QPair@_K_K@@@@QAE@PAUNode@1@@Z 10032330 f i dwarfbuilder.obj
 0001:00031340       ?t@Node@?$QList@VLocation@@@@QAEAAVLocation@@XZ 10032340 f i dwarfbuilder.obj
 0001:00031350       ??$qForeachPointer@V?$QList@VQString@@@@@@YAPAV?$QList@VQString@@@@ABV0@@Z 10032350 f i dwarfbuilder.obj
 0001:00031360       ??$qForeachContainer@V?$QList@VQString@@@@@@YAPBV?$QForeachContainer@V?$QList@VQString@@@@@@PBUQForeachContainerBase@@PBV?$QList@VQString@@@@@Z 10032360 f i dwarfbuilder.obj
 0001:00031370       ??$qForeachPointer@V?$QList@PAVSymbolContext@@@@@@YAPAV?$QList@PAVSymbolContext@@@@ABV0@@Z 10032370 f i dwarfbuilder.obj
 0001:00031380       ??$qForeachContainer@V?$QList@PAVSymbolContext@@@@@@YAPBV?$QForeachContainer@V?$QList@PAVSymbolContext@@@@@@PBUQForeachContainerBase@@PBV?$QList@PAVSymbolContext@@@@@Z 10032380 f i dwarfbuilder.obj
 0001:00031390       ??$qForeachPointer@V?$QList@U?$QPair@_K_K@@@@@@YAPAV?$QList@U?$QPair@_K_K@@@@ABV0@@Z 10032390 f i dwarfbuilder.obj
 0001:000313a0       ??$qForeachContainer@V?$QList@U?$QPair@_K_K@@@@@@YAPBV?$QForeachContainer@V?$QList@U?$QPair@_K_K@@@@@@PBUQForeachContainerBase@@PBV?$QList@U?$QPair@_K_K@@@@@Z 100323a0 f i dwarfbuilder.obj
 0001:000313b0       ??4AddressRange@@QAEAAV0@ABV0@@Z 100323b0 f i dwarfbuilder.obj
 0001:000313d0       ??_GSourceCoord@@QAEPAXI@Z 100323d0 f i dwarfbuilder.obj
 0001:00031400       ?payload@?$QMap@VQString@@VSymbol@@@@CAHXZ 10032400 f i dwarfbuilder.obj
 0001:00031410       ?concrete@?$QMap@VQString@@VSymbol@@@@CAPAU?$QMapNode@VQString@@VSymbol@@@@PAUNode@QMapData@@@Z 10032410 f i dwarfbuilder.obj
 0001:00031420       ?end@?$QList@PAVSymbolContext@@@@QBE?AVconst_iterator@1@XZ 10032420 f i dwarfbuilder.obj
 0001:00031440       ??0iterator@?$QHash@VQString@@VSymbol@@@@QAE@PAX@Z 10032440 f i dwarfbuilder.obj
 0001:00031450       ?begin@?$QList@U?$QPair@_K_K@@@@QBE?AVconst_iterator@1@XZ 10032450 f i dwarfbuilder.obj
 0001:00031470       ?end@?$QList@U?$QPair@_K_K@@@@QBE?AVconst_iterator@1@XZ 10032470 f i dwarfbuilder.obj
 0001:00031490       ?node_construct@?$QList@PAVSymbolContext@@@@AAEXPAUNode@1@ABQAVSymbolContext@@@Z 10032490 f i dwarfbuilder.obj
 0001:000314a0       ?node_copy@?$QList@PAVSymbolContext@@@@AAEXPAUNode@1@00@Z 100324a0 f i dwarfbuilder.obj
 0001:000314b0       ?node_copy@?$QList@PAPAUDwarf_Line_s@@@@AAEXPAUNode@1@00@Z 100324b0 f i dwarfbuilder.obj
 0001:000314c0       ?node_copy@?$QList@U?$QPair@_K_K@@@@AAEXPAUNode@1@00@Z 100324c0 f i dwarfbuilder.obj
 0001:00031510       ??1?$QHashNode@VQString@@VSymbol@@@@QAE@XZ 10032510 f i dwarfbuilder.obj
 0001:00031570       ?same_key@?$QHashNode@VQString@@VSymbol@@@@QAE_NIABVQString@@@Z 10032570 f i dwarfbuilder.obj
 0001:000315a0       ??0?$QHashDummyNode@VQString@@VSymbol@@@@QAE@ABVQString@@@Z 100325a0 f i dwarfbuilder.obj
 0001:000315c0       ?node_destruct@?$QList@PAVSymbolContext@@@@AAEXPAUNode@1@0@Z 100325c0 f i dwarfbuilder.obj
 0001:000315d0       ?node_destruct@?$QList@PAPAUDwarf_Line_s@@@@AAEXPAUNode@1@0@Z 100325d0 f i dwarfbuilder.obj
 0001:000315e0       ?node_destruct@?$QList@U?$QPair@_K_K@@@@AAEXPAUNode@1@0@Z 100325e0 f i dwarfbuilder.obj
 0001:00031610       ??_EDwarfHelperBuilderReporter@@W7AEPAXI@Z 10032610 f i dwarfbuilder.obj
 0001:00031620       ??M@YA_NVSourceCoord@@0@Z  10032620 f i dwarfbuilder.obj
 0001:000317d0       ?dataProcessed@DwarfBuilder@@AAE_NXZ 100327d0 f   dwarfbuilder.obj
 0001:00031890       ?constBegin@?$QMap@HVLocation@@@@QBE?AVconst_iterator@1@XZ 10032890 f i dwarfbuilder.obj
 0001:000318a0       ?constEnd@?$QMap@HVLocation@@@@QBE?AVconst_iterator@1@XZ 100328a0 f i dwarfbuilder.obj
 0001:000318b0       ?constBegin@?$QHash@VQString@@VSymbol@@@@QBE?AVconst_iterator@1@XZ 100328b0 f i dwarfbuilder.obj
 0001:000318e0       ?constEnd@?$QHash@VQString@@VSymbol@@@@QBE?AVconst_iterator@1@XZ 100328e0 f i dwarfbuilder.obj
 0001:000318f0       ?condition@?$QForeachContainer@V?$QList@VQString@@@@@@QBE_NXZ 100328f0 f i dwarfbuilder.obj
 0001:00031910       ?key@const_iterator@?$QHash@VQString@@VSymbol@@@@QBEABVQString@@XZ 10032910 f i dwarfbuilder.obj
 0001:00031920       ?value@const_iterator@?$QHash@VQString@@VSymbol@@@@QBEABVSymbol@@XZ 10032920 f i dwarfbuilder.obj
 0001:00031930       ??Diterator@?$QList@PAPAUDwarf_Line_s@@@@QBEAAPAPAUDwarf_Line_s@@XZ 10032930 f i dwarfbuilder.obj
 0001:00031940       ??Hconst_iterator@?$QMap@VSourceCoord@@VAddressRange@@@@QBE?AV01@H@Z 10032940 f i dwarfbuilder.obj
 0001:00031970       ?condition@?$QForeachContainer@V?$QList@PAVSymbolContext@@@@@@QBE_NXZ 10032970 f i dwarfbuilder.obj
 0001:00031990       ??Dconst_iterator@?$QList@PAVSymbolContext@@@@QBEABQAVSymbolContext@@XZ 10032990 f i dwarfbuilder.obj
 0001:000319a0       ?constBegin@?$QList@U?$QPair@_K_K@@@@QBE?AVconst_iterator@1@XZ 100329a0 f i dwarfbuilder.obj
 0001:000319c0       ?constEnd@?$QList@U?$QPair@_K_K@@@@QBE?AVconst_iterator@1@XZ 100329c0 f i dwarfbuilder.obj
 0001:000319e0       ?condition@?$QForeachContainer@V?$QList@U?$QPair@_K_K@@@@@@QBE_NXZ 100329e0 f i dwarfbuilder.obj
 0001:00031a00       ??Dconst_iterator@?$QList@U?$QPair@_K_K@@@@QBEABU?$QPair@_K_K@@XZ 10032a00 f i dwarfbuilder.obj
 0001:00031a10       ?begin@?$QList@PAVSymbolContext@@@@QBE?AVconst_iterator@1@XZ 10032a10 f i dwarfbuilder.obj
 0001:00031a30       ?concrete@?$QMap@HVLocation@@@@CAPAU?$QMapNode@HVLocation@@@@PAUNode@QMapData@@@Z 10032a30 f i dwarfbuilder.obj
 0001:00031a40       ?concrete@?$QMap@VSourceCoord@@VAddressRange@@@@CAPAU?$QMapNode@VSourceCoord@@VAddressRange@@@@PAUNode@QMapData@@@Z 10032a40 f i dwarfbuilder.obj
 0001:00031a50       ??Diterator@?$QList@VLocation@@@@QBEAAVLocation@@XZ 10032a50 f i dwarfbuilder.obj
 0001:00031a60       ??Diterator@?$QList@PAVSymbolContext@@@@QBEAAPAVSymbolContext@@XZ 10032a60 f i dwarfbuilder.obj
 0001:00031a70       ??Diterator@?$QList@U?$QPair@_K_K@@@@QBEAAU?$QPair@_K_K@@XZ 10032a70 f i dwarfbuilder.obj
 0001:00031a80       ?freeData@?$QMap@VQString@@VSymbol@@@@AAEXPAUQMapData@@@Z 10032a80 f i dwarfbuilder.obj
 0001:00031ad0       ?freeData@?$QMap@HVLocation@@@@AAEXPAUQMapData@@@Z 10032ad0 f i dwarfbuilder.obj
 0001:00031b10       ?freeData@?$QMap@VSourceCoord@@VAddressRange@@@@AAEXPAUQMapData@@@Z 10032b10 f i dwarfbuilder.obj
 0001:00031b60       ?findNode@?$QMap@VQString@@VSymbol@@@@ABEPAUNode@QMapData@@ABVQString@@@Z 10032b60 f i dwarfbuilder.obj
 0001:00031bd0       ?free@?$QList@PAVSymbolContext@@@@AAEXPAUData@QListData@@@Z 10032bd0 f i dwarfbuilder.obj
 0001:00031bf0       ?node_create@?$QMap@VSourceCoord@@VAddressRange@@@@AAEPAUNode@QMapData@@PAU3@QAPAU23@ABVSourceCoord@@ABVAddressRange@@@Z 10032bf0 f i dwarfbuilder.obj
 0001:00031c80       ?findNode@?$QHash@VQString@@VSymbol@@@@ABEPAPAU?$QHashNode@VQString@@VSymbol@@@@ABVQString@@PAI@Z 10032c80 f i dwarfbuilder.obj
 0001:00031cf0       ??$qDeleteAll@Vconst_iterator@?$QList@PAVSymbolContext@@@@@@YAXVconst_iterator@?$QList@PAVSymbolContext@@@@0@Z 10032cf0 f i dwarfbuilder.obj
 0001:00031d20       ?free@?$QList@PAPAUDwarf_Line_s@@@@AAEXPAUData@QListData@@@Z 10032d20 f i dwarfbuilder.obj
 0001:00031d40       ?free@?$QList@U?$QPair@_K_K@@@@AAEXPAUData@QListData@@@Z 10032d40 f i dwarfbuilder.obj
 0001:00031d90       ??_G?$QHashNode@VQString@@VSymbol@@@@QAEPAXI@Z 10032d90 f i dwarfbuilder.obj
 0001:00031db0       ??$qMapLessThanKey@VSourceCoord@@@@YA_NABVSourceCoord@@0@Z 10032db0 f i dwarfbuilder.obj
 0001:00031e30       ??1?$QMap@VQString@@VSymbol@@@@QAE@XZ 10032e30 f i dwarfbuilder.obj
 0001:00031e50       ?first@?$QList@PAVSymbolContext@@@@QBEABQAVSymbolContext@@XZ 10032e50 f i dwarfbuilder.obj
 0001:00031e60       ??1?$QMap@HVLocation@@@@QAE@XZ 10032e60 f i dwarfbuilder.obj
 0001:00031e80       ??1?$QMap@VSourceCoord@@VAddressRange@@@@QAE@XZ 10032e80 f i dwarfbuilder.obj
 0001:00031ea0       ?key@const_iterator@?$QMap@VSourceCoord@@VAddressRange@@@@QBEABVSourceCoord@@XZ 10032ea0 f i dwarfbuilder.obj
 0001:00031eb0       ?value@const_iterator@?$QMap@VSourceCoord@@VAddressRange@@@@QBEABVAddressRange@@XZ 10032eb0 f i dwarfbuilder.obj
 0001:00031ec0       ?key@const_iterator@?$QMap@HVLocation@@@@QBEABHXZ 10032ec0 f i dwarfbuilder.obj
 0001:00031ed0       ?value@const_iterator@?$QMap@HVLocation@@@@QBEABVLocation@@XZ 10032ed0 f i dwarfbuilder.obj
 0001:00031ee0       ?contains@?$QMap@VQString@@VSymbol@@@@QBE_NABVQString@@@Z 10032ee0 f i dwarfbuilder.obj
 0001:00031f00       ??1?$QList@PAVSymbolContext@@@@QAE@XZ 10032f00 f i dwarfbuilder.obj
 0001:00031f20       ?detach_helper@?$QList@PAVSymbolContext@@@@AAEXXZ 10032f20 f i dwarfbuilder.obj
 0001:00031f40       ?detach_helper@?$QMap@VSourceCoord@@VAddressRange@@@@AAEXXZ 10032f40 f i dwarfbuilder.obj
 0001:00031fc0       ?contains@?$QHash@VQString@@VSymbol@@@@QBE_NABVQString@@@Z 10032fc0 f i dwarfbuilder.obj
 0001:00031fe0       ??$qDeleteAll@V?$QList@PAVSymbolContext@@@@@@YAXABV?$QList@PAVSymbolContext@@@@@Z 10032fe0 f i dwarfbuilder.obj
 0001:00032010       ??1?$QList@PAPAUDwarf_Line_s@@@@QAE@XZ 10033010 f i dwarfbuilder.obj
 0001:00032030       ?detach_helper@?$QList@PAPAUDwarf_Line_s@@@@AAEXXZ 10033030 f i dwarfbuilder.obj
 0001:00032050       ??1?$QList@U?$QPair@_K_K@@@@QAE@XZ 10033050 f i dwarfbuilder.obj
 0001:00032070       ?detach_helper@?$QList@U?$QPair@_K_K@@@@AAEXXZ 10033070 f i dwarfbuilder.obj
 0001:000320c0       ??0?$QList@U?$QPair@_K_K@@@@QAE@ABV0@@Z 100330c0 f i dwarfbuilder.obj
 0001:000320f0       ??4?$QMap@VSourceCoord@@VAddressRange@@@@QAEAAV0@ABV0@@Z 100330f0 f i dwarfbuilder.obj
 0001:00032140       ?findNode@?$QMap@VSourceCoord@@VAddressRange@@@@ABEPAUNode@QMapData@@ABVSourceCoord@@@Z 10033140 f i dwarfbuilder.obj
 0001:000321b0       ?mutableFindNode@?$QMap@VSourceCoord@@VAddressRange@@@@ABEPAUNode@QMapData@@QAPAU23@ABVSourceCoord@@@Z 100331b0 f i dwarfbuilder.obj
 0001:00032230       ?deleteNode@?$QHash@VQString@@VSymbol@@@@AAEXPAU?$QHashNode@VQString@@VSymbol@@@@@Z 10033230 f i dwarfbuilder.obj
 0001:00032250       ??1?$QForeachContainer@V?$QList@VQString@@@@@@QAE@XZ 10033250 f i dwarfbuilder.obj
 0001:00032290       ?globalContext@DwarfBuilder@@ABEPAVSymbolContext@@XZ 10033290 f   dwarfbuilder.obj
 0001:000322a0       ??1?$QForeachContainer@V?$QList@PAVSymbolContext@@@@@@QAE@XZ 100332a0 f i dwarfbuilder.obj
 0001:000322c0       ??1?$QForeachContainer@V?$QList@U?$QPair@_K_K@@@@@@QAE@XZ 100332c0 f i dwarfbuilder.obj
 0001:000322e0       ??0?$QList@PAVSymbolContext@@@@QAE@ABV0@@Z 100332e0 f i dwarfbuilder.obj
 0001:00032330       ?detach@?$QMap@VSourceCoord@@VAddressRange@@@@QAEXXZ 10033330 f i dwarfbuilder.obj
 0001:00032350       ?detach@?$QList@PAPAUDwarf_Line_s@@@@QAEXXZ 10033350 f i dwarfbuilder.obj
 0001:00032380       ?detach@?$QList@PAVSymbolContext@@@@QAEXXZ 10033380 f i dwarfbuilder.obj
 0001:000323b0       ?detach@?$QList@U?$QPair@_K_K@@@@QAEXXZ 100333b0 f i dwarfbuilder.obj
 0001:000323c0       ??4?$QList@PAVSymbolContext@@@@QAEAAV0@ABV0@@Z 100333c0 f i dwarfbuilder.obj
 0001:00032430       ?clear@?$QList@PAVSymbolContext@@@@QAEXXZ 10033430 f i dwarfbuilder.obj
 0001:000324b0       ?append@?$QList@PAVSymbolContext@@@@QAEXABQAVSymbolContext@@@Z 100334b0 f i dwarfbuilder.obj
 0001:00032500       ??Y?$QList@PAVSymbolContext@@@@QAEAAV0@ABV0@@Z 10033500 f i dwarfbuilder.obj
 0001:00032540       ?clear@?$QMap@VSourceCoord@@VAddressRange@@@@QAEXXZ 10033540 f i dwarfbuilder.obj
 0001:000325f0       ?find@?$QMap@VSourceCoord@@VAddressRange@@@@QAE?AViterator@1@ABVSourceCoord@@@Z 100335f0 f i dwarfbuilder.obj
 0001:00032620       ?insert@?$QMap@VSourceCoord@@VAddressRange@@@@QAE?AViterator@1@ABVSourceCoord@@ABVAddressRange@@@Z 10033620 f i dwarfbuilder.obj
 0001:000326a0       ?insertMulti@?$QMap@VSourceCoord@@VAddressRange@@@@QAE?AViterator@1@ABVSourceCoord@@ABVAddressRange@@@Z 100336a0 f i dwarfbuilder.obj
 0001:000326f0       ?freeData@?$QHash@VQString@@VSymbol@@@@AAEXPAUQHashData@@@Z 100336f0 f i dwarfbuilder.obj
 0001:000327b0       ??0?$QForeachContainer@V?$QList@VQString@@@@@@QAE@ABV?$QList@VQString@@@@@Z 100337b0 f i dwarfbuilder.obj
 0001:00032800       ??0?$QForeachContainer@V?$QList@PAVSymbolContext@@@@@@QAE@ABV?$QList@PAVSymbolContext@@@@@Z 10033800 f i dwarfbuilder.obj
 0001:00032870       ??0?$QForeachContainer@V?$QList@U?$QPair@_K_K@@@@@@QAE@ABV?$QList@U?$QPair@_K_K@@@@@Z 10033870 f i dwarfbuilder.obj
 0001:000328c0       ??0QStringList@@QAE@ABV?$QList@VQString@@@@@Z 100338c0 f i dwarfbuilder.obj
 0001:000328f0       ?addCULine@DwarfBuilder@@AAEXVQString@@HVAddressRange@@@Z 100338f0 f   dwarfbuilder.obj
 0001:00032a40       ?replaceCULine@DwarfBuilder@@AAEXVQString@@HVAddressRange@@@Z 10033a40 f   dwarfbuilder.obj
 0001:00032b00       ??6?$QList@PAVSymbolContext@@@@QAEAAV0@ABQAVSymbolContext@@@Z 10033b00 f i dwarfbuilder.obj
 0001:00032b50       ??6?$QList@PAVSymbolContext@@@@QAEAAV0@ABV0@@Z 10033b50 f i dwarfbuilder.obj
 0001:00032b90       ?begin@?$QMap@VSourceCoord@@VAddressRange@@@@QAE?AViterator@1@XZ 10033b90 f i dwarfbuilder.obj
 0001:00032bc0       ?end@?$QMap@VSourceCoord@@VAddressRange@@@@QAE?AViterator@1@XZ 10033bc0 f i dwarfbuilder.obj
 0001:00032be0       ??1?$QHash@VQString@@VSymbol@@@@QAE@XZ 10033be0 f i dwarfbuilder.obj
 0001:00032c00       ?begin@?$QList@PAPAUDwarf_Line_s@@@@QAE?AViterator@1@XZ 10033c00 f i dwarfbuilder.obj
 0001:00032c40       ?end@?$QList@PAPAUDwarf_Line_s@@@@QAE?AViterator@1@XZ 10033c40 f i dwarfbuilder.obj
 0001:00032c80       ?begin@?$QList@PAVSymbolContext@@@@QAE?AViterator@1@XZ 10033c80 f i dwarfbuilder.obj
 0001:00032cc0       ?begin@?$QList@U?$QPair@_K_K@@@@QAE?AViterator@1@XZ 10033cc0 f i dwarfbuilder.obj
 0001:00032cf0       ??$qForeachContainerNew@V?$QList@VQString@@@@@@YA?AV?$QForeachContainer@V?$QList@VQString@@@@@@ABV?$QList@VQString@@@@@Z 10033cf0 f i dwarfbuilder.obj
 0001:00032d50       ??$qForeachContainerNew@V?$QList@PAVSymbolContext@@@@@@YA?AV?$QForeachContainer@V?$QList@PAVSymbolContext@@@@@@ABV?$QList@PAVSymbolContext@@@@@Z 10033d50 f i dwarfbuilder.obj
 0001:00032d70       ??$qForeachContainerNew@V?$QList@U?$QPair@_K_K@@@@@@YA?AV?$QForeachContainer@V?$QList@U?$QPair@_K_K@@@@@@ABV?$QList@U?$QPair@_K_K@@@@@Z 10033d70 f i dwarfbuilder.obj
 0001:00032dd0       ??0DwarfBuilder@@QAE@PAVSourceSymbols@@@Z 10033dd0 f   dwarfbuilder.obj
 0001:00032f60       ??1DwarfBuilder@@UAE@XZ    10033f60 f   dwarfbuilder.obj
 0001:00033110       ?findCULine@DwarfBuilder@@AAE_NVQString@@H@Z 10034110 f   dwarfbuilder.obj
 0001:00033200       ?transferCULines@DwarfBuilder@@AAEXXZ 10034200 f   dwarfbuilder.obj
 0001:000333a0       ?namedTypes@DwarfBuilder@@UAE?AV?$QHash@VQString@@PAVSymbolType@@@@XZ 100343a0 f   dwarfbuilder.obj
 0001:000333c0       ?first@?$QList@PAVSymbolContext@@@@QAEAAPAVSymbolContext@@XZ 100343c0 f i dwarfbuilder.obj
 0001:00033400       ?first@?$QList@U?$QPair@_K_K@@@@QAEAAU?$QPair@_K_K@@XZ 10034400 f i dwarfbuilder.obj
 0001:00033420       ??_GDwarfBuilder@@UAEPAXI@Z 10034420 f i dwarfbuilder.obj
 0001:00033420       ??_EDwarfBuilder@@UAEPAXI@Z 10034420 f i dwarfbuilder.obj
 0001:00033440       ?processDwarfFilename@DwarfBuilder@@AAE?AVQString@@PAVDwarfHelper@@V2@1VQStringList@@@Z 10034440 f   dwarfbuilder.obj
 0001:00033cf0       ?processPendingLine@DwarfBuilder@@AAEX_NABVQString@@HI@Z 10034cf0 f   dwarfbuilder.obj
 0001:00033e90       ?extractLineNumbers@DwarfBuilder@@AAE_NPAVDwarfHelper@@PAUDwarf_Die_s@@VQStringList@@@Z 10034e90 f   dwarfbuilder.obj
 0001:000343c0       ?setCfaReturnRegLocations@DwarfBuilder@@AAEXVAddressRange@@VLocation@@GABV?$QMap@HVLocation@@@@@Z 100353c0 f   dwarfbuilder.obj
 0001:00034660       ?node_create@?$QMap@HVLocation@@@@AAEPAUNode@QMapData@@PAU3@QAPAU23@ABHABVLocation@@@Z 10035660 f i dwarfbuilder.obj
 0001:000346d0       ?detach_helper@?$QMap@HVLocation@@@@AAEXXZ 100356d0 f i dwarfbuilder.obj
 0001:00034830       ?detach@?$QList@VLocation@@@@QAEXXZ 10035830 f i dwarfbuilder.obj
 0001:00034840       ??4?$QMap@HVLocation@@@@QAEAAV0@ABV0@@Z 10035840 f i dwarfbuilder.obj
 0001:00034890       ??4Symbol@@QAEAAV0@ABV0@@Z 10035890 f i dwarfbuilder.obj
 0001:00034910       ?extractFrameTable@DwarfBuilder@@AAE_NPAVDwarfHelper@@@Z 10035910 f   dwarfbuilder.obj
 0001:00034d40       ?begin@?$QList@VLocation@@@@QAE?AViterator@1@XZ 10035d40 f i dwarfbuilder.obj
 0001:00034d70       ??0?$QHashNode@VQString@@VSymbol@@@@QAE@ABVQString@@ABVSymbol@@@Z 10035d70 f i dwarfbuilder.obj
 0001:00034dd0       ?duplicateNode@?$QHash@VQString@@VSymbol@@@@CAXPAUNode@QHashData@@PAX@Z 10035dd0 f i dwarfbuilder.obj
 0001:00034e20       ?first@?$QList@VLocation@@@@QAEAAVLocation@@XZ 10035e20 f i dwarfbuilder.obj
 0001:00034e40       ?detach_helper@?$QHash@VQString@@VSymbol@@@@AAEXXZ 10035e40 f i dwarfbuilder.obj
 0001:00034e80       ?createNode@?$QHash@VQString@@VSymbol@@@@AAEPAU?$QHashNode@VQString@@VSymbol@@@@IABVQString@@ABVSymbol@@PAPAU2@@Z 10035e80 f i dwarfbuilder.obj
 0001:00034f00       ?detach@?$QHash@VQString@@VSymbol@@@@QAEXXZ 10035f00 f i dwarfbuilder.obj
 0001:00034f40       ??4?$QHash@VQString@@VSymbol@@@@QAEAAV0@ABV0@@Z 10035f40 f i dwarfbuilder.obj
 0001:00034fb0       ?clear@?$QHash@VQString@@VSymbol@@@@QAEXXZ 10035fb0 f i dwarfbuilder.obj
 0001:00035020       ?remove@?$QHash@VQString@@VSymbol@@@@QAEHABVQString@@@Z 10036020 f i dwarfbuilder.obj
 0001:00035130       ?insert@?$QHash@VQString@@VSymbol@@@@QAE?AViterator@1@ABVQString@@ABVSymbol@@@Z 10036130 f i dwarfbuilder.obj
 0001:000351f0       ?clear@DwarfBuilder@@UAEXXZ 100361f0 f   dwarfbuilder.obj
 0001:00035280       ?extractDebugInfo@DwarfBuilder@@AAE_NPAVDwarfHelper@@PAUDwarf_Die_s@@1HV?$QList@PAVSymbolContext@@@@@Z 10036280 f   dwarfbuilder.obj
 0001:000377e0       ?load@DwarfBuilder@@QAE_NABVQString@@@Z 100387e0 f   dwarfbuilder.obj
 0001:000383a0       ??_GQWidget@@UAEPAXI@Z     100393a0 f i dwarfbuilder.obj
 0001:000383a0       ??_EQWidget@@UAEPAXI@Z     100393a0 f i dwarfbuilder.obj
 0001:000383c0       ??_GQProgressDialog@@UAEPAXI@Z 100393c0 f i dwarfbuilder.obj
 0001:000383c0       ??_EQProgressDialog@@UAEPAXI@Z 100393c0 f i dwarfbuilder.obj
 0001:000383e0       ??_EQWidget@@W7AEPAXI@Z    100393e0 f i dwarfbuilder.obj
 0001:000383f0       ??_EQProgressDialog@@W7AEPAXI@Z 100393f0 f i dwarfbuilder.obj
 0001:00038400       ??0DwarfHelperAllocableItem@@QAE@XZ 10039400 f i dwarfhelper.obj
 0001:00038410       ??1DwarfHelperAllocableItem@@UAE@XZ 10039410 f i dwarfhelper.obj
 0001:00038420       ??_GDwarfHelperAllocableItem@@UAEPAXI@Z 10039420 f i dwarfhelper.obj
 0001:00038420       ??_EDwarfHelperAllocableItem@@UAEPAXI@Z 10039420 f i dwarfhelper.obj
 0001:00038440       ??0DwarfHelperAllocatedAttrItem@@QAE@XZ 10039440 f i dwarfhelper.obj
 0001:00038450       ??0DwarfHelperAllocatedAttrItem@@QAE@PAUDwarf_Attribute_s@@@Z 10039450 f i dwarfhelper.obj
 0001:00038470       ??0DwarfHelperAllocatedAttrItem@@QAE@ABV0@@Z 10039470 f i dwarfhelper.obj
 0001:00038490       ?deallocate@DwarfHelperAllocatedAttrItem@@UBEXAAPAUDwarf_Debug_s@@@Z 10039490 f i dwarfhelper.obj
 0001:000384b0       ??1DwarfHelperAllocatedAttrItem@@UAE@XZ 100394b0 f i dwarfhelper.obj
 0001:000384c0       ??0DwarfHelperAbstractOriginDie@@QAE@XZ 100394c0 f i dwarfhelper.obj
 0001:000384e0       ??1DwarfHelperAbstractOriginDie@@QAE@XZ 100394e0 f i dwarfhelper.obj
 0001:00038510       ??4DwarfHelperAbstractOriginDie@@QAEAAV0@ABV0@@Z 10039510 f i dwarfhelper.obj
 0001:00038530       ?setAbstractOrigin@DwarfHelperAbstractOriginDie@@QAEXQAUDwarf_Debug_s@@QAUDwarf_Die_s@@@Z 10039530 f i dwarfhelper.obj
 0001:00038550       ?die@DwarfHelperAbstractOriginDie@@QBEPAUDwarf_Die_s@@XZ 10039550 f i dwarfhelper.obj
 0001:00038560       ??0DwarfHelperAllocatedDieItem@@QAE@PAUDwarf_Die_s@@@Z 10039560 f i dwarfhelper.obj
 0001:00038580       ?deallocate@DwarfHelperAllocatedDieItem@@UBEXAAPAUDwarf_Debug_s@@@Z 10039580 f i dwarfhelper.obj
 0001:000385a0       ??1DwarfHelperAllocatedDieItem@@UAE@XZ 100395a0 f i dwarfhelper.obj
 0001:000385b0       ??0DwarfHelperAllocatedBlockItem@@QAE@PAUDwarf_Block@@@Z 100395b0 f i dwarfhelper.obj
 0001:000385d0       ?deallocate@DwarfHelperAllocatedBlockItem@@UBEXAAPAUDwarf_Debug_s@@@Z 100395d0 f i dwarfhelper.obj
 0001:000385f0       ??1DwarfHelperAllocatedBlockItem@@UAE@XZ 100395f0 f i dwarfhelper.obj
 0001:00038600       ??0DwarfHelperAllocatedLineListItem@@QAE@PAPAUDwarf_Line_s@@_J@Z 10039600 f i dwarfhelper.obj
 0001:00038620       ?deallocate@DwarfHelperAllocatedLineListItem@@UBEXAAPAUDwarf_Debug_s@@@Z 10039620 f i dwarfhelper.obj
 0001:00038640       ??1DwarfHelperAllocatedLineListItem@@UAE@XZ 10039640 f i dwarfhelper.obj
 0001:00038650       ??0DwarfHelperAllocatedLocDescListItem@@QAE@PAPAUDwarf_Locdesc@@_J@Z 10039650 f i dwarfhelper.obj
 0001:00038670       ?deallocate@DwarfHelperAllocatedLocDescListItem@@UBEXAAPAUDwarf_Debug_s@@@Z 10039670 f i dwarfhelper.obj
 0001:000386e0       ??1DwarfHelperAllocatedLocDescListItem@@UAE@XZ 100396e0 f i dwarfhelper.obj
 0001:000386f0       ??0DwarfHelperAllocatedStringItem@@QAE@PAD@Z 100396f0 f i dwarfhelper.obj
 0001:00038710       ?deallocate@DwarfHelperAllocatedStringItem@@UBEXAAPAUDwarf_Debug_s@@@Z 10039710 f i dwarfhelper.obj
 0001:00038730       ??1DwarfHelperAllocatedStringItem@@UAE@XZ 10039730 f i dwarfhelper.obj
 0001:00038740       ??0DwarfHelperAllocatedFdeCieItem@@QAE@PAPAUDwarf_Cie_s@@_JPAPAUDwarf_Fde_s@@1@Z 10039740 f i dwarfhelper.obj
 0001:00038780       ?deallocate@DwarfHelperAllocatedFdeCieItem@@UBEXAAPAUDwarf_Debug_s@@@Z 10039780 f i dwarfhelper.obj
 0001:000387b0       ??1DwarfHelperAllocatedFdeCieItem@@UAE@XZ 100397b0 f i dwarfhelper.obj
 0001:000387c0       ??0DwarfHelperAllocatedArangeListItem@@QAE@PAPAUDwarf_Arange_s@@_J@Z 100397c0 f i dwarfhelper.obj
 0001:000387e0       ?deallocate@DwarfHelperAllocatedArangeListItem@@UBEXAAPAUDwarf_Debug_s@@@Z 100397e0 f i dwarfhelper.obj
 0001:00038840       ??1DwarfHelperAllocatedArangeListItem@@UAE@XZ 10039840 f i dwarfhelper.obj
 0001:00038850       ??0DwarfHelperAllocatedErrorItem@@QAE@PAUDwarf_Error_s@@@Z 10039850 f i dwarfhelper.obj
 0001:00038870       ?deallocate@DwarfHelperAllocatedErrorItem@@UBEXAAPAUDwarf_Debug_s@@@Z 10039870 f i dwarfhelper.obj
 0001:00038890       ??1DwarfHelperAllocatedErrorItem@@UAE@XZ 10039890 f i dwarfhelper.obj
 0001:000388a0       ??0DwarfHelperAllocatedRangeListItem@@QAE@PAUDwarf_Ranges@@_J@Z 100398a0 f i dwarfhelper.obj
 0001:000388c0       ?deallocate@DwarfHelperAllocatedRangeListItem@@UBEXAAPAUDwarf_Debug_s@@@Z 100398c0 f i dwarfhelper.obj
 0001:000388e0       ??1DwarfHelperAllocatedRangeListItem@@UAE@XZ 100398e0 f i dwarfhelper.obj
 0001:00038990       ?setAddressMask@DwarfHelper@@QAEX_K@Z 10039990 f   dwarfhelper.obj
 0001:000389b0       ?setCodeAddressIndicator@DwarfHelper@@QAEX_K0_N@Z 100399b0 f   dwarfhelper.obj
 0001:000389e0       ?setEliminatedSectionIndicator@DwarfHelper@@QAEX_K0_N@Z 100399e0 f   dwarfhelper.obj
 0001:00038a10       ?setOctetsPerDataAddressScalingFactor@DwarfHelper@@QAEXE@Z 10039a10 f   dwarfhelper.obj
 0001:00038a20       ?toPlainAddr@DwarfHelper@@AAE_K_K@Z 10039a20 f   dwarfhelper.obj
 0001:00038a40       ?toCodeAddr@DwarfHelper@@AAE_K_K@Z 10039a40 f   dwarfhelper.obj
 0001:00038ad0       ?eliminated@DwarfHelper@@QAE_N_K@Z 10039ad0 f   dwarfhelper.obj
 0001:00038b00       ?getDbg@DwarfHelper@@QAEXAAPAUDwarf_Debug_s@@@Z 10039b00 f   dwarfhelper.obj
 0001:00038b10       ?tagName@DwarfHelper@@QBEPBDG@Z 10039b10 f   dwarfhelper.obj
 0001:00038fb0       ?attributeName@DwarfHelper@@QBEPBDG@Z 10039fb0 f   dwarfhelper.obj
 0001:00039690       ?disposeUnrecordedSibling@DwarfHelper@@QAEXPAPAUDwarf_Die_s@@@Z 1003a690 f   dwarfhelper.obj
 0001:000396c0       ?disposeUnrecordedChild@DwarfHelper@@QAEXPAPAUDwarf_Die_s@@@Z 1003a6c0 f   dwarfhelper.obj
 0001:000396f0       ?relativeLocations@DwarfHelper@@QAE_NXZ 1003a6f0 f   dwarfhelper.obj
 0001:00039700       ?removeDoubleSlashes@DwarfHelper@@QAE?AVQString@@ABV2@@Z 1003a700 f   dwarfhelper.obj
 0001:00039880       ?removeRepeatedCompileDir@DwarfHelper@@QAEXPAVQString@@@Z 1003a880 f   dwarfhelper.obj
 0001:00039990       ??0?$QList@PAPAUDwarf_Arange_s@@@@QAE@XZ 1003a990 f i dwarfhelper.obj
 0001:000399b0       ?count@?$QList@PAPAUDwarf_Arange_s@@@@QBEHXZ 1003a9b0 f i dwarfhelper.obj
 0001:000399c0       ??0?$QVector@UDwarf_Regtable_Entry3_s@@@@QAE@XZ 1003a9c0 f i dwarfhelper.obj
 0001:000399e0       ??0?$QList@PAVDwarfHelperAllocableItem@@@@QAE@XZ 1003a9e0 f i dwarfhelper.obj
 0001:00039a00       ??0?$QVector@VDwarfHelperAllocatedAttrItem@@@@QAE@XZ 1003aa00 f i dwarfhelper.obj
 0001:00039a20       ?size@?$QVector@VDwarfHelperAllocatedAttrItem@@@@QBEHXZ 1003aa20 f i dwarfhelper.obj
 0001:00039a30       ??Econst_iterator@?$QList@VQFileInfo@@@@QAEAAV01@XZ 1003aa30 f i dwarfhelper.obj
 0001:00039a40       ??Econst_iterator@?$QList@PAVDwarfHelperAllocableItem@@@@QAEAAV01@XZ 1003aa40 f i dwarfhelper.obj
 0001:00039a50       ??0?$QList@PAUDwarf_Locdesc@@@@QAE@XZ 1003aa50 f i dwarfhelper.obj
 0001:00039a70       ?isEmpty@?$QList@PAUDwarf_Locdesc@@@@QBE_NXZ 1003aa70 f i dwarfhelper.obj
 0001:00039a80       ?count@?$QList@PAUDwarf_Locdesc@@@@QBEHXZ 1003aa80 f i dwarfhelper.obj
 0001:00039a90       ??0?$QList@U?$QPair@_K_K@@@@QAE@XZ 1003aa90 f i dwarfhelper.obj
 0001:00039ab0       ?isEmpty@?$QList@U?$QPair@_K_K@@@@QBE_NXZ 1003aab0 f i dwarfhelper.obj
 0001:00039ac0       ??0?$QPair@_K_K@@QAE@AB_K0@Z 1003aac0 f i dwarfhelper.obj
 0001:00039af0       ??0iterator@?$QList@PAPAUDwarf_Arange_s@@@@QAE@XZ 1003aaf0 f i dwarfhelper.obj
 0001:00039b00       ??9iterator@?$QList@PAPAUDwarf_Arange_s@@@@QBE_NABV01@@Z 1003ab00 f i dwarfhelper.obj
 0001:00039b20       ??Eiterator@?$QList@PAPAUDwarf_Arange_s@@@@QAEAAV01@XZ 1003ab20 f i dwarfhelper.obj
 0001:00039b30       ?condition@?$QForeachContainer@V?$QVector@VDwarfHelperAllocatedAttrItem@@@@@@QBE_NXZ 1003ab30 f i dwarfhelper.obj
 0001:00039b50       ??0?$QList@PAPAUDwarf_Line_s@@@@QAE@XZ 1003ab50 f i dwarfhelper.obj
 0001:00039b70       ??8const_iterator@?$QHash@VQString@@V1@@@QBE_NABV01@@Z 1003ab70 f i dwarfhelper.obj
 0001:00039b90       ??0?$QList@VLocation@@@@QAE@XZ 1003ab90 f i dwarfhelper.obj
 0001:00039bb0       ??9const_iterator@?$QList@VQFileInfo@@@@QBE_NABV01@@Z 1003abb0 f i dwarfhelper.obj
 0001:00039bd0       ??9const_iterator@?$QList@PAVDwarfHelperAllocableItem@@@@QBE_NABV01@@Z 1003abd0 f i dwarfhelper.obj
 0001:00039bf0       ??0iterator@?$QList@PAPAUDwarf_Arange_s@@@@QAE@PAUNode@1@@Z 1003abf0 f i dwarfhelper.obj
 0001:00039c00       ??0iterator@?$QList@U?$QPair@_K_K@@@@QAE@XZ 1003ac00 f i dwarfhelper.obj
 0001:00039c10       ??0iterator@?$QList@U?$QPair@_K_K@@@@QAE@ABV01@@Z 1003ac10 f i dwarfhelper.obj
 0001:00039c20       ??Eiterator@?$QList@U?$QPair@_K_K@@@@QAEAAV01@XZ 1003ac20 f i dwarfhelper.obj
 0001:00039c30       ??Eiterator@?$QList@U?$QPair@_K_K@@@@QAE?AV01@H@Z 1003ac30 f i dwarfhelper.obj
 0001:00039c40       ??Fiterator@?$QList@U?$QPair@_K_K@@@@QAEAAV01@XZ 1003ac40 f i dwarfhelper.obj
 0001:00039c50       ??0const_iterator@?$QHash@VQString@@V1@@@QAE@PAX@Z 1003ac50 f i dwarfhelper.obj
 0001:00039c60       ?t@Node@?$QList@VQFileInfo@@@@QAEAAVQFileInfo@@XZ 1003ac60 f i dwarfhelper.obj
 0001:00039c70       ?t@Node@?$QList@PAVDwarfHelperAllocableItem@@@@QAEAAPAVDwarfHelperAllocableItem@@XZ 1003ac70 f i dwarfhelper.obj
 0001:00039c80       ??Fiterator@?$QList@PAUDwarf_Locdesc@@@@QAEAAV01@XZ 1003ac80 f i dwarfhelper.obj
 0001:00039c90       ?t@Node@?$QList@PAPAUDwarf_Arange_s@@@@QAEAAPAPAUDwarf_Arange_s@@XZ 1003ac90 f i dwarfhelper.obj
 0001:00039ca0       ??0const_iterator@?$QList@U?$QPair@_K_K@@@@QAE@ABViterator@1@@Z 1003aca0 f i dwarfhelper.obj
 0001:00039cb0       ??0iterator@?$QList@PAUDwarf_Locdesc@@@@QAE@PAUNode@1@@Z 1003acb0 f i dwarfhelper.obj
 0001:00039cc0       ?t@Node@?$QList@PAUDwarf_Locdesc@@@@QAEAAPAUDwarf_Locdesc@@XZ 1003acc0 f i dwarfhelper.obj
 0001:00039cd0       ?free@?$QVector@UDwarf_Regtable_Entry3_s@@@@AAEXPAU?$QVectorTypedData@UDwarf_Regtable_Entry3_s@@@@@Z 1003acd0 f i dwarfhelper.obj
 0001:00039ce0       ?free@?$QVector@VDwarfHelperAllocatedAttrItem@@@@AAEXPAU?$QVectorTypedData@VDwarfHelperAllocatedAttrItem@@@@@Z 1003ace0 f i dwarfhelper.obj
 0001:00039d20       ??$qForeachPointer@V?$QList@VQFileInfo@@@@@@YAPAV?$QList@VQFileInfo@@@@ABV0@@Z 1003ad20 f i dwarfhelper.obj
 0001:00039d30       ??$qForeachContainer@V?$QList@VQFileInfo@@@@@@YAPBV?$QForeachContainer@V?$QList@VQFileInfo@@@@@@PBUQForeachContainerBase@@PBV?$QList@VQFileInfo@@@@@Z 1003ad30 f i dwarfhelper.obj
 0001:00039d40       ??$qForeachPointer@V?$QList@PAVDwarfHelperAllocableItem@@@@@@YAPAV?$QList@PAVDwarfHelperAllocableItem@@@@ABV0@@Z 1003ad40 f i dwarfhelper.obj
 0001:00039d50       ??$qForeachContainer@V?$QList@PAVDwarfHelperAllocableItem@@@@@@YAPBV?$QForeachContainer@V?$QList@PAVDwarfHelperAllocableItem@@@@@@PBUQForeachContainerBase@@PBV?$QList@PAVDwarfHelperAllocableItem@@@@@Z 1003ad50 f i dwarfhelper.obj
 0001:00039d60       ??$qForeachPointer@V?$QVector@VDwarfHelperAllocatedAttrItem@@@@@@YAPAV?$QVector@VDwarfHelperAllocatedAttrItem@@@@ABV0@@Z 1003ad60 f i dwarfhelper.obj
 0001:00039d70       ??$qForeachContainer@V?$QVector@VDwarfHelperAllocatedAttrItem@@@@@@YAPBV?$QForeachContainer@V?$QVector@VDwarfHelperAllocatedAttrItem@@@@@@PBUQForeachContainerBase@@PBV?$QVector@VDwarfHelperAllocatedAttrItem@@@@@Z 1003ad70 f i dwarfhelper.obj
 0001:00039d80       ??$qMin@H@@YAABHABH0@Z     1003ad80 f i dwarfhelper.obj
 0001:00039da0       ?sizeOfTypedData@?$QVector@UDwarf_Regtable_Entry3_s@@@@AAEHXZ 1003ada0 f i dwarfhelper.obj
 0001:00039db0       ?sizeOfTypedData@?$QVector@VDwarfHelperAllocatedAttrItem@@@@AAEHXZ 1003adb0 f i dwarfhelper.obj
 0001:00039dc0       ??9iterator@?$QList@U?$QPair@_K_K@@@@QBE_NABV01@@Z 1003adc0 f i dwarfhelper.obj
 0001:00039de0       ??0iterator@?$QMap@HVLocation@@@@QAE@PAUNode@QMapData@@@Z 1003ade0 f i dwarfhelper.obj
 0001:00039df0       ?begin@?$QVector@VDwarfHelperAllocatedAttrItem@@@@QBEPBVDwarfHelperAllocatedAttrItem@@XZ 1003adf0 f i dwarfhelper.obj
 0001:00039e00       ?end@?$QVector@VDwarfHelperAllocatedAttrItem@@@@QBEPBVDwarfHelperAllocatedAttrItem@@XZ 1003ae00 f i dwarfhelper.obj
 0001:00039e10       ??0const_iterator@?$QList@VQFileInfo@@@@QAE@PAUNode@1@@Z 1003ae10 f i dwarfhelper.obj
 0001:00039e20       ??0const_iterator@?$QList@PAVDwarfHelperAllocableItem@@@@QAE@PAUNode@1@@Z 1003ae20 f i dwarfhelper.obj
 0001:00039e30       ?node_construct@?$QList@PAPAUDwarf_Arange_s@@@@AAEXPAUNode@1@ABQAPAUDwarf_Arange_s@@@Z 1003ae30 f i dwarfhelper.obj
 0001:00039e40       ?node_copy@?$QList@PAPAUDwarf_Arange_s@@@@AAEXPAUNode@1@00@Z 1003ae40 f i dwarfhelper.obj
 0001:00039e50       ?node_construct@?$QList@PAVDwarfHelperAllocableItem@@@@AAEXPAUNode@1@ABQAVDwarfHelperAllocableItem@@@Z 1003ae50 f i dwarfhelper.obj
 0001:00039e60       ?node_construct@?$QList@PAUDwarf_Locdesc@@@@AAEXPAUNode@1@ABQAUDwarf_Locdesc@@@Z 1003ae60 f i dwarfhelper.obj
 0001:00039e70       ?node_copy@?$QList@PAUDwarf_Locdesc@@@@AAEXPAUNode@1@00@Z 1003ae70 f i dwarfhelper.obj
 0001:00039e80       ?node_destruct@?$QList@U?$QPair@_K_K@@@@AAEXPAUNode@1@@Z 1003ae80 f i dwarfhelper.obj
 0001:00039e90       ?node_construct@?$QList@PAPAUDwarf_Line_s@@@@AAEXPAUNode@1@ABQAPAUDwarf_Line_s@@@Z 1003ae90 f i dwarfhelper.obj
 0001:00039ea0       ?node_destruct@?$QList@PAPAUDwarf_Arange_s@@@@AAEXPAUNode@1@0@Z 1003aea0 f i dwarfhelper.obj
 0001:00039eb0       ?malloc@?$QVector@UDwarf_Regtable_Entry3_s@@@@AAEPAUQVectorData@@H@Z 1003aeb0 f i dwarfhelper.obj
 0001:00039ed0       ?node_destruct@?$QList@PAVDwarfHelperAllocableItem@@@@AAEXPAUNode@1@0@Z 1003aed0 f i dwarfhelper.obj
 0001:00039ee0       ?node_copy@?$QList@PAVDwarfHelperAllocableItem@@@@AAEXPAUNode@1@00@Z 1003aee0 f i dwarfhelper.obj
 0001:00039ef0       ?malloc@?$QVector@VDwarfHelperAllocatedAttrItem@@@@AAEPAUQVectorData@@H@Z 1003aef0 f i dwarfhelper.obj
 0001:00039f10       ?node_copy@?$QList@VQFileInfo@@@@AAEXPAUNode@1@00@Z 1003af10 f i dwarfhelper.obj
 0001:00039f90       ?node_destruct@?$QList@PAUDwarf_Locdesc@@@@AAEXPAUNode@1@0@Z 1003af90 f i dwarfhelper.obj
 0001:00039fa0       ??_GQFileInfo@@QAEPAXI@Z   1003afa0 f i dwarfhelper.obj
 0001:00039fc0       ??Hiterator@?$QList@U?$QPair@_K_K@@@@QBE?AV01@H@Z 1003afc0 f i dwarfhelper.obj
 0001:00039fe0       ??Giterator@?$QList@U?$QPair@_K_K@@@@QBEHV01@@Z 1003afe0 f i dwarfhelper.obj
 0001:00039ff0       ??$qSwap@U?$QPair@_K_K@@@@YAXAAU?$QPair@_K_K@@0@Z 1003aff0 f i dwarfhelper.obj
 0001:0003a030       ??$?M_K_K@@YA_NABU?$QPair@_K_K@@0@Z 1003b030 f i dwarfhelper.obj
 0001:0003a080       ??Miterator@?$QList@U?$QPair@_K_K@@@@QBE_NABV01@@Z 1003b080 f i dwarfhelper.obj
 0001:0003a090       ??Fiterator@?$QList@U?$QPair@_K_K@@@@QAE?AV01@H@Z 1003b090 f i dwarfhelper.obj
 0001:0003a0a0       ??_GDwarfHelperAllocatedAttrItem@@UAEPAXI@Z 1003b0a0 f i dwarfhelper.obj
 0001:0003a0a0       ??_EDwarfHelperAllocatedAttrItem@@UAEPAXI@Z 1003b0a0 f i dwarfhelper.obj
 0001:0003a0c0       ??_GDwarfHelperAllocatedDieItem@@UAEPAXI@Z 1003b0c0 f i dwarfhelper.obj
 0001:0003a0c0       ??_EDwarfHelperAllocatedDieItem@@UAEPAXI@Z 1003b0c0 f i dwarfhelper.obj
 0001:0003a0e0       ??_EDwarfHelperAllocatedBlockItem@@UAEPAXI@Z 1003b0e0 f i dwarfhelper.obj
 0001:0003a0e0       ??_GDwarfHelperAllocatedBlockItem@@UAEPAXI@Z 1003b0e0 f i dwarfhelper.obj
 0001:0003a100       ??_EDwarfHelperAllocatedLineListItem@@UAEPAXI@Z 1003b100 f i dwarfhelper.obj
 0001:0003a100       ??_GDwarfHelperAllocatedLineListItem@@UAEPAXI@Z 1003b100 f i dwarfhelper.obj
 0001:0003a120       ??_EDwarfHelperAllocatedLocDescListItem@@UAEPAXI@Z 1003b120 f i dwarfhelper.obj
 0001:0003a120       ??_GDwarfHelperAllocatedLocDescListItem@@UAEPAXI@Z 1003b120 f i dwarfhelper.obj
 0001:0003a140       ??_EDwarfHelperAllocatedStringItem@@UAEPAXI@Z 1003b140 f i dwarfhelper.obj
 0001:0003a140       ??_GDwarfHelperAllocatedStringItem@@UAEPAXI@Z 1003b140 f i dwarfhelper.obj
 0001:0003a160       ??_EDwarfHelperAllocatedFdeCieItem@@UAEPAXI@Z 1003b160 f i dwarfhelper.obj
 0001:0003a160       ??_GDwarfHelperAllocatedFdeCieItem@@UAEPAXI@Z 1003b160 f i dwarfhelper.obj
 0001:0003a180       ??_EDwarfHelperAllocatedArangeListItem@@UAEPAXI@Z 1003b180 f i dwarfhelper.obj
 0001:0003a180       ??_GDwarfHelperAllocatedArangeListItem@@UAEPAXI@Z 1003b180 f i dwarfhelper.obj
 0001:0003a1a0       ??_EDwarfHelperAllocatedErrorItem@@UAEPAXI@Z 1003b1a0 f i dwarfhelper.obj
 0001:0003a1a0       ??_GDwarfHelperAllocatedErrorItem@@UAEPAXI@Z 1003b1a0 f i dwarfhelper.obj
 0001:0003a1c0       ??_GDwarfHelperAllocatedRangeListItem@@UAEPAXI@Z 1003b1c0 f i dwarfhelper.obj
 0001:0003a1c0       ??_EDwarfHelperAllocatedRangeListItem@@UAEPAXI@Z 1003b1c0 f i dwarfhelper.obj
 0001:0003a1e0       ?greatestCommonDir@DwarfHelper@@QAE?AVQString@@ABV2@0@Z 1003b1e0 f   dwarfhelper.obj
 0001:0003a350       ??1?$QVector@UDwarf_Regtable_Entry3_s@@@@QAE@XZ 1003b350 f i dwarfhelper.obj
 0001:0003a370       ??1?$QVector@VDwarfHelperAllocatedAttrItem@@@@QAE@XZ 1003b370 f i dwarfhelper.obj
 0001:0003a390       ?constEnd@?$QHash@VQString@@V1@@@QBE?AVconst_iterator@1@XZ 1003b390 f i dwarfhelper.obj
 0001:0003a3a0       ?condition@?$QForeachContainer@V?$QList@VQFileInfo@@@@@@QBE_NXZ 1003b3a0 f i dwarfhelper.obj
 0001:0003a3c0       ??Dconst_iterator@?$QList@VQFileInfo@@@@QBEABVQFileInfo@@XZ 1003b3c0 f i dwarfhelper.obj
 0001:0003a3d0       ?condition@?$QForeachContainer@V?$QList@PAVDwarfHelperAllocableItem@@@@@@QBE_NXZ 1003b3d0 f i dwarfhelper.obj
 0001:0003a3f0       ??Dconst_iterator@?$QList@PAVDwarfHelperAllocableItem@@@@QBEABQAVDwarfHelperAllocableItem@@XZ 1003b3f0 f i dwarfhelper.obj
 0001:0003a400       ??Diterator@?$QList@PAPAUDwarf_Arange_s@@@@QBEAAPAPAUDwarf_Arange_s@@XZ 1003b400 f i dwarfhelper.obj
 0001:0003a410       ??Diterator@?$QList@PAUDwarf_Locdesc@@@@QBEAAPAUDwarf_Locdesc@@XZ 1003b410 f i dwarfhelper.obj
 0001:0003a420       ?erase@?$QList@U?$QPair@_K_K@@@@QAE?AViterator@1@V21@@Z 1003b420 f i dwarfhelper.obj
 0001:0003a450       ?begin@?$QList@PAVDwarfHelperAllocableItem@@@@QBE?AVconst_iterator@1@XZ 1003b450 f i dwarfhelper.obj
 0001:0003a470       ?end@?$QList@PAVDwarfHelperAllocableItem@@@@QBE?AVconst_iterator@1@XZ 1003b470 f i dwarfhelper.obj
 0001:0003a490       ?begin@?$QList@VQFileInfo@@@@QBE?AVconst_iterator@1@XZ 1003b490 f i dwarfhelper.obj
 0001:0003a4b0       ?end@?$QList@VQFileInfo@@@@QBE?AVconst_iterator@1@XZ 1003b4b0 f i dwarfhelper.obj
 0001:0003a4d0       ?free@?$QList@PAPAUDwarf_Arange_s@@@@AAEXPAUData@QListData@@@Z 1003b4d0 f i dwarfhelper.obj
 0001:0003a4f0       ?realloc@?$QVector@UDwarf_Regtable_Entry3_s@@@@AAEXHH@Z 1003b4f0 f i dwarfhelper.obj
 0001:0003a610       ?free@?$QList@PAVDwarfHelperAllocableItem@@@@AAEXPAUData@QListData@@@Z 1003b610 f i dwarfhelper.obj
 0001:0003a630       ?realloc@?$QVector@VDwarfHelperAllocatedAttrItem@@@@AAEXHH@Z 1003b630 f i dwarfhelper.obj
 0001:0003a7c0       ?free@?$QList@PAUDwarf_Locdesc@@@@AAEXPAUData@QListData@@@Z 1003b7c0 f i dwarfhelper.obj
 0001:0003a7e0       ?node_construct@?$QList@U?$QPair@_K_K@@@@AAEXPAUNode@1@ABU?$QPair@_K_K@@@Z 1003b7e0 f i dwarfhelper.obj
 0001:0003a820       ?mutableFindNode@?$QMap@HVLocation@@@@ABEPAUNode@QMapData@@QAPAU23@ABH@Z 1003b820 f i dwarfhelper.obj
 0001:0003a880       ?node_destruct@?$QList@VQFileInfo@@@@AAEXPAUNode@1@0@Z 1003b880 f i dwarfhelper.obj
 0001:0003a8b0       ??R?$qLess@U?$QPair@_K_K@@@@QBE_NABU?$QPair@_K_K@@0@Z 1003b8b0 f i dwarfhelper.obj
 0001:0003a900       ??$qLowerBoundHelper@Viterator@?$QList@U?$QPair@_K_K@@@@U?$QPair@_K_K@@V?$qLess@U?$QPair@_K_K@@@@@QAlgorithmsPrivate@@YA?AViterator@?$QList@U?$QPair@_K_K@@@@V12@0ABU?$QPair@_K_K@@V?$qLess@U?$QPair@_K_K@@@@@Z 1003b900 f i dwarfhelper.obj
 0001:0003a990       ??$qUpperBoundHelper@Viterator@?$QList@U?$QPair@_K_K@@@@U?$QPair@_K_K@@V?$qLess@U?$QPair@_K_K@@@@@QAlgorithmsPrivate@@YA?AViterator@?$QList@U?$QPair@_K_K@@@@V12@0ABU?$QPair@_K_K@@V?$qLess@U?$QPair@_K_K@@@@@Z 1003b990 f i dwarfhelper.obj
 0001:0003aa20       ??$qReverse@Viterator@?$QList@U?$QPair@_K_K@@@@@QAlgorithmsPrivate@@YAXViterator@?$QList@U?$QPair@_K_K@@@@0@Z 1003ba20 f i dwarfhelper.obj
 0001:0003aa90       ??1?$QForeachContainer@V?$QVector@VDwarfHelperAllocatedAttrItem@@@@@@QAE@XZ 1003ba90 f i dwarfhelper.obj
 0001:0003aab0       ?hasNext@?$QMutableListIterator@U?$QPair@_K_K@@@@QBE_NXZ 1003bab0 f i dwarfhelper.obj
 0001:0003aad0       ?next@?$QMutableListIterator@U?$QPair@_K_K@@@@QAEAAU?$QPair@_K_K@@XZ 1003bad0 f i dwarfhelper.obj
 0001:0003aae0       ?peekNext@?$QMutableListIterator@U?$QPair@_K_K@@@@QBEAAU?$QPair@_K_K@@XZ 1003bae0 f i dwarfhelper.obj
 0001:0003aaf0       ?previous@?$QMutableListIterator@U?$QPair@_K_K@@@@QAEAAU?$QPair@_K_K@@XZ 1003baf0 f i dwarfhelper.obj
 0001:0003ab00       ??1?$QList@PAPAUDwarf_Arange_s@@@@QAE@XZ 1003bb00 f i dwarfhelper.obj
 0001:0003ab20       ?detach_helper@?$QList@PAPAUDwarf_Arange_s@@@@AAEXXZ 1003bb20 f i dwarfhelper.obj
 0001:0003ab40       ?resize@?$QVector@UDwarf_Regtable_Entry3_s@@@@QAEXH@Z 1003bb40 f i dwarfhelper.obj
 0001:0003aba0       ?detach_helper@?$QVector@UDwarf_Regtable_Entry3_s@@@@AAEXXZ 1003bba0 f i dwarfhelper.obj
 0001:0003abb0       ??1?$QList@PAVDwarfHelperAllocableItem@@@@QAE@XZ 1003bbb0 f i dwarfhelper.obj
 0001:0003abd0       ?resize@?$QVector@VDwarfHelperAllocatedAttrItem@@@@QAEXH@Z 1003bbd0 f i dwarfhelper.obj
 0001:0003ac30       ?constFind@?$QHash@VQString@@V1@@@QBE?AVconst_iterator@1@ABVQString@@@Z 1003bc30 f i dwarfhelper.obj
 0001:0003ac50       ??1?$QList@PAUDwarf_Locdesc@@@@QAE@XZ 1003bc50 f i dwarfhelper.obj
 0001:0003ac70       ?detach_helper@?$QList@PAUDwarf_Locdesc@@@@AAEXXZ 1003bc70 f i dwarfhelper.obj
 0001:0003ac90       ?insert@?$QList@U?$QPair@_K_K@@@@QAE?AViterator@1@V21@ABU?$QPair@_K_K@@@Z 1003bc90 f i dwarfhelper.obj
 0001:0003acf0       ??4?$QList@PAPAUDwarf_Arange_s@@@@QAEAAV0@ABV0@@Z 1003bcf0 f i dwarfhelper.obj
 0001:0003ad60       ?detach_helper@?$QList@PAVDwarfHelperAllocableItem@@@@AAEXXZ 1003bd60 f i dwarfhelper.obj
 0001:0003ad80       ?detach_helper@?$QVector@VDwarfHelperAllocatedAttrItem@@@@AAEXXZ 1003bd80 f i dwarfhelper.obj
 0001:0003ad90       ?free@?$QList@VQFileInfo@@@@AAEXPAUData@QListData@@@Z 1003bd90 f i dwarfhelper.obj
 0001:0003ade0       ??$qLowerBound@Viterator@?$QList@U?$QPair@_K_K@@@@U?$QPair@_K_K@@V?$qLess@U?$QPair@_K_K@@@@@@YA?AViterator@?$QList@U?$QPair@_K_K@@@@V01@0ABU?$QPair@_K_K@@V?$qLess@U?$QPair@_K_K@@@@@Z 1003bde0 f i dwarfhelper.obj
 0001:0003ae10       ??$qUpperBound@Viterator@?$QList@U?$QPair@_K_K@@@@U?$QPair@_K_K@@V?$qLess@U?$QPair@_K_K@@@@@@YA?AViterator@?$QList@U?$QPair@_K_K@@@@V01@0ABU?$QPair@_K_K@@V?$qLess@U?$QPair@_K_K@@@@@Z 1003be10 f i dwarfhelper.obj
 0001:0003ae40       ??$qRotate@Viterator@?$QList@U?$QPair@_K_K@@@@@QAlgorithmsPrivate@@YAXViterator@?$QList@U?$QPair@_K_K@@@@00@Z 1003be40 f i dwarfhelper.obj
 0001:0003ae90       ??1?$QForeachContainer@V?$QList@PAVDwarfHelperAllocableItem@@@@@@QAE@XZ 1003be90 f i dwarfhelper.obj
 0001:0003aeb0       ?setFrameRuleTableSize@DwarfHelper@@QAEGG@Z 1003beb0 f   dwarfhelper.obj
 0001:0003aee0       ??0?$QList@PAUDwarf_Locdesc@@@@QAE@ABV0@@Z 1003bee0 f i dwarfhelper.obj
 0001:0003af30       ?insert@?$QMutableListIterator@U?$QPair@_K_K@@@@QAEXABU?$QPair@_K_K@@@Z 1003bf30 f i dwarfhelper.obj
 0001:0003af60       ??0?$QList@PAPAUDwarf_Line_s@@@@QAE@ABV0@@Z 1003bf60 f i dwarfhelper.obj
 0001:0003afb0       ?detach@?$QList@PAPAUDwarf_Arange_s@@@@QAEXXZ 1003bfb0 f i dwarfhelper.obj
 0001:0003afe0       ?detach@?$QVector@UDwarf_Regtable_Entry3_s@@@@QAEXXZ 1003bfe0 f i dwarfhelper.obj
 0001:0003b000       ?setSharable@?$QList@U?$QPair@_K_K@@@@QAEX_N@Z 1003c000 f i dwarfhelper.obj
 0001:0003b030       ?detach@?$QList@PAUDwarf_Locdesc@@@@QAEXXZ 1003c030 f i dwarfhelper.obj
 0001:0003b060       ?clear@?$QList@PAPAUDwarf_Arange_s@@@@QAEXXZ 1003c060 f i dwarfhelper.obj
 0001:0003b0e0       ?append@?$QList@PAPAUDwarf_Arange_s@@@@QAEXABQAPAUDwarf_Arange_s@@@Z 1003c0e0 f i dwarfhelper.obj
 0001:0003b130       ??1?$QList@VQFileInfo@@@@QAE@XZ 1003c130 f i dwarfhelper.obj
 0001:0003b150       ?append@?$QList@PAUDwarf_Locdesc@@@@QAEXABQAUDwarf_Locdesc@@@Z 1003c150 f i dwarfhelper.obj
 0001:0003b1a0       ??4?$QList@U?$QPair@_K_K@@@@QAEAAV0@ABV0@@Z 1003c1a0 f i dwarfhelper.obj
 0001:0003b1f0       ?clear@?$QList@U?$QPair@_K_K@@@@QAEXXZ 1003c1f0 f i dwarfhelper.obj
 0001:0003b290       ?append@?$QList@U?$QPair@_K_K@@@@QAEXABU?$QPair@_K_K@@@Z 1003c290 f i dwarfhelper.obj
 0001:0003b2f0       ?append@?$QList@PAPAUDwarf_Line_s@@@@QAEXABQAPAUDwarf_Line_s@@@Z 1003c2f0 f i dwarfhelper.obj
 0001:0003b340       ?detach@?$QList@PAVDwarfHelperAllocableItem@@@@QAEXXZ 1003c340 f i dwarfhelper.obj
 0001:0003b370       ??0?$QList@PAVDwarfHelperAllocableItem@@@@QAE@ABV0@@Z 1003c370 f i dwarfhelper.obj
 0001:0003b3c0       ??0?$QVector@VDwarfHelperAllocatedAttrItem@@@@QAE@ABV0@@Z 1003c3c0 f i dwarfhelper.obj
 0001:0003b400       ?detach@?$QVector@VDwarfHelperAllocatedAttrItem@@@@QAEXXZ 1003c400 f i dwarfhelper.obj
 0001:0003b420       ??4?$QList@PAVDwarfHelperAllocableItem@@@@QAEAAV0@ABV0@@Z 1003c420 f i dwarfhelper.obj
 0001:0003b490       ??4?$QVector@VDwarfHelperAllocatedAttrItem@@@@QAEAAV0@ABV0@@Z 1003c490 f i dwarfhelper.obj
 0001:0003b4e0       ?detach_helper@?$QList@VQFileInfo@@@@AAEXXZ 1003c4e0 f i dwarfhelper.obj
 0001:0003b530       ??$qMerge@Viterator@?$QList@U?$QPair@_K_K@@@@$$CBU?$QPair@_K_K@@V?$qLess@U?$QPair@_K_K@@@@@QAlgorithmsPrivate@@YAXViterator@?$QList@U?$QPair@_K_K@@@@00ABU?$QPair@_K_K@@V?$qLess@U?$QPair@_K_K@@@@@Z 1003c530 f i dwarfhelper.obj
 0001:0003b670       ??1?$QForeachContainer@V?$QList@VQFileInfo@@@@@@QAE@XZ 1003c670 f i dwarfhelper.obj
 0001:0003b690       ?specialHandling@DwarfHelper@@QAEXVQString@@@Z 1003c690 f   dwarfhelper.obj
 0001:0003b9f0       ?begin@?$QList@PAPAUDwarf_Arange_s@@@@QAE?AViterator@1@XZ 1003c9f0 f i dwarfhelper.obj
 0001:0003ba30       ?end@?$QList@PAPAUDwarf_Arange_s@@@@QAE?AViterator@1@XZ 1003ca30 f i dwarfhelper.obj
 0001:0003ba70       ?data@?$QVector@UDwarf_Regtable_Entry3_s@@@@QAEPAUDwarf_Regtable_Entry3_s@@XZ 1003ca70 f i dwarfhelper.obj
 0001:0003baa0       ?end@?$QList@U?$QPair@_K_K@@@@QAE?AViterator@1@XZ 1003caa0 f i dwarfhelper.obj
 0001:0003bad0       ??6?$QList@U?$QPair@_K_K@@@@QAEAAV0@ABU?$QPair@_K_K@@@Z 1003cad0 f i dwarfhelper.obj
 0001:0003baf0       ??0?$QMutableListIterator@U?$QPair@_K_K@@@@QAE@AAV?$QList@U?$QPair@_K_K@@@@@Z 1003caf0 f i dwarfhelper.obj
 0001:0003bb60       ??1?$QMutableListIterator@U?$QPair@_K_K@@@@QAE@XZ 1003cb60 f i dwarfhelper.obj
 0001:0003bb70       ?toFront@?$QMutableListIterator@U?$QPair@_K_K@@@@QAEXXZ 1003cb70 f i dwarfhelper.obj
 0001:0003bbc0       ?remove@?$QMutableListIterator@U?$QPair@_K_K@@@@QAEXXZ 1003cbc0 f i dwarfhelper.obj
 0001:0003bc10       ?begin@?$QList@PAUDwarf_Locdesc@@@@QAE?AViterator@1@XZ 1003cc10 f i dwarfhelper.obj
 0001:0003bc50       ?end@?$QList@PAUDwarf_Locdesc@@@@QAE?AViterator@1@XZ 1003cc50 f i dwarfhelper.obj
 0001:0003bc90       ??A?$QList@VQString@@@@QAEAAVQString@@H@Z 1003cc90 f i dwarfhelper.obj
 0001:0003bcc0       ?replace@?$QList@VQString@@@@QAEXHABVQString@@@Z 1003ccc0 f i dwarfhelper.obj
 0001:0003bd50       ?clear@?$QList@PAVDwarfHelperAllocableItem@@@@QAEXXZ 1003cd50 f i dwarfhelper.obj
 0001:0003bdd0       ?append@?$QList@PAVDwarfHelperAllocableItem@@@@QAEXABQAVDwarfHelperAllocableItem@@@Z 1003cdd0 f i dwarfhelper.obj
 0001:0003be20       ?clear@?$QVector@VDwarfHelperAllocatedAttrItem@@@@QAEXXZ 1003ce20 f i dwarfhelper.obj
 0001:0003bec0       ?data@?$QVector@VDwarfHelperAllocatedAttrItem@@@@QAEPAVDwarfHelperAllocatedAttrItem@@XZ 1003cec0 f i dwarfhelper.obj
 0001:0003bef0       ??0?$QForeachContainer@V?$QList@PAVDwarfHelperAllocableItem@@@@@@QAE@ABV?$QList@PAVDwarfHelperAllocableItem@@@@@Z 1003cef0 f i dwarfhelper.obj
 0001:0003bf60       ??0?$QForeachContainer@V?$QVector@VDwarfHelperAllocatedAttrItem@@@@@@QAE@ABV?$QVector@VDwarfHelperAllocatedAttrItem@@@@@Z 1003cf60 f i dwarfhelper.obj
 0001:0003bfb0       ??0?$QList@VQFileInfo@@@@QAE@ABV0@@Z 1003cfb0 f i dwarfhelper.obj
 0001:0003bfe0       ??4?$QHash@VQString@@V1@@@QAEAAV0@ABV0@@Z 1003cfe0 f i dwarfhelper.obj
 0001:0003c050       ??$qStableSortHelper@Viterator@?$QList@U?$QPair@_K_K@@@@U?$QPair@_K_K@@V?$qLess@U?$QPair@_K_K@@@@@QAlgorithmsPrivate@@YAXViterator@?$QList@U?$QPair@_K_K@@@@0ABU?$QPair@_K_K@@V?$qLess@U?$QPair@_K_K@@@@@Z 1003d050 f i dwarfhelper.obj
 0001:0003c0d0       ?sanityCheckLocationList@DwarfHelper@@AAE_NPAUDwarf_Attribute_s@@AAVQStringList@@@Z 1003d0d0 f   dwarfhelper.obj
 0001:0003c490       ?recordDieAllocation@DwarfHelper@@QAEXPAUDwarf_Die_s@@@Z 1003d490 f   dwarfhelper.obj
 0001:0003c500       ?recordBlockAllocation@DwarfHelper@@QAEXPAUDwarf_Block@@@Z 1003d500 f   dwarfhelper.obj
 0001:0003c570       ?recordLineListAllocation@DwarfHelper@@QAEXPAPAUDwarf_Line_s@@_K@Z 1003d570 f   dwarfhelper.obj
 0001:0003c5f0       ?recordLocdescListAllocation@DwarfHelper@@QAEXPAPAUDwarf_Locdesc@@_K@Z 1003d5f0 f   dwarfhelper.obj
 0001:0003c670       ?recordStringAllocation@DwarfHelper@@QAEXPAD@Z 1003d670 f   dwarfhelper.obj
 0001:0003c6e0       ?recordFdeCieAllocation@DwarfHelper@@QAEXPAPAUDwarf_Cie_s@@_JPAPAUDwarf_Fde_s@@1@Z 1003d6e0 f   dwarfhelper.obj
 0001:0003c770       ?recordArangeAllocation@DwarfHelper@@QAEXPAPAUDwarf_Arange_s@@_K@Z 1003d770 f   dwarfhelper.obj
 0001:0003c7f0       ?recordErrorAllocation@DwarfHelper@@QAEXPAUDwarf_Error_s@@@Z 1003d7f0 f   dwarfhelper.obj
 0001:0003c860       ?recordRangeAllocation@DwarfHelper@@QAEXPAUDwarf_Ranges@@_J@Z 1003d860 f   dwarfhelper.obj
 0001:0003c8e0       ??6?$QList@VQString@@@@QAEAAV0@ABVQString@@@Z 1003d8e0 f i dwarfhelper.obj
 0001:0003c900       ?first@?$QList@PAUDwarf_Locdesc@@@@QAEAAPAUDwarf_Locdesc@@XZ 1003d900 f i dwarfhelper.obj
 0001:0003c940       ?last@?$QList@PAUDwarf_Locdesc@@@@QAEAAPAUDwarf_Locdesc@@XZ 1003d940 f i dwarfhelper.obj
 0001:0003c980       ??A?$QVector@VDwarfHelperAllocatedAttrItem@@@@QAEAAVDwarfHelperAllocatedAttrItem@@H@Z 1003d980 f i dwarfhelper.obj
 0001:0003c9b0       ?clear@?$QHash@VQString@@V1@@@QAEXXZ 1003d9b0 f i dwarfhelper.obj
 0001:0003ca20       ??$qForeachContainerNew@V?$QList@PAVDwarfHelperAllocableItem@@@@@@YA?AV?$QForeachContainer@V?$QList@PAVDwarfHelperAllocableItem@@@@@@ABV?$QList@PAVDwarfHelperAllocableItem@@@@@Z 1003da20 f i dwarfhelper.obj
 0001:0003ca40       ??$qForeachContainerNew@V?$QVector@VDwarfHelperAllocatedAttrItem@@@@@@YA?AV?$QForeachContainer@V?$QVector@VDwarfHelperAllocatedAttrItem@@@@@@ABV?$QVector@VDwarfHelperAllocatedAttrItem@@@@@Z 1003da40 f i dwarfhelper.obj
 0001:0003caa0       ??0?$QForeachContainer@V?$QList@VQFileInfo@@@@@@QAE@ABV?$QList@VQFileInfo@@@@@Z 1003daa0 f i dwarfhelper.obj
 0001:0003caf0       ??$qStableSortHelper@Viterator@?$QList@U?$QPair@_K_K@@@@U?$QPair@_K_K@@@QAlgorithmsPrivate@@YAXViterator@?$QList@U?$QPair@_K_K@@@@0ABU?$QPair@_K_K@@@Z 1003daf0 f i dwarfhelper.obj
 0001:0003cb20       ?throwLibdwarfError@DwarfHelper@@AAEXABVQString@@PAUDwarf_Error_s@@@Z 1003db20 f   dwarfhelper.obj
 0001:0003cc50       ?hasTag@DwarfHelper@@QAE_NPAUDwarf_Die_s@@G@Z 1003dc50 f   dwarfhelper.obj
 0001:0003ccd0       ?getTag@DwarfHelper@@QAEGPAUDwarf_Die_s@@@Z 1003dcd0 f   dwarfhelper.obj
 0001:0003cd50       ?hasAttr@DwarfHelper@@QAE_NPAUDwarf_Die_s@@G@Z 1003dd50 f   dwarfhelper.obj
 0001:0003cdf0       ?getGlobalRef@DwarfHelper@@QAE_NPAUDwarf_Die_s@@GPA_K@Z 1003ddf0 f   dwarfhelper.obj
 0001:0003cef0       ?requireTag@DwarfHelper@@QAEXPAUDwarf_Die_s@@G@Z 1003def0 f   dwarfhelper.obj
 0001:0003d000       ?requireGlobalRef@DwarfHelper@@QAE_KPAUDwarf_Die_s@@G@Z 1003e000 f   dwarfhelper.obj
 0001:0003d120       ?requireDieOffset@DwarfHelper@@QAE_KPAUDwarf_Die_s@@@Z 1003e120 f   dwarfhelper.obj
 0001:0003d1a0       ?absOffset@DwarfHelper@@QAE_KPAUDwarf_Die_s@@_K@Z 1003e1a0 f   dwarfhelper.obj
 0001:0003d280       ?removePerUnitAllocatables@DwarfHelper@@AAEXXZ 1003e280 f   dwarfhelper.obj
 0001:0003d400       ?nextCu@DwarfHelper@@QAE_NXZ 1003e400 f   dwarfhelper.obj
 0001:0003d4d0       ?siblingOf@DwarfHelper@@AAE_NPAUDwarf_Die_s@@PAPAU2@_N@Z 1003e4d0 f   dwarfhelper.obj
 0001:0003d580       ?getChild@DwarfHelper@@AAE_NPAUDwarf_Die_s@@PAPAU2@_N@Z 1003e580 f   dwarfhelper.obj
 0001:0003d630       ?dieAtOffset@DwarfHelper@@QAE_N_KPAPAUDwarf_Die_s@@_N@Z 1003e630 f   dwarfhelper.obj
 0001:0003d6e0       ?getSrcLines@DwarfHelper@@QAE?AV?$QList@PAPAUDwarf_Line_s@@@@PAUDwarf_Die_s@@@Z 1003e6e0 f   dwarfhelper.obj
 0001:0003d900       ?getLineSrc@DwarfHelper@@QAE_NPAUDwarf_Line_s@@PAVQString@@@Z 1003e900 f   dwarfhelper.obj
 0001:0003d9e0       ?getLineAddr@DwarfHelper@@QAE_NPAUDwarf_Line_s@@PA_K@Z 1003e9e0 f   dwarfhelper.obj
 0001:0003daa0       ?getLineNo@DwarfHelper@@QAE_NPAUDwarf_Line_s@@PA_K@Z 1003eaa0 f   dwarfhelper.obj
 0001:0003db20       ?getLineEndSequence@DwarfHelper@@QAE_NPAUDwarf_Line_s@@PAH@Z 1003eb20 f   dwarfhelper.obj
 0001:0003dba0       ?lineIsStatementBegin@DwarfHelper@@QAE_NPAUDwarf_Line_s@@PAH@Z 1003eba0 f   dwarfhelper.obj
 0001:0003dc20       ?getFdeList@DwarfHelper@@QAE_NPAPAPAUDwarf_Cie_s@@PA_JPAPAPAUDwarf_Fde_s@@1@Z 1003ec20 f   dwarfhelper.obj
 0001:0003dd50       ?getFde@DwarfHelper@@QAE_NPAPAUDwarf_Fde_s@@_K0@Z 1003ed50 f   dwarfhelper.obj
 0001:0003ddf0       ?getCieForFde@DwarfHelper@@QAE_NPAUDwarf_Fde_s@@PAPAUDwarf_Cie_s@@@Z 1003edf0 f   dwarfhelper.obj
 0001:0003de70       ?getCieReturnAddressRegister@DwarfHelper@@QAE_NPAUDwarf_Cie_s@@PAG@Z 1003ee70 f   dwarfhelper.obj
 0001:0003df00       ?getFdeLowHighPc@DwarfHelper@@QAE_NPAUDwarf_Fde_s@@PA_K1@Z 1003ef00 f   dwarfhelper.obj
 0001:0003dfb0       ?recordAttrAllocation@DwarfHelper@@QAEXPAUDwarf_Attribute_s@@@Z 1003efb0 f   dwarfhelper.obj
 0001:0003e000       ?noHostname@DwarfHelper@@QAE?AVQString@@ABV2@@Z 1003f000 f   dwarfhelper.obj
 0001:0003e2c0       ?getFdeForPC@DwarfHelper@@QAE_N_KPAPAUDwarf_Fde_s@@PA_K2@Z 1003f2c0 f   dwarfhelper.obj
 0001:0003e390       ??$qForeachContainerNew@V?$QList@VQFileInfo@@@@@@YA?AV?$QForeachContainer@V?$QList@VQFileInfo@@@@@@ABV?$QList@VQFileInfo@@@@@Z 1003f390 f i dwarfhelper.obj
 0001:0003e3f0       ??$qStableSort@Viterator@?$QList@U?$QPair@_K_K@@@@@@YAXViterator@?$QList@U?$QPair@_K_K@@@@0@Z 1003f3f0 f i dwarfhelper.obj
 0001:0003e420       ??0DwarfHelper@@QAE@AAPAUDwarf_Debug_s@@AAVDwarfHelperReporter@@@Z 1003f420 f   dwarfhelper.obj
 0001:0003e710       ??1DwarfHelper@@UAE@XZ     1003f710 f   dwarfhelper.obj
 0001:0003e950       ?getString@DwarfHelper@@QAE_NPAUDwarf_Die_s@@GPAPAD@Z 1003f950 f   dwarfhelper.obj
 0001:0003ea40       ?getUnsigned@DwarfHelper@@QAE_NPAUDwarf_Die_s@@GPA_K@Z 1003fa40 f   dwarfhelper.obj
 0001:0003eb30       ?getSigned@DwarfHelper@@QAE_NPAUDwarf_Die_s@@GPA_J@Z 1003fb30 f   dwarfhelper.obj
 0001:0003ec20       ?getSignedOrUnsigned@DwarfHelper@@QAE_NPAUDwarf_Die_s@@GPA_JPA_KPA_N@Z 1003fc20 f   dwarfhelper.obj
 0001:0003ed30       ?getAddr@DwarfHelper@@QAE_NPAUDwarf_Die_s@@GPA_K@Z 1003fd30 f   dwarfhelper.obj
 0001:0003ee20       ?getRef@DwarfHelper@@QAE_NPAUDwarf_Die_s@@GPA_K@Z 1003fe20 f   dwarfhelper.obj
 0001:0003ef10       ?getBlock@DwarfHelper@@QAE_NPAUDwarf_Die_s@@GPAPAUDwarf_Block@@@Z 1003ff10 f   dwarfhelper.obj
 0001:0003f010       ?getLocation@DwarfHelper@@QAE?AV?$QList@PAUDwarf_Locdesc@@@@PAUDwarf_Die_s@@G@Z 10040010 f   dwarfhelper.obj
 0001:0003f6b0       ?getFlag@DwarfHelper@@QAE_NPAUDwarf_Die_s@@GPAH@Z 100406b0 f   dwarfhelper.obj
 0001:0003f7a0       ?getConstOffsetLocationFast@DwarfHelper@@QAE_NPAUDwarf_Die_s@@GPA_K@Z 100407a0 f   dwarfhelper.obj
 0001:0003f940       ?getConstOffsetLocation@DwarfHelper@@QAE_NPAUDwarf_Die_s@@GPA_K@Z 10040940 f   dwarfhelper.obj
 0001:0003fad0       ?getARanges@DwarfHelper@@AAE?AV?$QList@U?$QPair@_K_K@@@@PAUDwarf_Die_s@@@Z 10040ad0 f   dwarfhelper.obj
 0001:0003feb0       ?getLowHighPc@DwarfHelper@@AAEXPAUDwarf_Die_s@@PA_K1W4AddrDefaultAction@1@2@Z 10040eb0 f   dwarfhelper.obj
 0001:00040170       ??1EliminatedSectionException@@QAE@XZ 10041170 f i dwarfhelper.obj
 0001:00040190       ??0EliminatedSectionException@@QAE@ABV0@@Z 10041190 f i dwarfhelper.obj
 0001:000401b0       ?consolidateRanges@DwarfHelper@@AAE?AV?$QList@U?$QPair@_K_K@@@@V2@@Z 100411b0 f   dwarfhelper.obj
 0001:00040540       ?requireString@DwarfHelper@@QAEPADPAUDwarf_Die_s@@G@Z 10041540 f   dwarfhelper.obj
 0001:00040650       ?requireUnsigned@DwarfHelper@@QAE_KPAUDwarf_Die_s@@G@Z 10041650 f   dwarfhelper.obj
 0001:00040770       ?requireSigned@DwarfHelper@@QAE_JPAUDwarf_Die_s@@G@Z 10041770 f   dwarfhelper.obj
 0001:00040890       ?requireAddr@DwarfHelper@@QAE_KPAUDwarf_Die_s@@G@Z 10041890 f   dwarfhelper.obj
 0001:000409b0       ?requireRef@DwarfHelper@@QAE_KPAUDwarf_Die_s@@G@Z 100419b0 f   dwarfhelper.obj
 0001:00040ad0       ?requireBlock@DwarfHelper@@QAEPAUDwarf_Block@@PAUDwarf_Die_s@@G@Z 10041ad0 f   dwarfhelper.obj
 0001:00040be0       ?requireLocation@DwarfHelper@@QAE?AV?$QList@PAUDwarf_Locdesc@@@@PAUDwarf_Die_s@@G@Z 10041be0 f   dwarfhelper.obj
 0001:00040d20       ?requireConstOffsetLocation@DwarfHelper@@QAE_KPAUDwarf_Die_s@@G@Z 10041d20 f   dwarfhelper.obj
 0001:00040e40       ?numberOfCus@DwarfHelper@@QAEHXZ 10041e40 f   dwarfhelper.obj
 0001:00040e70       ?getUnrecordedSibling@DwarfHelper@@QAE_NPAUDwarf_Die_s@@PAPAU2@@Z 10041e70 f   dwarfhelper.obj
 0001:00040e90       ?getUnrecordedChild@DwarfHelper@@QAE_NPAUDwarf_Die_s@@PAPAU2@@Z 10041e90 f   dwarfhelper.obj
 0001:00040eb0       ?getUnrecordedDieAtOffset@DwarfHelper@@QAE_N_KPAPAUDwarf_Die_s@@@Z 10041eb0 f   dwarfhelper.obj
 0001:00040ed0       ?getGreatestCommonCompileDirs@DwarfHelper@@QAE?AV?$QList@VQString@@@@XZ 10041ed0 f   dwarfhelper.obj
 0001:000411b0       ?getName@DwarfHelper@@QAEABVQString@@PAUDwarf_Die_s@@_N@Z 100421b0 f   dwarfhelper.obj
 0001:00041350       ?lookupAbstractOrigin@DwarfHelper@@AAE_NPAUDwarf_Die_s@@PAVDwarfHelperAbstractOriginDie@@@Z 10042350 f   dwarfhelper.obj
 0001:000413c0       ?abstractOriginWithAttr@DwarfHelper@@QAE_NGPAUDwarf_Die_s@@PAVDwarfHelperAbstractOriginDie@@@Z 100423c0 f   dwarfhelper.obj
 0001:00041500       ??_EDwarfHelper@@UAEPAXI@Z 10042500 f i dwarfhelper.obj
 0001:00041500       ??_GDwarfHelper@@UAEPAXI@Z 10042500 f i dwarfhelper.obj
 0001:00041520       ?getDebugRanges@DwarfHelper@@AAE?AV?$QList@U?$QPair@_K_K@@@@PAUDwarf_Die_s@@_KPA_N@Z 10042520 f   dwarfhelper.obj
 0001:00041860       ?getPcRanges@DwarfHelper@@QAE?AV?$QList@U?$QPair@_K_K@@@@PAUDwarf_Die_s@@_KW4AddrDefaultAction@1@2@Z 10042860 f   dwarfhelper.obj
 0001:000419e0       ?getCuPcRanges@DwarfHelper@@QAE?AV?$QList@U?$QPair@_K_K@@@@PAUDwarf_Die_s@@@Z 100429e0 f   dwarfhelper.obj
 0001:00041dd0       ?getFdeRegLocation@DwarfHelper@@QAE?AVLocation@@PAUDwarf_Fde_s@@_KHV2@@Z 10042dd0 f   dwarfhelper.obj
 0001:00042140       ?requireName@DwarfHelper@@QAEABVQString@@PAUDwarf_Die_s@@@Z 10043140 f   dwarfhelper.obj
 0001:00042150       ?node_construct@?$QList@VLocation@@@@AAEXPAUNode@1@ABVLocation@@@Z 10043150 f i dwarfhelper.obj
 0001:000421c0       ?makeCfaLoc@DwarfHelper@@AAE?AVLocation@@E_J00@Z 100431c0 f   dwarfhelper.obj
 0001:000422c0       ?getFdeCfaLocation@DwarfHelper@@QAE?AVLocation@@PAUDwarf_Fde_s@@_K@Z 100432c0 f   dwarfhelper.obj
 0001:00042460       ?detach@?$QMap@HVLocation@@@@QAEXXZ 10043460 f i dwarfhelper.obj
 0001:00042480       ?insert@?$QMap@HVLocation@@@@QAE?AViterator@1@ABHABVLocation@@@Z 10043480 f i dwarfhelper.obj
 0001:000424f0       ?append@?$QList@VLocation@@@@QAEXABVLocation@@@Z 100434f0 f i dwarfhelper.obj
 0001:00042520       ??0?$QMap@HVLocation@@@@QAE@ABV0@@Z 10043520 f i dwarfhelper.obj
 0001:00042560       ??6?$QList@VLocation@@@@QAEAAV0@ABVLocation@@@Z 10043560 f i dwarfhelper.obj
 0001:00042590       ?getFdeAllRegLocations@DwarfHelper@@QAE?AV?$QMap@HVLocation@@@@PAUDwarf_Fde_s@@_KHPAVLocation@@@Z 10043590 f   dwarfhelper.obj
 0001:00042a50       ?getCFALocationListFromFDE@DwarfHelper@@QAE?AV?$QList@VLocation@@@@PAUDwarf_Fde_s@@_K1@Z 10043a50 f   dwarfhelper.obj
 0001:00042ce0       ?isRangeRelative@Location@@QBE_NXZ 10043ce0 f i dwarflocationbuilder.obj
 0001:00042cf0       ?getBegin@Location@@QBEIXZ 10043cf0 f i dwarflocationbuilder.obj
 0001:00042d00       ?getEnd@Location@@QBEIXZ   10043d00 f i dwarflocationbuilder.obj
 0001:00042d10       ??0DwarfLocationBuilder@@QAE@PAVDwarfTypeBuilder@@@Z 10043d10 f   dwarflocationbuilder.obj
 0001:00042d80       ??1DwarfLocationBuilder@@UAE@XZ 10043d80 f   dwarflocationbuilder.obj
 0001:00042da0       ?clear@DwarfLocationBuilder@@QAEXXZ 10043da0 f   dwarflocationbuilder.obj
 0001:00042db0       ?findDieWithAttr@DwarfLocationBuilder@@AAE_NPAVDwarfHelper@@GPAUDwarf_Die_s@@PAPAU3@@Z 10043db0 f   dwarflocationbuilder.obj
 0001:00042de0       ?findAoDieWithAttr@DwarfLocationBuilder@@AAE_NPAVDwarfHelper@@GPAUDwarf_Die_s@@AAVDwarfHelperAbstractOriginDie@@@Z 10043de0 f   dwarflocationbuilder.obj
 0001:00042e00       ?size@?$QList@PAUDwarf_Locdesc@@@@QBEHXZ 10043e00 f i dwarflocationbuilder.obj
 0001:00042e10       ??0iterator@?$QList@PAUDwarf_Locdesc@@@@QAE@XZ 10043e10 f i dwarflocationbuilder.obj
 0001:00042e20       ??9iterator@?$QList@PAUDwarf_Locdesc@@@@QBE_NABV01@@Z 10043e20 f i dwarflocationbuilder.obj
 0001:00042e40       ??Eiterator@?$QList@PAUDwarf_Locdesc@@@@QAEAAV01@XZ 10043e40 f i dwarflocationbuilder.obj
 0001:00042e50       ?at@?$QList@PAUDwarf_Locdesc@@@@QBEABQAUDwarf_Locdesc@@H@Z 10043e50 f i dwarflocationbuilder.obj
 0001:00042e60       ?node_destruct@?$QList@VLocation@@@@AAEXPAUNode@1@@Z 10043e60 f i dwarflocationbuilder.obj
 0001:00042e80       ??_EDwarfLocationBuilder@@UAEPAXI@Z 10043e80 f i dwarflocationbuilder.obj
 0001:00042e80       ??_GDwarfLocationBuilder@@UAEPAXI@Z 10043e80 f i dwarflocationbuilder.obj
 0001:00042eb0       ?erase@?$QList@VLocation@@@@QAE?AViterator@1@V21@@Z 10043eb0 f i dwarflocationbuilder.obj
 0001:00042ee0       ?evaluateLocation@DwarfLocationBuilder@@QAE?AVLocation@@PAVDwarfHelper@@PAUDwarf_Locdesc@@@Z 10043ee0 f   dwarflocationbuilder.obj
 0001:000441c0       ?prepend@?$QList@VLocation@@@@QAEXABVLocation@@@Z 100451c0 f i dwarflocationbuilder.obj
 0001:000441f0       ?getLocationList@DwarfLocationBuilder@@QAE?AV?$QList@VLocation@@@@PAVDwarfHelper@@PAUDwarf_Die_s@@GPA_N@Z 100451f0 f   dwarflocationbuilder.obj
 0001:000445a0       ?push_front@?$QList@VLocation@@@@QAEXABVLocation@@@Z 100455a0 f i dwarflocationbuilder.obj
 0001:000445d0       ?removeFirst@?$QList@VLocation@@@@QAEXXZ 100455d0 f i dwarflocationbuilder.obj
 0001:00044610       ?makeSubprogramContexts@DwarfLocationBuilder@@QAE?AV?$QList@PAVSymbolContext@@@@PAVDwarfHelper@@PAUDwarf_Die_s@@_K_NH@Z 10045610 f   dwarflocationbuilder.obj
 0001:00044e10       ?pop_front@?$QList@VLocation@@@@QAEXXZ 10045e10 f i dwarflocationbuilder.obj
 0001:00044e50       ?makeSymbol@DwarfLocationBuilder@@QAE?AVSymbol@@PAVDwarfHelper@@PAUDwarf_Die_s@@PA_N@Z 10045e50 f   dwarflocationbuilder.obj
 0001:00045590       ??0QBool@@QAE@_N@Z         10046590 f i dwarfstackframelocationresolver.obj
 0001:000455a0       ??0HeuristicUnwinder@@QAE@XZ 100465a0 f i dwarfstackframelocationresolver.obj
 0001:000455b0       ??1HeuristicUnwinder@@UAE@XZ 100465b0 f i dwarfstackframelocationresolver.obj
 0001:000455c0       ??_GHeuristicUnwinder@@UAEPAXI@Z 100465c0 f i dwarfstackframelocationresolver.obj
 0001:000455c0       ??_EHeuristicUnwinder@@UAEPAXI@Z 100465c0 f i dwarfstackframelocationresolver.obj
 0001:000455e0       ??0CallStackItem@@QAE@IVMemAddr@@@Z 100465e0 f i dwarfstackframelocationresolver.obj
 0001:00045650       ??0NullHeuristicUnwinder@@QAE@XZ 10046650 f i dwarfstackframelocationresolver.obj
 0001:00045660       ?returnAddress@NullHeuristicUnwinder@@UAE_NIAAUActivation@@_NPAI@Z 10046660 f i dwarfstackframelocationresolver.obj
 0001:00045670       ??1NullHeuristicUnwinder@@UAE@XZ 10046670 f i dwarfstackframelocationresolver.obj
 0001:00045680       ?setActiveStackFrame@DwarfStackFrameLocationResolver@@UAEXH@Z 10046680 f   dwarfstackframelocationresolver.obj
 0001:000456a0       ?setSymbols@DwarfStackFrameLocationResolver@@QAEXPAVSymbols@@@Z 100466a0 f   dwarfstackframelocationresolver.obj
 0001:000456b0       ?invalidate@DwarfStackFrameLocationResolver@@QAEXXZ 100466b0 f   dwarfstackframelocationresolver.obj
 0001:00045790       ?setSymbolList@DwarfStackFrameLocationResolver@@QAEXPAVSymbolListBase@@@Z 10046790 f   dwarfstackframelocationresolver.obj
 0001:000457a0       ??0Symbol@SymbolListBase@@QAE@XZ 100467a0 f i dwarfstackframelocationresolver.obj
 0001:000457d0       ??1Symbol@SymbolListBase@@QAE@XZ 100467d0 f i dwarfstackframelocationresolver.obj
 0001:000457f0       ??4Symbol@SymbolListBase@@QAEAAU01@ABU01@@Z 100467f0 f i dwarfstackframelocationresolver.obj
 0001:00045820       ??4CallStackItem@@QAEAAU0@ABU0@@Z 10046820 f i dwarfstackframelocationresolver.obj
 0001:00045880       ?setBodge@DwarfStackFrameLocationResolver@@QAEXW4DwarfStackBodge@1@@Z 10046880 f   dwarfstackframelocationresolver.obj
 0001:000458c0       ??0?$QMap@VAddressRange@@URegisterSet@DwarfStackFrameLocationResolver@@@@QAE@XZ 100468c0 f i dwarfstackframelocationresolver.obj
 0001:000458e0       ?isEmpty@?$QList@I@@QBE_NXZ 100468e0 f i dwarfstackframelocationresolver.obj
 0001:000458f0       ?empty@?$QList@I@@QBE_NXZ  100468f0 f i dwarfstackframelocationresolver.obj
 0001:00045900       ??0?$QList@VMemAddr@@@@QAE@XZ 10046900 f i dwarfstackframelocationresolver.obj
 0001:00045920       ?isEmpty@?$QList@VMemAddr@@@@QBE_NXZ 10046920 f i dwarfstackframelocationresolver.obj
 0001:00045930       ??0const_iterator@?$QMap@VAddressRange@@URegisterSet@DwarfStackFrameLocationResolver@@@@QAE@XZ 10046930 f i dwarfstackframelocationresolver.obj
 0001:00045940       ??9const_iterator@?$QMap@VAddressRange@@URegisterSet@DwarfStackFrameLocationResolver@@@@QBE_NABV01@@Z 10046940 f i dwarfstackframelocationresolver.obj
 0001:00045960       ??Fconst_iterator@?$QMap@VAddressRange@@URegisterSet@DwarfStackFrameLocationResolver@@@@QAEAAV01@XZ 10046960 f i dwarfstackframelocationresolver.obj
 0001:00045970       ?data@?$Basic@VHeuristicUnwinder@@@QtSharedPointer@@QBEPAVHeuristicUnwinder@@XZ 10046970 f i dwarfstackframelocationresolver.obj
 0001:00045980       ??0const_iterator@?$QMap@VAddressRange@@URegisterSet@DwarfStackFrameLocationResolver@@@@QAE@PAUNode@QMapData@@@Z 10046980 f i dwarfstackframelocationresolver.obj
 0001:00045990       ??9const_iterator@?$QList@USymbol@SymbolListBase@@@@QBE_NABV01@@Z 10046990 f i dwarfstackframelocationresolver.obj
 0001:000459b0       ??Fconst_iterator@?$QList@USymbol@SymbolListBase@@@@QAEAAV01@XZ 100469b0 f i dwarfstackframelocationresolver.obj
 0001:000459c0       ??Fiterator@?$QList@VMemAddr@@@@QAEAAV01@XZ 100469c0 f i dwarfstackframelocationresolver.obj
 0001:000459d0       ?ref@?$ExternalRefCount@VHeuristicUnwinder@@@QtSharedPointer@@IBEXXZ 100469d0 f i dwarfstackframelocationresolver.obj
 0001:000459f0       ??0?$Basic@VHeuristicUnwinder@@@QtSharedPointer@@IAE@XZ 100469f0 f i dwarfstackframelocationresolver.obj
 0001:00045a00       ?internalConstruct@?$Basic@VHeuristicUnwinder@@@QtSharedPointer@@IAEXPAVHeuristicUnwinder@@@Z 10046a00 f i dwarfstackframelocationresolver.obj
 0001:00045a10       ?payload@?$QMap@VAddressRange@@URegisterSet@DwarfStackFrameLocationResolver@@@@CAHXZ 10046a10 f i dwarfstackframelocationresolver.obj
 0001:00045a20       ??0const_iterator@?$QList@USymbol@SymbolListBase@@@@QAE@PAUNode@1@@Z 10046a20 f i dwarfstackframelocationresolver.obj
 0001:00045a30       ??0iterator@?$QList@VMemAddr@@@@QAE@PAUNode@1@@Z 10046a30 f i dwarfstackframelocationresolver.obj
 0001:00045a40       ??0iterator@?$QList@VMemAddr@@@@QAE@ABV01@@Z 10046a40 f i dwarfstackframelocationresolver.obj
 0001:00045a50       ?t@Node@?$QList@USymbol@SymbolListBase@@@@QAEAAUSymbol@SymbolListBase@@XZ 10046a50 f i dwarfstackframelocationresolver.obj
 0001:00045a60       ?t@Node@?$QList@VMemAddr@@@@QAEAAVMemAddr@@XZ 10046a60 f i dwarfstackframelocationresolver.obj
 0001:00045a70       ?internalDestroy@?$Basic@VHeuristicUnwinder@@@QtSharedPointer@@IAEXXZ 10046a70 f i dwarfstackframelocationresolver.obj
 0001:00045a80       ??8?$QList@I@@QBE_NABV0@@Z 10046a80 f i dwarfstackframelocationresolver.obj
 0001:00045ae0       ?t@Node@?$QList@H@@QAEAAHXZ 10046ae0 f i dwarfstackframelocationresolver.obj
 0001:00045af0       ??$qMapLessThanKey@VAddressRange@@@@YA_NABVAddressRange@@0@Z 10046af0 f i dwarfstackframelocationresolver.obj
 0001:00045b00       ?node_construct@?$QList@VMemAddr@@@@AAEXPAUNode@1@ABVMemAddr@@@Z 10046b00 f i dwarfstackframelocationresolver.obj
 0001:00045b30       ?node_destruct@?$QList@VMemAddr@@@@AAEXPAUNode@1@@Z 10046b30 f i dwarfstackframelocationresolver.obj
 0001:00045b40       ?node_copy@?$QList@VMemAddr@@@@AAEXPAUNode@1@00@Z 10046b40 f i dwarfstackframelocationresolver.obj
 0001:00045b90       ?node_construct@?$QList@UCallStackItem@@@@AAEXPAUNode@1@ABUCallStackItem@@@Z 10046b90 f i dwarfstackframelocationresolver.obj
 0001:00045c00       ??0Symbol@SymbolListBase@@QAE@ABU01@@Z 10046c00 f i dwarfstackframelocationresolver.obj
 0001:00045c30       ?node_destruct@?$QList@VMemAddr@@@@AAEXPAUNode@1@0@Z 10046c30 f i dwarfstackframelocationresolver.obj
 0001:00045c60       ?node_destruct@?$QList@H@@AAEXPAUNode@1@0@Z 10046c60 f i dwarfstackframelocationresolver.obj
 0001:00045c70       ??_GSymbol@SymbolListBase@@QAEPAXI@Z 10046c70 f i dwarfstackframelocationresolver.obj
 0001:00045ca0       ??_ENullHeuristicUnwinder@@UAEPAXI@Z 10046ca0 f i dwarfstackframelocationresolver.obj
 0001:00045ca0       ??_GNullHeuristicUnwinder@@UAEPAXI@Z 10046ca0 f i dwarfstackframelocationresolver.obj
 0001:00045cc0       ?stackTraceInProgress@DwarfStackFrameLocationResolver@@UBE_NXZ 10046cc0 f   dwarfstackframelocationresolver.obj
 0001:00045ce0       ?activeStackFrame@DwarfStackFrameLocationResolver@@UAEHXZ 10046ce0 f   dwarfstackframelocationresolver.obj
 0001:00045d00       ?findFileAndLine@DwarfStackFrameLocationResolver@@ABE_NIPAVQString@@PAH@Z 10046d00 f   dwarfstackframelocationresolver.obj
 0001:00045e10       ??C?$Basic@VHeuristicUnwinder@@@QtSharedPointer@@QBEPAVHeuristicUnwinder@@XZ 10046e10 f i dwarfstackframelocationresolver.obj
 0001:00045e20       ?constBegin@?$QMap@VAddressRange@@URegisterSet@DwarfStackFrameLocationResolver@@@@QBE?AVconst_iterator@1@XZ 10046e20 f i dwarfstackframelocationresolver.obj
 0001:00045e30       ?constEnd@?$QMap@VAddressRange@@URegisterSet@DwarfStackFrameLocationResolver@@@@QBE?AVconst_iterator@1@XZ 10046e30 f i dwarfstackframelocationresolver.obj
 0001:00045e40       ??9?$QList@I@@QBE_NABV0@@Z 10046e40 f i dwarfstackframelocationresolver.obj
 0001:00045e60       ?internalConstruct@?$ExternalRefCount@VHeuristicUnwinder@@@QtSharedPointer@@IAEXPAVHeuristicUnwinder@@@Z 10046e60 f i dwarfstackframelocationresolver.obj
 0001:00045ea0       ??0?$ExternalRefCount@VHeuristicUnwinder@@@QtSharedPointer@@IAE@XZ 10046ea0 f i dwarfstackframelocationresolver.obj
 0001:00045eb0       ??0?$ExternalRefCount@VHeuristicUnwinder@@@QtSharedPointer@@IAE@ABV01@@Z 10046eb0 f i dwarfstackframelocationresolver.obj
 0001:00045ef0       ?concrete@?$QMap@VAddressRange@@URegisterSet@DwarfStackFrameLocationResolver@@@@CAPAU?$QMapNode@VAddressRange@@URegisterSet@DwarfStackFrameLocationResolver@@@@PAUNode@QMapData@@@Z 10046ef0 f i dwarfstackframelocationresolver.obj
 0001:00045f00       ?constBegin@?$QList@USymbol@SymbolListBase@@@@QBE?AVconst_iterator@1@XZ 10046f00 f i dwarfstackframelocationresolver.obj
 0001:00045f20       ?constEnd@?$QList@USymbol@SymbolListBase@@@@QBE?AVconst_iterator@1@XZ 10046f20 f i dwarfstackframelocationresolver.obj
 0001:00045f40       ??Dconst_iterator@?$QList@USymbol@SymbolListBase@@@@QBEABUSymbol@SymbolListBase@@XZ 10046f40 f i dwarfstackframelocationresolver.obj
 0001:00045f50       ??Diterator@?$QList@VMemAddr@@@@QBEAAVMemAddr@@XZ 10046f50 f i dwarfstackframelocationresolver.obj
 0001:00045f60       ?internalDestroy@?$ExternalRefCount@VHeuristicUnwinder@@@QtSharedPointer@@IAEXXZ 10046f60 f i dwarfstackframelocationresolver.obj
 0001:00045f90       ?erase@?$QList@VMemAddr@@@@QAE?AViterator@1@V21@@Z 10046f90 f i dwarfstackframelocationresolver.obj
 0001:00045fc0       ?contains@?$QList@H@@QBE?AVQBool@@ABH@Z 10046fc0 f i dwarfstackframelocationresolver.obj
 0001:00046000       ?mutableFindNode@?$QMap@VAddressRange@@URegisterSet@DwarfStackFrameLocationResolver@@@@ABEPAUNode@QMapData@@QAPAU23@ABVAddressRange@@@Z 10047000 f i dwarfstackframelocationresolver.obj
 0001:00046070       ?free@?$QList@VMemAddr@@@@AAEXPAUData@QListData@@@Z 10047070 f i dwarfstackframelocationresolver.obj
 0001:000460c0       ?free@?$QList@H@@AAEXPAUData@QListData@@@Z 100470c0 f i dwarfstackframelocationresolver.obj
 0001:000460e0       ?node_copy@?$QList@USymbol@SymbolListBase@@@@AAEXPAUNode@1@00@Z 100470e0 f i dwarfstackframelocationresolver.obj
 0001:00046170       ?node_destruct@?$QList@USymbol@SymbolListBase@@@@AAEXPAUNode@1@0@Z 10047170 f i dwarfstackframelocationresolver.obj
 0001:000461c0       ?key@const_iterator@?$QMap@VAddressRange@@URegisterSet@DwarfStackFrameLocationResolver@@@@QBEABVAddressRange@@XZ 100471c0 f i dwarfstackframelocationresolver.obj
 0001:000461d0       ?value@const_iterator@?$QMap@VAddressRange@@URegisterSet@DwarfStackFrameLocationResolver@@@@QBEABURegisterSet@DwarfStackFrameLocationResolver@@XZ 100471d0 f i dwarfstackframelocationresolver.obj
 0001:000461e0       ?toBack@?$QListIterator@USymbol@SymbolListBase@@@@QAEXXZ 100471e0 f i dwarfstackframelocationresolver.obj
 0001:000461f0       ?hasPrevious@?$QListIterator@USymbol@SymbolListBase@@@@QBE_NXZ 100471f0 f i dwarfstackframelocationresolver.obj
 0001:00046210       ?previous@?$QListIterator@USymbol@SymbolListBase@@@@QAEABUSymbol@SymbolListBase@@XZ 10047210 f i dwarfstackframelocationresolver.obj
 0001:00046220       ?deref@?$ExternalRefCount@VHeuristicUnwinder@@@QtSharedPointer@@IAE_NXZ 10047220 f i dwarfstackframelocationresolver.obj
 0001:00046270       ?upperBound@?$QMap@VAddressRange@@URegisterSet@DwarfStackFrameLocationResolver@@@@QBE?AVconst_iterator@1@ABVAddressRange@@@Z 10047270 f i dwarfstackframelocationresolver.obj
 0001:000462c0       ??1?$QList@VMemAddr@@@@QAE@XZ 100472c0 f i dwarfstackframelocationresolver.obj
 0001:000462e0       ?detach_helper@?$QList@VMemAddr@@@@AAEXXZ 100472e0 f i dwarfstackframelocationresolver.obj
 0001:00046330       ??1?$QList@H@@QAE@XZ       10047330 f i dwarfstackframelocationresolver.obj
 0001:00046350       ?free@?$QList@USymbol@SymbolListBase@@@@AAEXPAUData@QListData@@@Z 10047350 f i dwarfstackframelocationresolver.obj
 0001:00046380       ??0RegisterSet@DwarfStackFrameLocationResolver@@QAE@XZ 10047380 f i dwarfstackframelocationresolver.obj
 0001:000463b0       ??1RegisterSet@DwarfStackFrameLocationResolver@@QAE@XZ 100473b0 f i dwarfstackframelocationresolver.obj
 0001:00046420       ??1?$ExternalRefCount@VHeuristicUnwinder@@@QtSharedPointer@@IAE@XZ 10047420 f i dwarfstackframelocationresolver.obj
 0001:00046450       ??0?$QList@VMemAddr@@@@QAE@ABV0@@Z 10047450 f i dwarfstackframelocationresolver.obj
 0001:00046480       ?detach@?$QList@VMemAddr@@@@QAEXXZ 10047480 f i dwarfstackframelocationresolver.obj
 0001:00046490       ?clear@?$QList@I@@QAEXXZ   10047490 f i dwarfstackframelocationresolver.obj
 0001:00046510       ??A?$QList@I@@QAEAAIH@Z    10047510 f i dwarfstackframelocationresolver.obj
 0001:00046550       ??4?$QList@VMemAddr@@@@QAEAAV0@ABV0@@Z 10047550 f i dwarfstackframelocationresolver.obj
 0001:000465a0       ?clear@?$QList@VMemAddr@@@@QAEXXZ 100475a0 f i dwarfstackframelocationresolver.obj
 0001:00046640       ?append@?$QList@VMemAddr@@@@QAEXABVMemAddr@@@Z 10047640 f i dwarfstackframelocationresolver.obj
 0001:00046690       ??1?$QList@USymbol@SymbolListBase@@@@QAE@XZ 10047690 f i dwarfstackframelocationresolver.obj
 0001:000466d0       ?detach_helper@?$QList@USymbol@SymbolListBase@@@@AAEXXZ 100476d0 f i dwarfstackframelocationresolver.obj
 0001:00046740       ??_GRegisterSet@DwarfStackFrameLocationResolver@@QAEPAXI@Z 10047740 f i dwarfstackframelocationresolver.obj
 0001:00046760       ?detach@?$QList@UCallStackItem@@@@QAEXXZ 10047760 f i dwarfstackframelocationresolver.obj
 0001:00046770       ??1?$QSharedPointer@VHeuristicUnwinder@@@@QAE@XZ 10047770 f i dwarfstackframelocationresolver.obj
 0001:000467a0       ??1StackFrameLocationResolver@@UAE@XZ 100477a0 f i dwarfstackframelocationresolver.obj
 0001:00046820       ?findSourceAddr@DwarfStackFrameLocationResolver@@ABE_NVQString@@HPAI@Z 10047820 f   dwarfstackframelocationresolver.obj
 0001:00046970       ??1?$QListIterator@USymbol@SymbolListBase@@@@QAE@XZ 10047970 f i dwarfstackframelocationresolver.obj
 0001:000469b0       ??0?$QSharedPointer@VHeuristicUnwinder@@@@QAE@PAVHeuristicUnwinder@@@Z 100479b0 f i dwarfstackframelocationresolver.obj
 0001:00046a20       ??0?$QSharedPointer@VHeuristicUnwinder@@@@QAE@ABV0@@Z 10047a20 f i dwarfstackframelocationresolver.obj
 0001:00046a60       ??0?$QList@UCallStackItem@@@@QAE@ABV0@@Z 10047a60 f i dwarfstackframelocationresolver.obj
 0001:00046a90       ?end@?$QList@VMemAddr@@@@QAE?AViterator@1@XZ 10047a90 f i dwarfstackframelocationresolver.obj
 0001:00046ac0       ?removeLast@?$QList@VMemAddr@@@@QAEXXZ 10047ac0 f i dwarfstackframelocationresolver.obj
 0001:00046b00       ??0?$QList@USymbol@SymbolListBase@@@@QAE@ABV0@@Z 10047b00 f i dwarfstackframelocationresolver.obj
 0001:00046b30       ?freeData@?$QMap@VAddressRange@@URegisterSet@DwarfStackFrameLocationResolver@@@@AAEXPAUQMapData@@@Z 10047b30 f i dwarfstackframelocationresolver.obj
 0001:00046bd0       ?append@?$QList@UCallStackItem@@@@QAEXABUCallStackItem@@@Z 10047bd0 f i dwarfstackframelocationresolver.obj
 0001:00046c00       ?setDisplayStackFrameSlot@DwarfStackFrameLocationResolver@@MAEXH@Z 10047c00 f   dwarfstackframelocationresolver.obj
 0001:00046ee0       ??1?$QMap@VAddressRange@@URegisterSet@DwarfStackFrameLocationResolver@@@@QAE@XZ 10047ee0 f i dwarfstackframelocationresolver.obj
 0001:00046f00       ?last@?$QList@VMemAddr@@@@QAEAAVMemAddr@@XZ 10047f00 f i dwarfstackframelocationresolver.obj
 0001:00046f20       ?pop_back@?$QList@VMemAddr@@@@QAEXXZ 10047f20 f i dwarfstackframelocationresolver.obj
 0001:00046f60       ??0?$QListIterator@USymbol@SymbolListBase@@@@QAE@ABV?$QList@USymbol@SymbolListBase@@@@@Z 10047f60 f i dwarfstackframelocationresolver.obj
 0001:00046fa0       ??0DwarfStackFrameLocationResolver@@QAE@XZ 10047fa0 f   dwarfstackframelocationresolver.obj
 0001:000470b0       ?readInterruptStackPointer@StackFrameLocationResolver@@EBE?AVMemAddr@@PA_N@Z 100480b0 f i dwarfstackframelocationresolver.obj
 0001:000470e0       ?readLinkRegister@StackFrameLocationResolver@@EBEIPA_N@Z 100480e0 f i dwarfstackframelocationresolver.obj
 0001:000470f0       ?isUserMode@StackFrameLocationResolver@@EBE_NPA_N@Z 100480f0 f i dwarfstackframelocationresolver.obj
 0001:00047100       ??_EDwarfStackFrameLocationResolver@@W7AEPAXI@Z 10048100 f i dwarfstackframelocationresolver.obj
 0001:00047110       ??1DwarfStackFrameLocationResolver@@UAE@XZ 10048110 f i dwarfstackframelocationresolver.obj
 0001:00047210       ??0DwarfStackFrameLocationResolver@@QAE@V?$QSharedPointer@VHeuristicUnwinder@@@@@Z 10048210 f   dwarfstackframelocationresolver.obj
 0001:00047390       ?readProgramCounter@DwarfStackFrameLocationResolver@@UBEIPA_N@Z 10048390 f   dwarfstackframelocationresolver.obj
 0001:00047420       ?readStackPointer@DwarfStackFrameLocationResolver@@UBE?AVMemAddr@@PA_N@Z 10048420 f   dwarfstackframelocationresolver.obj
 0001:000474d0       ?readFrameBase@DwarfStackFrameLocationResolver@@UBE?AVMemAddr@@PA_N@Z 100484d0 f   dwarfstackframelocationresolver.obj
 0001:000476d0       ??_EDwarfStackFrameLocationResolver@@UAEPAXI@Z 100486d0 f i dwarfstackframelocationresolver.obj
 0001:000476d0       ??_GDwarfStackFrameLocationResolver@@UAEPAXI@Z 100486d0 f i dwarfstackframelocationresolver.obj
 0001:000476f0       ?guessPossibleFunctionLabel@DwarfStackFrameLocationResolver@@AAEXIAAUCallStackItem@@@Z 100486f0 f   dwarfstackframelocationresolver.obj
 0001:00047c20       ?createStackItem@DwarfStackFrameLocationResolver@@AAE_NIVMemAddr@@PAUCallStackItem@@W4stackInlineState@1@@Z 10048c20 f   dwarfstackframelocationresolver.obj
 0001:00048130       ??4RegisterSet@DwarfStackFrameLocationResolver@@QAEAAU01@ABU01@@Z 10049130 f i dwarfstackframelocationresolver.obj
 0001:000481a0       ??A?$QMap@HVLocation@@@@QAEAAVLocation@@ABH@Z 100491a0 f i dwarfstackframelocationresolver.obj
 0001:00048250       ??0RegisterSet@DwarfStackFrameLocationResolver@@QAE@ABU01@@Z 10049250 f i dwarfstackframelocationresolver.obj
 0001:000482d0       ?cacheFrameDetails@DwarfStackFrameLocationResolver@@ABE_NI@Z 100492d0 f   dwarfstackframelocationresolver.obj
 0001:000483d0       ?node_create@?$QMap@VAddressRange@@URegisterSet@DwarfStackFrameLocationResolver@@@@AAEPAUNode@QMapData@@PAU3@QAPAU23@ABVAddressRange@@ABURegisterSet@DwarfStackFrameLocationResolver@@@Z 100493d0 f i dwarfstackframelocationresolver.obj
 0001:00048460       ?returnAddrReg@DwarfStackFrameLocationResolver@@ABEHIPA_N@Z 10049460 f   dwarfstackframelocationresolver.obj
 0001:000484b0       ?cfaLocation@DwarfStackFrameLocationResolver@@AAE?AVLocation@@I@Z 100494b0 f   dwarfstackframelocationresolver.obj
 0001:00048580       ?registerLocation@DwarfStackFrameLocationResolver@@ABE?AVLocation@@IH@Z 10049580 f   dwarfstackframelocationresolver.obj
 0001:00048670       ?unwindStack@DwarfStackFrameLocationResolver@@AAE_N_NIHAAI111AAH@Z 10049670 f   dwarfstackframelocationresolver.obj
 0001:00048c00       ?createStackItemList@DwarfStackFrameLocationResolver@@AAEXXZ 10049c00 f   dwarfstackframelocationresolver.obj
 0001:00048cf0       ?detach_helper@?$QMap@VAddressRange@@URegisterSet@DwarfStackFrameLocationResolver@@@@AAEXXZ 10049cf0 f i dwarfstackframelocationresolver.obj
 0001:00048d70       ?readRegisterAux@DwarfStackFrameLocationResolver@@UBE?AVQByteArray@@HHPA_N@Z 10049d70 f   dwarfstackframelocationresolver.obj
 0001:00049300       ?writeRegisterAux@DwarfStackFrameLocationResolver@@UBE_NHVQByteArray@@H@Z 1004a300 f   dwarfstackframelocationresolver.obj
 0001:000496f0       ?update@DwarfStackFrameLocationResolver@@QAEXXZ 1004a6f0 f   dwarfstackframelocationresolver.obj
 0001:00049740       ?detach@?$QMap@VAddressRange@@URegisterSet@DwarfStackFrameLocationResolver@@@@QAEXXZ 1004a740 f i dwarfstackframelocationresolver.obj
 0001:00049760       ??4?$QMap@VAddressRange@@URegisterSet@DwarfStackFrameLocationResolver@@@@QAEAAV0@ABV0@@Z 1004a760 f i dwarfstackframelocationresolver.obj
 0001:000497b0       ?callStackItems@DwarfStackFrameLocationResolver@@UAE?AV?$QList@UCallStackItem@@@@XZ 1004a7b0 f   dwarfstackframelocationresolver.obj
 0001:000497f0       ?clear@?$QMap@VAddressRange@@URegisterSet@DwarfStackFrameLocationResolver@@@@QAEXXZ 1004a7f0 f i dwarfstackframelocationresolver.obj
 0001:000498a0       ??A?$QMap@VAddressRange@@URegisterSet@DwarfStackFrameLocationResolver@@@@QAEAAURegisterSet@DwarfStackFrameLocationResolver@@ABVAddressRange@@@Z 1004a8a0 f i dwarfstackframelocationresolver.obj
 0001:00049960       ?clear@DwarfStackFrameLocationResolver@@UAEXXZ 1004a960 f   dwarfstackframelocationresolver.obj
 0001:00049990       ?setCfaLocation@DwarfStackFrameLocationResolver@@QAEXVAddressRange@@VLocation@@@Z 1004a990 f   dwarfstackframelocationresolver.obj
 0001:00049a00       ?setReturnAddrReg@DwarfStackFrameLocationResolver@@QAEXVAddressRange@@H@Z 1004aa00 f   dwarfstackframelocationresolver.obj
 0001:00049a60       ?setFrameSize@DwarfStackFrameLocationResolver@@QAEXVAddressRange@@H@Z 1004aa60 f   dwarfstackframelocationresolver.obj
 0001:00049ac0       ?setLocation@DwarfStackFrameLocationResolver@@QAEXVAddressRange@@HVLocation@@@Z 1004aac0 f   dwarfstackframelocationresolver.obj
 0001:00049b40       ?makeClassType@DwarfTypeBuilder@@AAEPAVSymbolType@@PAVDwarfHelper@@PAUDwarf_Die_s@@H@Z 1004ab40 f   dwarftypebuilder.obj
 0001:00049b90       ?makeFileType@DwarfTypeBuilder@@AAEPAVSymbolType@@PAVDwarfHelper@@PAUDwarf_Die_s@@H@Z 1004ab90 f   dwarftypebuilder.obj
 0001:00049be0       ?makePackedType@DwarfTypeBuilder@@AAEPAVSymbolType@@PAVDwarfHelper@@PAUDwarf_Die_s@@H@Z 1004abe0 f   dwarftypebuilder.obj
 0001:00049c30       ?makePointerToMemberType@DwarfTypeBuilder@@AAEPAVSymbolType@@PAVDwarfHelper@@PAUDwarf_Die_s@@H@Z 1004ac30 f   dwarftypebuilder.obj
 0001:00049c80       ?makeReferenceType@DwarfTypeBuilder@@AAEPAVSymbolType@@PAVDwarfHelper@@PAUDwarf_Die_s@@H@Z 1004ac80 f   dwarftypebuilder.obj
 0001:00049cd0       ?makeSetType@DwarfTypeBuilder@@AAEPAVSymbolType@@PAVDwarfHelper@@PAUDwarf_Die_s@@H@Z 1004acd0 f   dwarftypebuilder.obj
 0001:00049d20       ?makeStringType@DwarfTypeBuilder@@AAEPAVSymbolType@@PAVDwarfHelper@@PAUDwarf_Die_s@@H@Z 1004ad20 f   dwarftypebuilder.obj
 0001:00049d70       ?makeThrownType@DwarfTypeBuilder@@AAEPAVSymbolType@@PAVDwarfHelper@@PAUDwarf_Die_s@@H@Z 1004ad70 f   dwarftypebuilder.obj
 0001:00049dc0       ?getForeignTypeIndex@DwarfTypeBuilder@@QAEHXZ 1004adc0 f   dwarftypebuilder.obj
 0001:00049dd0       ??0?$QList@PAVForwardType@@@@QAE@XZ 1004add0 f i dwarftypebuilder.obj
 0001:00049df0       ??0?$QHash@VQString@@PAVSymbolType@@@@QAE@XZ 1004adf0 f i dwarftypebuilder.obj
 0001:00049e10       ??0?$QHash@HPAVSymbolType@@@@QAE@XZ 1004ae10 f i dwarftypebuilder.obj
 0001:00049e30       ??0?$QList@PAVSymbolType@@@@QAE@XZ 1004ae30 f i dwarftypebuilder.obj
 0001:00049e50       ??0iterator@?$QList@PAVForwardType@@@@QAE@XZ 1004ae50 f i dwarftypebuilder.obj
 0001:00049e60       ??0iterator@?$QList@PAVForwardType@@@@QAE@ABV01@@Z 1004ae60 f i dwarftypebuilder.obj
 0001:00049e70       ??0const_iterator@?$QList@PAVForwardType@@@@QAE@ABViterator@1@@Z 1004ae70 f i dwarftypebuilder.obj
 0001:00049e80       ??9const_iterator@?$QList@PAVForwardType@@@@QBE_NABV01@@Z 1004ae80 f i dwarftypebuilder.obj
 0001:00049ea0       ??0iterator@?$QList@PAVForwardType@@@@QAE@PAUNode@1@@Z 1004aea0 f i dwarftypebuilder.obj
 0001:00049eb0       ??0const_iterator@?$QList@PAVForwardType@@@@QAE@PAUNode@1@@Z 1004aeb0 f i dwarftypebuilder.obj
 0001:00049ec0       ?t@Node@?$QList@PAVForwardType@@@@QAEAAPAVForwardType@@XZ 1004aec0 f i dwarftypebuilder.obj
 0001:00049ed0       ??0iterator@?$QHash@HPAVSymbolType@@@@QAE@PAX@Z 1004aed0 f i dwarftypebuilder.obj
 0001:00049ee0       ??0const_iterator@?$QList@PAVSymbolType@@@@QAE@PAUNode@1@@Z 1004aee0 f i dwarftypebuilder.obj
 0001:00049ef0       ?node_construct@?$QList@PAVForwardType@@@@AAEXPAUNode@1@ABQAVForwardType@@@Z 1004aef0 f i dwarftypebuilder.obj
 0001:00049f00       ?node_destruct@?$QList@PAVForwardType@@@@AAEXPAUNode@1@@Z 1004af00 f i dwarftypebuilder.obj
 0001:00049f10       ?node_copy@?$QList@PAVForwardType@@@@AAEXPAUNode@1@00@Z 1004af10 f i dwarftypebuilder.obj
 0001:00049f20       ?deleteNode@?$QHash@HPAVSymbolType@@@@AAEXPAU?$QHashNode@HPAVSymbolType@@@@@Z 1004af20 f i dwarftypebuilder.obj
 0001:00049f30       ?concrete@?$QHash@VQString@@PAVSymbolType@@@@CAPAU?$QHashNode@VQString@@PAVSymbolType@@@@PAUNode@QHashData@@@Z 1004af30 f i dwarftypebuilder.obj
 0001:00049f40       ??0?$QHashNode@VQString@@PAVSymbolType@@@@QAE@ABVQString@@ABQAVSymbolType@@@Z 1004af40 f i dwarftypebuilder.obj
 0001:00049f60       ??0?$QHashDummyNode@VQString@@PAVSymbolType@@@@QAE@ABVQString@@@Z 1004af60 f i dwarftypebuilder.obj
 0001:00049f80       ??0?$QHashNode@HPAVSymbolType@@@@QAE@HABQAVSymbolType@@@Z 1004af80 f i dwarftypebuilder.obj
 0001:00049f90       ?same_key@?$QHashNode@HPAVSymbolType@@@@QAE_NIH@Z 1004af90 f i dwarftypebuilder.obj
 0001:00049fa0       ??9const_iterator@?$QList@PAVSymbolType@@@@QBE_NABV01@@Z 1004afa0 f i dwarftypebuilder.obj
 0001:00049fc0       ??Econst_iterator@?$QList@PAVSymbolType@@@@QAEAAV01@XZ 1004afc0 f i dwarftypebuilder.obj
 0001:00049fd0       ??0?$QHashDummyNode@HPAVSymbolType@@@@QAE@H@Z 1004afd0 f i dwarftypebuilder.obj
 0001:00049fe0       ?t@Node@?$QList@PAVSymbolType@@@@QAEAAPAVSymbolType@@XZ 1004afe0 f i dwarftypebuilder.obj
 0001:00049ff0       ?node_destruct@?$QList@PAVForwardType@@@@AAEXPAUNode@1@0@Z 1004aff0 f i dwarftypebuilder.obj
 0001:0004a000       ?concrete@?$QHash@HPAVSymbolType@@@@CAPAU?$QHashNode@HPAVSymbolType@@@@PAUNode@QHashData@@@Z 1004b000 f i dwarftypebuilder.obj
 0001:0004a010       ?constEnd@?$QList@PAVForwardType@@@@QBE?AVconst_iterator@1@XZ 1004b010 f i dwarftypebuilder.obj
 0001:0004a030       ??Diterator@?$QList@PAVForwardType@@@@QBEAAPAVForwardType@@XZ 1004b030 f i dwarftypebuilder.obj
 0001:0004a040       ??Eiterator@?$QList@PAVForwardType@@@@QAE?AV01@H@Z 1004b040 f i dwarftypebuilder.obj
 0001:0004a050       ?erase@?$QList@PAVForwardType@@@@QAE?AViterator@1@V21@@Z 1004b050 f i dwarftypebuilder.obj
 0001:0004a070       ?freeData@?$QHash@HPAVSymbolType@@@@AAEXPAUQHashData@@@Z 1004b070 f i dwarftypebuilder.obj
 0001:0004a0c0       ?begin@?$QList@PAVSymbolType@@@@QBE?AVconst_iterator@1@XZ 1004b0c0 f i dwarftypebuilder.obj
 0001:0004a0e0       ?end@?$QList@PAVSymbolType@@@@QBE?AVconst_iterator@1@XZ 1004b0e0 f i dwarftypebuilder.obj
 0001:0004a100       ?free@?$QList@PAVForwardType@@@@AAEXPAUData@QListData@@@Z 1004b100 f i dwarftypebuilder.obj
 0001:0004a120       ?createNode@?$QHash@VQString@@PAVSymbolType@@@@AAEPAU?$QHashNode@VQString@@PAVSymbolType@@@@IABVQString@@ABQAVSymbolType@@PAPAU2@@Z 1004b120 f i dwarftypebuilder.obj
 0001:0004a1a0       ?duplicateNode@?$QHash@VQString@@PAVSymbolType@@@@CAXPAUNode@QHashData@@PAX@Z 1004b1a0 f i dwarftypebuilder.obj
 0001:0004a200       ?findNode@?$QHash@HPAVSymbolType@@@@ABEPAPAU?$QHashNode@HPAVSymbolType@@@@ABHPAI@Z 1004b200 f i dwarftypebuilder.obj
 0001:0004a250       ?createNode@?$QHash@HPAVSymbolType@@@@AAEPAU?$QHashNode@HPAVSymbolType@@@@IABHABQAVSymbolType@@PAPAU2@@Z 1004b250 f i dwarftypebuilder.obj
 0001:0004a290       ??Dconst_iterator@?$QList@PAVSymbolType@@@@QBEABQAVSymbolType@@XZ 1004b290 f i dwarftypebuilder.obj
 0001:0004a2a0       ?duplicateNode@?$QHash@HPAVSymbolType@@@@CAXPAUNode@QHashData@@PAX@Z 1004b2a0 f i dwarftypebuilder.obj
 0001:0004a2c0       ??1?$QHash@HPAVSymbolType@@@@QAE@XZ 1004b2c0 f i dwarftypebuilder.obj
 0001:0004a2e0       ?hasNext@?$QMutableListIterator@PAVForwardType@@@@QBE_NXZ 1004b2e0 f i dwarftypebuilder.obj
 0001:0004a300       ?next@?$QMutableListIterator@PAVForwardType@@@@QAEAAPAVForwardType@@XZ 1004b300 f i dwarftypebuilder.obj
 0001:0004a310       ??1?$QList@PAVForwardType@@@@QAE@XZ 1004b310 f i dwarftypebuilder.obj
 0001:0004a330       ?detach_helper@?$QList@PAVForwardType@@@@AAEXXZ 1004b330 f i dwarftypebuilder.obj
 0001:0004a350       ??1?$QList@PAVSymbolType@@@@QAE@XZ 1004b350 f i dwarftypebuilder.obj
 0001:0004a370       ??4?$QList@PAVForwardType@@@@QAEAAV0@ABV0@@Z 1004b370 f i dwarftypebuilder.obj
 0001:0004a3e0       ?detach_helper@?$QHash@HPAVSymbolType@@@@AAEXXZ 1004b3e0 f i dwarftypebuilder.obj
 0001:0004a420       ??$qDeleteAll@Vconst_iterator@?$QList@PAVSymbolType@@@@@@YAXVconst_iterator@?$QList@PAVSymbolType@@@@0@Z 1004b420 f i dwarftypebuilder.obj
 0001:0004a450       ?detach@?$QList@PAVForwardType@@@@QAEXXZ 1004b450 f i dwarftypebuilder.obj
 0001:0004a480       ?clear@?$QList@PAVForwardType@@@@QAEXXZ 1004b480 f i dwarftypebuilder.obj
 0001:0004a500       ?append@?$QList@PAVForwardType@@@@QAEXABQAVForwardType@@@Z 1004b500 f i dwarftypebuilder.obj
 0001:0004a550       ??$qDeleteAll@V?$QList@PAVSymbolType@@@@@@YAXABV?$QList@PAVSymbolType@@@@@Z 1004b550 f i dwarftypebuilder.obj
 0001:0004a580       ?detach@?$QHash@HPAVSymbolType@@@@QAEXXZ 1004b580 f i dwarftypebuilder.obj
 0001:0004a5c0       ??4?$QHash@HPAVSymbolType@@@@QAEAAV0@ABV0@@Z 1004b5c0 f i dwarftypebuilder.obj
 0001:0004a630       ??4?$QList@PAVSymbolType@@@@QAEAAV0@ABV0@@Z 1004b630 f i dwarftypebuilder.obj
 0001:0004a6a0       ?setSharable@?$QList@PAVForwardType@@@@QAEX_N@Z 1004b6a0 f i dwarftypebuilder.obj
 0001:0004a6f0       ?begin@?$QList@PAVForwardType@@@@QAE?AViterator@1@XZ 1004b6f0 f i dwarftypebuilder.obj
 0001:0004a730       ?end@?$QList@PAVForwardType@@@@QAE?AViterator@1@XZ 1004b730 f i dwarftypebuilder.obj
 0001:0004a770       ?detach_helper@?$QHash@VQString@@PAVSymbolType@@@@AAEXXZ 1004b770 f i dwarftypebuilder.obj
 0001:0004a7b0       ?clear@?$QHash@HPAVSymbolType@@@@QAEXXZ 1004b7b0 f i dwarftypebuilder.obj
 0001:0004a820       ??A?$QHash@HPAVSymbolType@@@@QAEAAPAVSymbolType@@ABH@Z 1004b820 f i dwarftypebuilder.obj
 0001:0004a8d0       ?insert@?$QHash@HPAVSymbolType@@@@QAE?AViterator@1@ABHABQAVSymbolType@@@Z 1004b8d0 f i dwarftypebuilder.obj
 0001:0004a9a0       ?clear@?$QList@PAVSymbolType@@@@QAEXXZ 1004b9a0 f i dwarftypebuilder.obj
 0001:0004aa20       ??4?$QHash@VQString@@PAVSymbolType@@@@QAEAAV0@ABV0@@Z 1004ba20 f i dwarftypebuilder.obj
 0001:0004aa90       ??0DwarfTypeBuilder@@QAE@XZ 1004ba90 f   dwarftypebuilder.obj
 0001:0004ab00       ??1DwarfTypeBuilder@@UAE@XZ 1004bb00 f   dwarftypebuilder.obj
 0001:0004ac00       ?push_back@?$QList@VTypeElement@@@@QAEXABVTypeElement@@@Z 1004bc00 f i dwarftypebuilder.obj
 0001:0004ac30       ??0?$QMutableListIterator@PAVForwardType@@@@QAE@AAV?$QList@PAVForwardType@@@@@Z 1004bc30 f i dwarftypebuilder.obj
 0001:0004acf0       ??1?$QMutableListIterator@PAVForwardType@@@@QAE@XZ 1004bcf0 f i dwarftypebuilder.obj
 0001:0004ad00       ?remove@?$QMutableListIterator@PAVForwardType@@@@QAEXXZ 1004bd00 f i dwarftypebuilder.obj
 0001:0004ad60       ?detach@?$QHash@VQString@@PAVSymbolType@@@@QAEXXZ 1004bd60 f i dwarftypebuilder.obj
 0001:0004ada0       ?clear@?$QHash@VQString@@PAVSymbolType@@@@QAEXXZ 1004bda0 f i dwarftypebuilder.obj
 0001:0004ae10       ??A?$QHash@VQString@@PAVSymbolType@@@@QAEAAPAVSymbolType@@ABVQString@@@Z 1004be10 f i dwarftypebuilder.obj
 0001:0004aec0       ??_GDwarfTypeBuilder@@UAEPAXI@Z 1004bec0 f i dwarftypebuilder.obj
 0001:0004aec0       ??_EDwarfTypeBuilder@@UAEPAXI@Z 1004bec0 f i dwarftypebuilder.obj
 0001:0004aee0       ?clear@DwarfTypeBuilder@@QAEXXZ 1004bee0 f   dwarftypebuilder.obj
 0001:0004af40       ?getType@DwarfTypeBuilder@@QAEPAVSymbolType@@ABVQString@@@Z 1004bf40 f   dwarftypebuilder.obj
 0001:0004af80       ?getType@DwarfTypeBuilder@@QAEPAVSymbolType@@H_N@Z 1004bf80 f   dwarftypebuilder.obj
 0001:0004b1d0       ?fixupForwardReferences@DwarfTypeBuilder@@AAEXXZ 1004c1d0 f   dwarftypebuilder.obj
 0001:0004b320       ?addForeignType@DwarfTypeBuilder@@QAEXHPAVSymbolType@@VQString@@@Z 1004c320 f   dwarftypebuilder.obj
 0001:0004b400       ??0?$QHash@VQString@@PAVSymbolType@@@@QAE@ABV0@@Z 1004c400 f i dwarftypebuilder.obj
 0001:0004b460       ?makeBaseType@DwarfTypeBuilder@@AAEPAVSymbolType@@PAVDwarfHelper@@PAUDwarf_Die_s@@H@Z 1004c460 f   dwarftypebuilder.obj
 0001:0004b7c0       ?makeConstType@DwarfTypeBuilder@@AAEPAVSymbolType@@PAVDwarfHelper@@PAUDwarf_Die_s@@H@Z 1004c7c0 f   dwarftypebuilder.obj
 0001:0004b8e0       ?makeEnumType@DwarfTypeBuilder@@AAEPAVSymbolType@@PAVDwarfHelper@@PAUDwarf_Die_s@@H@Z 1004c8e0 f   dwarftypebuilder.obj
 0001:0004bb30       ?makePointerType@DwarfTypeBuilder@@AAEPAVSymbolType@@PAVDwarfHelper@@PAUDwarf_Die_s@@H@Z 1004cb30 f   dwarftypebuilder.obj
 0001:0004bc90       ?makeSubrangeType@DwarfTypeBuilder@@AAEPAVSymbolType@@PAVDwarfHelper@@PAUDwarf_Die_s@@H@Z 1004cc90 f   dwarftypebuilder.obj
 0001:0004be20       ?makeSubroutineType@DwarfTypeBuilder@@AAEPAVSymbolType@@PAVDwarfHelper@@PAUDwarf_Die_s@@H@Z 1004ce20 f   dwarftypebuilder.obj
 0001:0004bfb0       ?makeTypedefType@DwarfTypeBuilder@@AAEPAVSymbolType@@PAVDwarfHelper@@PAUDwarf_Die_s@@H@Z 1004cfb0 f   dwarftypebuilder.obj
 0001:0004c0e0       ?makeVolatileType@DwarfTypeBuilder@@AAEPAVSymbolType@@PAVDwarfHelper@@PAUDwarf_Die_s@@H@Z 1004d0e0 f   dwarftypebuilder.obj
 0001:0004c200       ?makeCompositeType@DwarfTypeBuilder@@AAEPAVSymbolType@@_NPAVDwarfHelper@@PAUDwarf_Die_s@@H@Z 1004d200 f   dwarftypebuilder.obj
 0001:0004c7f0       ?makeMemberType@DwarfTypeBuilder@@AAE?AVTypeElement@@_NPAVDwarfHelper@@PAUDwarf_Die_s@@H@Z 1004d7f0 f   dwarftypebuilder.obj
 0001:0004cb40       ?makeIndexType@DwarfTypeBuilder@@AAEPAVSymbolType@@PAVDwarfHelper@@PAUDwarf_Die_s@@H@Z 1004db40 f   dwarftypebuilder.obj
 0001:0004cc00       ?getNamedTypes@DwarfTypeBuilder@@QAE?AV?$QHash@VQString@@PAVSymbolType@@@@XZ 1004dc00 f   dwarftypebuilder.obj
 0001:0004cc20       ?makeArrayType@DwarfTypeBuilder@@AAEPAVSymbolType@@PAVDwarfHelper@@PAUDwarf_Die_s@@H@Z 1004dc20 f   dwarftypebuilder.obj
 0001:0004cf40       ?makeStructType@DwarfTypeBuilder@@AAEPAVSymbolType@@PAVDwarfHelper@@PAUDwarf_Die_s@@H@Z 1004df40 f   dwarftypebuilder.obj
 0001:0004cf60       ?makeUnionType@DwarfTypeBuilder@@AAEPAVSymbolType@@PAVDwarfHelper@@PAUDwarf_Die_s@@H@Z 1004df60 f   dwarftypebuilder.obj
 0001:0004cf80       ?makeType@DwarfTypeBuilder@@QAEPAVSymbolType@@PAVDwarfHelper@@PAUDwarf_Die_s@@H@Z 1004df80 f   dwarftypebuilder.obj
 0001:0004d270       ?compositeTypeAux@DwarfTypeBuilder@@AAEX_NPAVDwarfHelper@@PAUDwarf_Die_s@@H0_KAA_NAAVTypeElement@@AAV?$QList@VTypeElement@@@@@Z 1004e270 f   dwarftypebuilder.obj
 0001:0004d570       ?tr@ElfParser@@SA?AVQString@@PBD0@Z 1004e570 f i elfparser.obj
 0001:0004d5a0       ??0StabRecord@@QAE@ABVQString@@HHHH@Z 1004e5a0 f i elfparser.obj
 0001:0004d800       ??0ElfParser@@QAE@G_N@Z    1004e800 f   elfparser.obj
 0001:0004d850       ?extraCheck@ElfParser@@MBE_NPBUElf32_Phdr@1@PBUElf32_Shdr@1@@Z 1004e850 f i elfparser.obj
 0001:0004d860       ?translateAddress@ElfParser@@MBE?AVMemAddr@@I@Z 1004e860 f i elfparser.obj
 0001:0004d890       ?translateCodeAddress@ElfParser@@MBE?AVMemAddr@@I@Z 1004e890 f i elfparser.obj
 0001:0004d8c0       ?translateDataAddress@ElfParser@@MBE?AVMemAddr@@I@Z 1004e8c0 f i elfparser.obj
 0001:0004d8f0       ??1ElfParser@@UAE@XZ       1004e8f0 f   elfparser.obj
 0001:0004d970       ?setMemoryImage@ElfParser@@QAEXPAVMemoryImage@@@Z 1004e970 f   elfparser.obj
 0001:0004d980       ?setGlobalSymbols@ElfParser@@QAEXPAVGlobalSymbols@@@Z 1004e980 f   elfparser.obj
 0001:0004d990       ?setStabBuilder@ElfParser@@QAEXPAVStabBuilder@@@Z 1004e990 f   elfparser.obj
 0001:0004d9a0       ?reverseElfAddr@ElfParser@@IAEPAIPAI@Z 1004e9a0 f   elfparser.obj
 0001:0004d9d0       ?reverseElfHalf@ElfParser@@IAEPAGPAG@Z 1004e9d0 f   elfparser.obj
 0001:0004d9f0       ?reverseElfOff@ElfParser@@IAEPAIPAI@Z 1004e9f0 f   elfparser.obj
 0001:0004da20       ?reverseElfSword@ElfParser@@IAEPAHPAH@Z 1004ea20 f   elfparser.obj
 0001:0004da50       ?reverseElfWord@ElfParser@@IAEPAIPAI@Z 1004ea50 f   elfparser.obj
 0001:0004da80       ?reverseElfHeader@ElfParser@@IAEPAUElf32_Ehdr@1@PAU21@@Z 1004ea80 f   elfparser.obj
 0001:0004dbb0       ?reverseElfSectionHeaders@ElfParser@@IAEPAUElf32_Shdr@1@PAU21@H@Z 1004ebb0 f   elfparser.obj
 0001:0004dd10       ?reverseElfProgramHeaders@ElfParser@@IAEPAUElf32_Phdr@1@PAU21@H@Z 1004ed10 f   elfparser.obj
 0001:0004de30       ?reverseElfSymbols@ElfParser@@IAEPAUElf32_Sym@1@PAU21@H@Z 1004ee30 f   elfparser.obj
 0001:0004dec0       ?reverseElfStabs@ElfParser@@IAEPAUElf32_Stab@1@PAU21@H@Z 1004eec0 f   elfparser.obj
 0001:0004df40       ??1StabRecord@@QAE@XZ      1004ef40 f i elfparser.obj
 0001:0004df60       ?loadableSection@ElfParser@@IBE_NPBUElf32_Shdr@1@@Z 1004ef60 f   elfparser.obj
 0001:0004df80       ??_GElfParser@@UAEPAXI@Z   1004ef80 f i elfparser.obj
 0001:0004df80       ??_EElfParser@@UAEPAXI@Z   1004ef80 f i elfparser.obj
 0001:0004dfa0       ?dataProcessed@ElfParser@@AAE_NI@Z 1004efa0 f   elfparser.obj
 0001:0004e070       ?executableSection@ElfParser@@IBE_NPBUElf32_Shdr@1@@Z 1004f070 f   elfparser.obj
 0001:0004e0a0       ?fileRead@ElfParser@@AAE_NPAXIIPAU_iobuf@@@Z 1004f0a0 f   elfparser.obj
 0001:0004e110       ?load@ElfParser@@QAE_NABVQString@@@Z 1004f110 f   elfparser.obj
 0001:00050af0       ??9@YA_NUNull@QString@@ABV1@@Z 10051af0 f i emulatormemory.obj
 0001:00050b10       ?tr@EmulatorMemory@@SA?AVQString@@PBD0@Z 10051b10 f i emulatormemory.obj
 0001:00050b40       ?parseSifAccess@EmulatorMemory@@AAE_NVQDomNode@@PAUSifAccess@1@@Z 10051b40 f   emulatormemory.obj
 0001:000511e0       ?setVerify@EmulatorMemory@@UAEX_N@Z 100521e0 f   emulatormemory.obj
 0001:000511f0       ?verify@EmulatorMemory@@UAE_NXZ 100521f0 f   emulatormemory.obj
 0001:00051200       ??0?$QPair@IW4MemoryResult@IMemory@@@@QAE@ABIABW4MemoryResult@IMemory@@@Z 10052200 f i emulatormemory.obj
 0001:00051220       ??4?$QPair@IW4MemoryResult@IMemory@@@@QAEAAU0@ABU0@@Z 10052220 f i emulatormemory.obj
 0001:00051240       ??0?$QList@UMemoryRange@EmulatorMemory@@@@QAE@XZ 10052240 f i emulatormemory.obj
 0001:00051260       ??0?$QList@USifAccess@EmulatorMemory@@@@QAE@XZ 10052260 f i emulatormemory.obj
 0001:00051280       ?size@?$QList@USifAccess@EmulatorMemory@@@@QBEHXZ 10052280 f i emulatormemory.obj
 0001:00051290       ??0?$QList@UMapping@EmulatorMemory@@@@QAE@XZ 10052290 f i emulatormemory.obj
 0001:000512b0       ??0?$QList@UPhysicalMemory@EmulatorMemory@@@@QAE@XZ 100522b0 f i emulatormemory.obj
 0001:000512d0       ??0const_iterator@?$QList@UPhysicalMemory@EmulatorMemory@@@@QAE@XZ 100522d0 f i emulatormemory.obj
 0001:000512e0       ??0const_iterator@?$QList@UPhysicalMemory@EmulatorMemory@@@@QAE@ABViterator@1@@Z 100522e0 f i emulatormemory.obj
 0001:000512f0       ??9const_iterator@?$QList@UPhysicalMemory@EmulatorMemory@@@@QBE_NABV01@@Z 100522f0 f i emulatormemory.obj
 0001:00051310       ??Econst_iterator@?$QList@UPhysicalMemory@EmulatorMemory@@@@QAEAAV01@XZ 10052310 f i emulatormemory.obj
 0001:00051320       ??0iterator@?$QList@UPhysicalMemory@EmulatorMemory@@@@QAE@XZ 10052320 f i emulatormemory.obj
 0001:00051330       ??9iterator@?$QList@UPhysicalMemory@EmulatorMemory@@@@QBE_NABV01@@Z 10052330 f i emulatormemory.obj
 0001:00051350       ??Eiterator@?$QList@UPhysicalMemory@EmulatorMemory@@@@QAEAAV01@XZ 10052350 f i emulatormemory.obj
 0001:00051360       ??0iterator@?$QList@UMemoryRange@EmulatorMemory@@@@QAE@XZ 10052360 f i emulatormemory.obj
 0001:00051370       ??9iterator@?$QList@UMemoryRange@EmulatorMemory@@@@QBE_NABV01@@Z 10052370 f i emulatormemory.obj
 0001:00051390       ??Eiterator@?$QList@UMemoryRange@EmulatorMemory@@@@QAEAAV01@XZ 10052390 f i emulatormemory.obj
 0001:000513a0       ??0iterator@?$QList@UMapping@EmulatorMemory@@@@QAE@XZ 100523a0 f i emulatormemory.obj
 0001:000513b0       ??9iterator@?$QList@UMapping@EmulatorMemory@@@@QBE_NABV01@@Z 100523b0 f i emulatormemory.obj
 0001:000513d0       ??Eiterator@?$QList@UMapping@EmulatorMemory@@@@QAEAAV01@XZ 100523d0 f i emulatormemory.obj
 0001:000513e0       ??0iterator@?$QList@USifAccess@EmulatorMemory@@@@QAE@XZ 100523e0 f i emulatormemory.obj
 0001:000513f0       ??9iterator@?$QList@USifAccess@EmulatorMemory@@@@QBE_NABV01@@Z 100523f0 f i emulatormemory.obj
 0001:00051410       ??Eiterator@?$QList@USifAccess@EmulatorMemory@@@@QAEAAV01@XZ 10052410 f i emulatormemory.obj
 0001:00051420       ??0iterator@?$QList@UPhysicalMemory@EmulatorMemory@@@@QAE@PAUNode@1@@Z 10052420 f i emulatormemory.obj
 0001:00051430       ??0iterator@?$QList@UMemoryRange@EmulatorMemory@@@@QAE@PAUNode@1@@Z 10052430 f i emulatormemory.obj
 0001:00051440       ??0iterator@?$QList@UMapping@EmulatorMemory@@@@QAE@PAUNode@1@@Z 10052440 f i emulatormemory.obj
 0001:00051450       ??0iterator@?$QList@USifAccess@EmulatorMemory@@@@QAE@PAUNode@1@@Z 10052450 f i emulatormemory.obj
 0001:00051460       ?t@Node@?$QList@UPhysicalMemory@EmulatorMemory@@@@QAEAAUPhysicalMemory@EmulatorMemory@@XZ 10052460 f i emulatormemory.obj
 0001:00051470       ?t@Node@?$QList@UMemoryRange@EmulatorMemory@@@@QAEAAUMemoryRange@EmulatorMemory@@XZ 10052470 f i emulatormemory.obj
 0001:00051480       ?t@Node@?$QList@UMapping@EmulatorMemory@@@@QAEAAUMapping@EmulatorMemory@@XZ 10052480 f i emulatormemory.obj
 0001:00051490       ?t@Node@?$QList@USifAccess@EmulatorMemory@@@@QAEAAUSifAccess@EmulatorMemory@@XZ 10052490 f i emulatormemory.obj
 0001:000514a0       ?t@Node@?$QList@PAVMemoryImage@@@@QAEAAPAVMemoryImage@@XZ 100524a0 f i emulatormemory.obj
 0001:000514b0       ?node_copy@?$QList@UMemoryRange@EmulatorMemory@@@@AAEXPAUNode@1@00@Z 100524b0 f i emulatormemory.obj
 0001:00051500       ?node_construct@?$QList@USifAccess@EmulatorMemory@@@@AAEXPAUNode@1@ABUSifAccess@EmulatorMemory@@@Z 10052500 f i emulatormemory.obj
 0001:00051540       ?node_copy@?$QList@USifAccess@EmulatorMemory@@@@AAEXPAUNode@1@00@Z 10052540 f i emulatormemory.obj
 0001:00051590       ?node_destruct@?$QList@UMemoryRange@EmulatorMemory@@@@AAEXPAUNode@1@0@Z 10052590 f i emulatormemory.obj
 0001:000515c0       ?node_destruct@?$QList@USifAccess@EmulatorMemory@@@@AAEXPAUNode@1@0@Z 100525c0 f i emulatormemory.obj
 0001:000515f0       ?node_copy@?$QList@PAUMemoryBlock@MemoryImage@@@@AAEXPAUNode@1@00@Z 100525f0 f i emulatormemory.obj
 0001:00051600       ?node_destruct@?$QList@PAUMemoryBlock@MemoryImage@@@@AAEXPAUNode@1@0@Z 10052600 f i emulatormemory.obj
 0001:00051610       ??Dconst_iterator@?$QList@UPhysicalMemory@EmulatorMemory@@@@QBEABUPhysicalMemory@EmulatorMemory@@XZ 10052610 f i emulatormemory.obj
 0001:00051620       ??Diterator@?$QList@UPhysicalMemory@EmulatorMemory@@@@QBEAAUPhysicalMemory@EmulatorMemory@@XZ 10052620 f i emulatormemory.obj
 0001:00051630       ??Diterator@?$QList@UMemoryRange@EmulatorMemory@@@@QBEAAUMemoryRange@EmulatorMemory@@XZ 10052630 f i emulatormemory.obj
 0001:00051640       ??Diterator@?$QList@UMapping@EmulatorMemory@@@@QBEAAUMapping@EmulatorMemory@@XZ 10052640 f i emulatormemory.obj
 0001:00051650       ??Diterator@?$QList@USifAccess@EmulatorMemory@@@@QBEAAUSifAccess@EmulatorMemory@@XZ 10052650 f i emulatormemory.obj
 0001:00051660       ?value@?$QList@PAVMemoryImage@@@@QBEPAVMemoryImage@@HABQAV2@@Z 10052660 f i emulatormemory.obj
 0001:00051690       ?free@?$QList@UMemoryRange@EmulatorMemory@@@@AAEXPAUData@QListData@@@Z 10052690 f i emulatormemory.obj
 0001:000516e0       ?free@?$QList@USifAccess@EmulatorMemory@@@@AAEXPAUData@QListData@@@Z 100526e0 f i emulatormemory.obj
 0001:00051730       ?free@?$QList@PAUMemoryBlock@MemoryImage@@@@AAEXPAUData@QListData@@@Z 10052730 f i emulatormemory.obj
 0001:00051750       ??1?$QList@UMemoryRange@EmulatorMemory@@@@QAE@XZ 10052750 f i emulatormemory.obj
 0001:00051770       ?detach_helper@?$QList@UMemoryRange@EmulatorMemory@@@@AAEXXZ 10052770 f i emulatormemory.obj
 0001:000517c0       ??1?$QList@USifAccess@EmulatorMemory@@@@QAE@XZ 100527c0 f i emulatormemory.obj
 0001:000517e0       ?detach_helper@?$QList@USifAccess@EmulatorMemory@@@@AAEXXZ 100527e0 f i emulatormemory.obj
 0001:00051830       ??0?$QList@USifAccess@EmulatorMemory@@@@QAE@ABV0@@Z 10052830 f i emulatormemory.obj
 0001:00051860       ??1?$QList@PAUMemoryBlock@MemoryImage@@@@QAE@XZ 10052860 f i emulatormemory.obj
 0001:00051880       ?detach_helper@?$QList@PAUMemoryBlock@MemoryImage@@@@AAEXXZ 10052880 f i emulatormemory.obj
 0001:000518a0       ??4?$QList@USifAccess@EmulatorMemory@@@@QAEAAV0@ABV0@@Z 100528a0 f i emulatormemory.obj
 0001:000518f0       ??4?$QList@PAUMemoryBlock@MemoryImage@@@@QAEAAV0@ABV0@@Z 100528f0 f i emulatormemory.obj
 0001:00051960       ??0Mapping@EmulatorMemory@@QAE@XZ 10052960 f i emulatormemory.obj
 0001:00051980       ??1Mapping@EmulatorMemory@@QAE@XZ 10052980 f i emulatormemory.obj
 0001:000519a0       ?detach@?$QList@UMemoryRange@EmulatorMemory@@@@QAEXXZ 100529a0 f i emulatormemory.obj
 0001:000519b0       ?detach@?$QList@USifAccess@EmulatorMemory@@@@QAEXXZ 100529b0 f i emulatormemory.obj
 0001:000519c0       ?append@?$QList@USifAccess@EmulatorMemory@@@@QAEXABUSifAccess@EmulatorMemory@@@Z 100529c0 f i emulatormemory.obj
 0001:00051a20       ??0Mapping@EmulatorMemory@@QAE@ABU01@@Z 10052a20 f i emulatormemory.obj
 0001:00051a70       ??0?$QList@PAUMemoryBlock@MemoryImage@@@@QAE@ABV0@@Z 10052a70 f i emulatormemory.obj
 0001:00051ac0       ?node_copy@?$QList@UMapping@EmulatorMemory@@@@AAEXPAUNode@1@00@Z 10052ac0 f i emulatormemory.obj
 0001:00051bc0       ??4Mapping@EmulatorMemory@@QAEAAU01@ABU01@@Z 10052bc0 f i emulatormemory.obj
 0001:00051c30       ??4MemoryImage@@QAEAAV0@ABV0@@Z 10052c30 f i emulatormemory.obj
 0001:00051c60       ??_GMapping@EmulatorMemory@@QAEPAXI@Z 10052c60 f i emulatormemory.obj
 0001:00051ca0       ?begin@?$QList@UMemoryRange@EmulatorMemory@@@@QAE?AViterator@1@XZ 10052ca0 f i emulatormemory.obj
 0001:00051cd0       ?end@?$QList@UMemoryRange@EmulatorMemory@@@@QAE?AViterator@1@XZ 10052cd0 f i emulatormemory.obj
 0001:00051d00       ?begin@?$QList@USifAccess@EmulatorMemory@@@@QAE?AViterator@1@XZ 10052d00 f i emulatormemory.obj
 0001:00051d30       ?end@?$QList@USifAccess@EmulatorMemory@@@@QAE?AViterator@1@XZ 10052d30 f i emulatormemory.obj
 0001:00051d60       ??6?$QList@USifAccess@EmulatorMemory@@@@QAEAAV0@ABUSifAccess@EmulatorMemory@@@Z 10052d60 f i emulatormemory.obj
 0001:00051d80       ??0MemoryImage@@QAE@ABV0@@Z 10052d80 f i emulatormemory.obj
 0001:00051de0       ??_EMemoryImage@@UAEPAXI@Z 10052de0 f i emulatormemory.obj
 0001:00051de0       ??_GMemoryImage@@UAEPAXI@Z 10052de0 f i emulatormemory.obj
 0001:00051e00       ?node_construct@?$QList@UMapping@EmulatorMemory@@@@AAEXPAUNode@1@ABUMapping@EmulatorMemory@@@Z 10052e00 f i emulatormemory.obj
 0001:00051e70       ?node_destruct@?$QList@UMapping@EmulatorMemory@@@@AAEXPAUNode@1@0@Z 10052e70 f i emulatormemory.obj
 0001:00051ec0       ?addressInProgram@EmulatorMemory@@AAE_NI@Z 10052ec0 f   emulatormemory.obj
 0001:00051f90       ?parseMapping@EmulatorMemory@@AAE_NVQDomElement@@PAUMapping@1@@Z 10052f90 f   emulatormemory.obj
 0001:000527c0       ?doSifAccesses@EmulatorMemory@@AAE_NPAV?$QList@USifAccess@EmulatorMemory@@@@0@Z 100537c0 f   emulatormemory.obj
 0001:00052920       ?free@?$QList@UMapping@EmulatorMemory@@@@AAEXPAUData@QListData@@@Z 10053920 f i emulatormemory.obj
 0001:00052950       ??1?$QList@UMapping@EmulatorMemory@@@@QAE@XZ 10053950 f i emulatormemory.obj
 0001:00052990       ?detach_helper@?$QList@UMapping@EmulatorMemory@@@@AAEXXZ 10053990 f i emulatormemory.obj
 0001:00052a00       ??0?$QList@UMapping@EmulatorMemory@@@@QAE@ABV0@@Z 10053a00 f i emulatormemory.obj
 0001:00052a30       ??4?$QList@UMapping@EmulatorMemory@@@@QAEAAV0@ABV0@@Z 10053a30 f i emulatormemory.obj
 0001:00052aa0       ??0PhysicalMemory@EmulatorMemory@@QAE@XZ 10053aa0 f i emulatormemory.obj
 0001:00052b10       ??1PhysicalMemory@EmulatorMemory@@QAE@XZ 10053b10 f i emulatormemory.obj
 0001:00052bb0       ?detach@?$QList@UMapping@EmulatorMemory@@@@QAEXXZ 10053bb0 f i emulatormemory.obj
 0001:00052bc0       ?append@?$QList@UMapping@EmulatorMemory@@@@QAEXABUMapping@EmulatorMemory@@@Z 10053bc0 f i emulatormemory.obj
 0001:00052bf0       ??0PhysicalMemory@EmulatorMemory@@QAE@ABU01@@Z 10053bf0 f i emulatormemory.obj
 0001:00052c90       ?node_copy@?$QList@UPhysicalMemory@EmulatorMemory@@@@AAEXPAUNode@1@00@Z 10053c90 f i emulatormemory.obj
 0001:00052d10       ??4PhysicalMemory@EmulatorMemory@@QAEAAU01@ABU01@@Z 10053d10 f i emulatormemory.obj
 0001:00052d60       ??_GPhysicalMemory@EmulatorMemory@@QAEPAXI@Z 10053d60 f i emulatormemory.obj
 0001:00052d80       ?begin@?$QList@UMapping@EmulatorMemory@@@@QAE?AViterator@1@XZ 10053d80 f i emulatormemory.obj
 0001:00052db0       ?end@?$QList@UMapping@EmulatorMemory@@@@QAE?AViterator@1@XZ 10053db0 f i emulatormemory.obj
 0001:00052de0       ??6?$QList@UMapping@EmulatorMemory@@@@QAEAAV0@ABUMapping@EmulatorMemory@@@Z 10053de0 f i emulatormemory.obj
 0001:00052e10       ?node_construct@?$QList@UPhysicalMemory@EmulatorMemory@@@@AAEXPAUNode@1@ABUPhysicalMemory@EmulatorMemory@@@Z 10053e10 f i emulatormemory.obj
 0001:00052e80       ?node_destruct@?$QList@UPhysicalMemory@EmulatorMemory@@@@AAEXPAUNode@1@0@Z 10053e80 f i emulatormemory.obj
 0001:00052ec0       ?parseMemory@EmulatorMemory@@AAE_NVQDomElement@@PAUPhysicalMemory@1@@Z 10053ec0 f   emulatormemory.obj
 0001:00053860       ?programPhysicalMemory@EmulatorMemory@@AAE_NPAUPhysicalMemory@1@@Z 10054860 f   emulatormemory.obj
 0001:00053da0       ?verifyPhysicalMemory@EmulatorMemory@@AAE_NPAUPhysicalMemory@1@@Z 10054da0 f   emulatormemory.obj
 0001:000543f0       ?free@?$QList@UPhysicalMemory@EmulatorMemory@@@@AAEXPAUData@QListData@@@Z 100553f0 f i emulatormemory.obj
 0001:00054420       ??1?$QList@UPhysicalMemory@EmulatorMemory@@@@QAE@XZ 10055420 f i emulatormemory.obj
 0001:00054460       ?detach_helper@?$QList@UPhysicalMemory@EmulatorMemory@@@@AAEXXZ 10055460 f i emulatormemory.obj
 0001:000544d0       ??4?$QList@UPhysicalMemory@EmulatorMemory@@@@QAEAAV0@ABV0@@Z 100554d0 f i emulatormemory.obj
 0001:00054540       ??0EmulatorMemory@@QAE@PAVSpiConnection@@@Z 10055540 f   emulatormemory.obj
 0001:00054630       ??1EmulatorMemory@@UAE@XZ  10055630 f   emulatormemory.obj
 0001:000546f0       ?detach@?$QList@UPhysicalMemory@EmulatorMemory@@@@QAEXXZ 100556f0 f i emulatormemory.obj
 0001:00054700       ?clear@?$QList@UPhysicalMemory@EmulatorMemory@@@@QAEXXZ 10055700 f i emulatormemory.obj
 0001:000547a0       ?append@?$QList@UPhysicalMemory@EmulatorMemory@@@@QAEXABUPhysicalMemory@EmulatorMemory@@@Z 100557a0 f i emulatormemory.obj
 0001:000547d0       ??_EEmulatorMemory@@UAEPAXI@Z 100557d0 f i emulatormemory.obj
 0001:000547d0       ??_GEmulatorMemory@@UAEPAXI@Z 100557d0 f i emulatormemory.obj
 0001:000547f0       ?clear@EmulatorMemory@@AAEXXZ 100557f0 f   emulatormemory.obj
 0001:00054800       ?begin@?$QList@UPhysicalMemory@EmulatorMemory@@@@QAE?AViterator@1@XZ 10055800 f i emulatormemory.obj
 0001:00054830       ?end@?$QList@UPhysicalMemory@EmulatorMemory@@@@QAE?AViterator@1@XZ 10055830 f i emulatormemory.obj
 0001:00054860       ?push_back@?$QList@UPhysicalMemory@EmulatorMemory@@@@QAEXABUPhysicalMemory@EmulatorMemory@@@Z 10055860 f i emulatormemory.obj
 0001:00054890       ?reset@EmulatorMemory@@UAE_NXZ 10055890 f   emulatormemory.obj
 0001:000548a0       ?parseMemories@EmulatorMemory@@AAE_NVQDomElement@@PAV?$QList@UPhysicalMemory@EmulatorMemory@@@@@Z 100558a0 f   emulatormemory.obj
 0001:00054b30       ?checkMappings@EmulatorMemory@@AAE_NPAV?$QList@UPhysicalMemory@EmulatorMemory@@@@@Z 10055b30 f   emulatormemory.obj
 0001:00055070       ?createPhysicalMemoryImages@EmulatorMemory@@AAE_NPAVMemoryImage@@0@Z 10056070 f   emulatormemory.obj
 0001:00055450       ?programPhysicalMemories@EmulatorMemory@@AAE_NXZ 10056450 f   emulatormemory.obj
 0001:000554d0       ?verifyPhysicalMemories@EmulatorMemory@@AAE_NXZ 100564d0 f   emulatormemory.obj
 0001:00055550       ?getBlock@EmulatorMemory@@AAE_NHIPAPAUPhysicalMemory@1@PAPAUMapping@1@@Z 10056550 f   emulatormemory.obj
 0001:00055720       ?clearImages@EmulatorMemory@@AAEXXZ 10056720 f   emulatormemory.obj
 0001:00055770       ?setChipVersion@EmulatorMemory@@UAEXG@Z 10056770 f   emulatormemory.obj
 0001:00055a80       ?read@EmulatorMemory@@UAEIHI_N@Z 10056a80 f   emulatormemory.obj
 0001:00055be0       ?write@EmulatorMemory@@UAE_NHII_N@Z 10056be0 f   emulatormemory.obj
 0001:00055d90       ?readBlock@EmulatorMemory@@UAEXHIHPAV?$QVector@U?$QPair@IW4MemoryResult@IMemory@@@@@@@Z 10056d90 f   emulatormemory.obj
 0001:00056040       ?writeBlock@EmulatorMemory@@UAEXHIHPAV?$QVector@U?$QPair@IW4MemoryResult@IMemory@@@@@@@Z 10057040 f   emulatormemory.obj
 0001:00056340       ?type@EmulatorMemory@@UAE?AW4MemoryType@Memory@@HI@Z 10057340 f   emulatormemory.obj
 0001:000563a0       ?load@EmulatorMemory@@UAE_NABVQDir@@ABVQString@@ABV?$QList@PAVMemoryImage@@@@_N3@Z 100573a0 f   emulatormemory.obj
 0001:000565f0       ?loadMemoryMap@EmulatorMemory@@UAE_NABVQString@@PAV2@@Z 100575f0 f   emulatormemory.obj
 0001:00056820       ?emulatorProperties@@YA?AVQString@@XZ 10057820 f   emulatorproperties.obj
 0001:00056930       ?describe@EnumType@@UBE?AVQString@@XZ 10057930 f   enumtype.obj
 0001:00056960       ?bitSize@EnumType@@QBEHXZ  10057960 f   enumtype.obj
 0001:00056970       ??0?$QMap@HVQString@@@@QAE@XZ 10057970 f i enumtype.obj
 0001:00056990       ??0?$QList@VQVariant@@@@QAE@XZ 10057990 f i enumtype.obj
 0001:000569b0       ?count@?$QList@VQVariant@@@@QBEHXZ 100579b0 f i enumtype.obj
 0001:000569c0       ??0const_iterator@?$QMap@HVQString@@@@QAE@XZ 100579c0 f i enumtype.obj
 0001:000569d0       ??9const_iterator@?$QMap@HVQString@@@@QBE_NABV01@@Z 100579d0 f i enumtype.obj
 0001:000569f0       ??Econst_iterator@?$QMap@HVQString@@@@QAEAAV01@XZ 100579f0 f i enumtype.obj
 0001:00056a00       ??0const_iterator@?$QMap@HVQString@@@@QAE@PAUNode@QMapData@@@Z 10057a00 f i enumtype.obj
 0001:00056a10       ?payload@?$QMap@HVQString@@@@CAHXZ 10057a10 f i enumtype.obj
 0001:00056a20       ?t@Node@?$QList@VQVariant@@@@QAEAAVQVariant@@XZ 10057a20 f i enumtype.obj
 0001:00056a30       ?node_construct@?$QList@VQVariant@@@@AAEXPAUNode@1@ABVQVariant@@@Z 10057a30 f i enumtype.obj
 0001:00056aa0       ?node_copy@?$QList@VQVariant@@@@AAEXPAUNode@1@00@Z 10057aa0 f i enumtype.obj
 0001:00056b20       ??_GQVariant@@QAEPAXI@Z    10057b20 f i enumtype.obj
 0001:00056b40       ?size@EnumType@@UBEHPBVLocationResolver@@@Z 10057b40 f   enumtype.obj
 0001:00056b90       ?begin@?$QMap@HVQString@@@@QBE?AVconst_iterator@1@XZ 10057b90 f i enumtype.obj
 0001:00056ba0       ?end@?$QMap@HVQString@@@@QBE?AVconst_iterator@1@XZ 10057ba0 f i enumtype.obj
 0001:00056bb0       ?concrete@?$QMap@HVQString@@@@CAPAU?$QMapNode@HVQString@@@@PAUNode@QMapData@@@Z 10057bb0 f i enumtype.obj
 0001:00056bc0       ?freeData@?$QMap@HVQString@@@@AAEXPAUQMapData@@@Z 10057bc0 f i enumtype.obj
 0001:00056c10       ?mutableFindNode@?$QMap@HVQString@@@@ABEPAUNode@QMapData@@QAPAU23@ABH@Z 10057c10 f i enumtype.obj
 0001:00056c70       ?node_create@?$QMap@HVQString@@@@AAEPAUNode@QMapData@@PAU3@QAPAU23@ABHABVQString@@@Z 10057c70 f i enumtype.obj
 0001:00056ce0       ?node_destruct@?$QList@VQVariant@@@@AAEXPAUNode@1@0@Z 10057ce0 f i enumtype.obj
 0001:00056d20       ??1?$QMap@HVQString@@@@QAE@XZ 10057d20 f i enumtype.obj
 0001:00056d40       ?key@const_iterator@?$QMap@HVQString@@@@QBEABHXZ 10057d40 f i enumtype.obj
 0001:00056d50       ?value@const_iterator@?$QMap@HVQString@@@@QBEABVQString@@XZ 10057d50 f i enumtype.obj
 0001:00056d60       ?detach_helper@?$QMap@HVQString@@@@AAEXXZ 10057d60 f i enumtype.obj
 0001:00056e20       ?free@?$QList@VQVariant@@@@AAEXPAUData@QListData@@@Z 10057e20 f i enumtype.obj
 0001:00056e50       ??0EnumType@@QAE@ABVQString@@H@Z 10057e50 f   enumtype.obj
 0001:00056ef0       ??1EnumType@@UAE@XZ        10057ef0 f   enumtype.obj
 0001:00056fa0       ?writeVariant@EnumType@@UBE_NABVQVariant@@ABVLocation@@PAVLocationResolver@@@Z 10057fa0 f   enumtype.obj
 0001:000571b0       ??1?$QList@VQVariant@@@@QAE@XZ 100581b0 f i enumtype.obj
 0001:000571f0       ?detach@?$QMap@HVQString@@@@QAEXXZ 100581f0 f i enumtype.obj
 0001:00057210       ?detach_helper@?$QList@VQVariant@@@@AAEXXZ 10058210 f i enumtype.obj
 0001:00057280       ??$qvariant_cast@VMultiFormatData@@@@YA?AVMultiFormatData@@ABVQVariant@@@Z 10058280 f i enumtype.obj
 0001:000573a0       ??_EEnumType@@UAEPAXI@Z    100583a0 f i enumtype.obj
 0001:000573a0       ??_GEnumType@@UAEPAXI@Z    100583a0 f i enumtype.obj
 0001:000573c0       ?names@EnumType@@QBE?AVQStringList@@XZ 100583c0 f   enumtype.obj
 0001:00057400       ??A?$QMap@HVQString@@@@QAEAAVQString@@ABH@Z 10058400 f i enumtype.obj
 0001:000574d0       ?detach@?$QList@VQVariant@@@@QAEXXZ 100584d0 f i enumtype.obj
 0001:000574e0       ??$qVariantValue@VMultiFormatData@@@@YA?AVMultiFormatData@@ABVQVariant@@@Z 100584e0 f i enumtype.obj
 0001:00057510       ?add@EnumType@@QAEXABVQString@@H@Z 10058510 f   enumtype.obj
 0001:00057550       ??A?$QList@VQVariant@@@@QAEAAVQVariant@@H@Z 10058550 f i enumtype.obj
 0001:00057580       ?append@?$QList@VQVariant@@@@QAEXABVQVariant@@@Z 10058580 f i enumtype.obj
 0001:000575b0       ??$value@VMultiFormatData@@@QVariant@@QBE?AVMultiFormatData@@XZ 100585b0 f i enumtype.obj
 0001:000575d0       ?formatValue@EnumType@@UBE?AVQString@@ABVLocation@@PBVLocationResolver@@@Z 100585d0 f   enumtype.obj
 0001:000578d0       ?readVariant@EnumType@@UBE?AVQVariant@@ABVLocation@@PBVLocationResolver@@@Z 100588d0 f   enumtype.obj
 0001:00057c90       ??0IExtensionPlugin@@QAE@XZ 10058c90 f i extensionplugin.obj
 0001:00057ca0       ??1ExtensionPluginPrivate@@UAE@XZ 10058ca0 f   extensionplugin.obj
 0001:00057d10       ?addRef@ExtensionPluginPrivate@@UAEKXZ 10058d10 f i extensionplugin.obj
 0001:00057d20       ?release@ExtensionPluginPrivate@@UAEKXZ 10058d20 f i extensionplugin.obj
 0001:00057d40       ?queryInterface@ExtensionPluginPrivate@@UAEKABUQUuid@@PAPAUQUnknownInterface@@@Z 10058d40 f   extensionplugin.obj
 0001:00057f10       ?create@ExtensionPluginPrivate@@UAEPAUIExtension@@ABVQString@@@Z 10058f10 f   extensionplugin.obj
 0001:00057f20       ?name@ExtensionPluginPrivate@@UAE?AVQString@@XZ 10058f20 f   extensionplugin.obj
 0001:00057f40       ?version@ExtensionPluginPrivate@@UAE?AVQString@@XZ 10058f40 f   extensionplugin.obj
 0001:00057f60       ?icon@ExtensionPluginPrivate@@UAE?AVQPixmap@@XZ 10058f60 f   extensionplugin.obj
 0001:00057f80       ?init@ExtensionPluginPrivate@@UAE_NXZ 10058f80 f   extensionplugin.obj
 0001:00057f90       ?cleanup@ExtensionPluginPrivate@@UAEXXZ 10058f90 f   extensionplugin.obj
 0001:00057fa0       ?canUnload@ExtensionPluginPrivate@@UBE_NXZ 10058fa0 f   extensionplugin.obj
 0001:00057fb0       ??1ExtensionPlugin@@UAE@XZ 10058fb0 f   extensionplugin.obj
 0001:00057fc0       ?addRef@ExtensionPluginPrivate@@W3AEKXZ 10058fc0 f i extensionplugin.obj
 0001:00057fd0       ?release@ExtensionPluginPrivate@@W3AEKXZ 10058fd0 f i extensionplugin.obj
 0001:00057fe0       ?queryInterface@ExtensionPluginPrivate@@W3AEKABUQUuid@@PAPAUQUnknownInterface@@@Z 10058fe0 f i extensionplugin.obj
 0001:00057ff0       ??0ExtensionPluginPrivate@@QAE@PAVExtensionPlugin@@@Z 10058ff0 f i extensionplugin.obj
 0001:00058030       ??_GExtensionPluginPrivate@@UAEPAXI@Z 10059030 f i extensionplugin.obj
 0001:00058030       ??_EExtensionPluginPrivate@@UAEPAXI@Z 10059030 f i extensionplugin.obj
 0001:00058050       ??0ExtensionPlugin@@QAE@XZ 10059050 f   extensionplugin.obj
 0001:000580e0       ??_GExtensionPlugin@@UAEPAXI@Z 100590e0 f i extensionplugin.obj
 0001:000580e0       ??_EExtensionPlugin@@UAEPAXI@Z 100590e0 f i extensionplugin.obj
 0001:00058110       ?featureList@ExtensionPluginPrivate@@UBE?AVQStringList@@XZ 10059110 f   extensionplugin.obj
 0001:00058130       ?lineHeight@ExtraTextBlockData@@QBEHXZ 10059130 f   extratextblockdata.obj
 0001:00058140       ?parentheses@ExtraTextBlockData@@QBEABV?$QMap@HVQChar@@@@XZ 10059140 f   extratextblockdata.obj
 0001:00058150       ?setLineHeight@ExtraTextBlockData@@QAEXH@Z 10059150 f   extratextblockdata.obj
 0001:00058160       ??0?$QMap@HVQChar@@@@QAE@XZ 10059160 f i extratextblockdata.obj
 0001:00058180       ?payload@?$QMap@HVQChar@@@@CAHXZ 10059180 f i extratextblockdata.obj
 0001:00058190       ?concrete@?$QMap@HVQChar@@@@CAPAU?$QMapNode@HVQChar@@@@PAUNode@QMapData@@@Z 10059190 f i extratextblockdata.obj
 0001:000581a0       ??0iterator@?$QMap@HVQChar@@@@QAE@PAUNode@QMapData@@@Z 100591a0 f i extratextblockdata.obj
 0001:000581b0       ?node_create@?$QMap@HVQChar@@@@AAEPAUNode@QMapData@@PAU3@QAPAU23@ABHABVQChar@@@Z 100591b0 f i extratextblockdata.obj
 0001:000581f0       ?freeData@?$QMap@HVQChar@@@@AAEXPAUQMapData@@@Z 100591f0 f i extratextblockdata.obj
 0001:00058220       ?detach_helper@?$QMap@HVQChar@@@@AAEXXZ 10059220 f i extratextblockdata.obj
 0001:000582b0       ?mutableFindNode@?$QMap@HVQChar@@@@ABEPAUNode@QMapData@@QAPAU23@ABH@Z 100592b0 f i extratextblockdata.obj
 0001:00058310       ??1?$QMap@HVQChar@@@@QAE@XZ 10059310 f i extratextblockdata.obj
 0001:00058340       ?detach@?$QMap@HVQChar@@@@QAEXXZ 10059340 f i extratextblockdata.obj
 0001:00058360       ??4?$QMap@HVQChar@@@@QAEAAV0@ABV0@@Z 10059360 f i extratextblockdata.obj
 0001:000583c0       ??0ExtraTextBlockData@@QAE@XZ 100593c0 f   extratextblockdata.obj
 0001:000583f0       ??1ExtraTextBlockData@@UAE@XZ 100593f0 f   extratextblockdata.obj
 0001:00058470       ?clear@?$QMap@HVQChar@@@@QAEXXZ 10059470 f i extratextblockdata.obj
 0001:00058500       ?insert@?$QMap@HVQChar@@@@QAE?AViterator@1@ABHABVQChar@@@Z 10059500 f i extratextblockdata.obj
 0001:00058590       ??_GExtraTextBlockData@@UAEPAXI@Z 10059590 f i extratextblockdata.obj
 0001:00058590       ??_EExtraTextBlockData@@UAEPAXI@Z 10059590 f i extratextblockdata.obj
 0001:000585b0       ?addParenthesis@ExtraTextBlockData@@QAEXHVQChar@@@Z 100595b0 f   extratextblockdata.obj
 0001:000585d0       ?clear@ExtraTextBlockData@@QAEXXZ 100595d0 f   extratextblockdata.obj
 0001:000585e0       ??0FileDescriptor@@QAE@ABVQString@@@Z 100595e0 f   filedescriptor.obj
 0001:00058610       ?open@FileDescriptor@@QAE_NXZ 10059610 f   filedescriptor.obj
 0001:000586b0       ?handle@FileDescriptor@@QAEHXZ 100596b0 f   filedescriptor.obj
 0001:000586c0       ?fd@FileDescriptor@@QAEHXZ 100596c0 f   filedescriptor.obj
 0001:000586e0       ?close@FileDescriptor@@QAEXXZ 100596e0 f   filedescriptor.obj
 0001:00058700       ??1FileDescriptor@@QAE@XZ  10059700 f   filedescriptor.obj
 0001:00058740       ?tr@FlagsDialog@@SA?AVQString@@PBD0@Z 10059740 f i flagsdialog.obj
 0001:00058770       ?checkBoxClicked@FlagsDialog@@AAEXXZ 10059770 f   flagsdialog.obj
 0001:00058780       ??0?$QFlags@W4AlignmentFlag@Qt@@@@QAE@W4AlignmentFlag@Qt@@@Z 10059780 f i flagsdialog.obj
 0001:00058790       ??0?$QList@PAVQCheckBox@@@@QAE@XZ 10059790 f i flagsdialog.obj
 0001:000587b0       ?size@?$QList@PAVQCheckBox@@@@QBEHXZ 100597b0 f i flagsdialog.obj
 0001:000587c0       ?t@Node@?$QList@PAVQCheckBox@@@@QAEAAPAVQCheckBox@@XZ 100597c0 f i flagsdialog.obj
 0001:000587d0       ?node_construct@?$QList@PAVQCheckBox@@@@AAEXPAUNode@1@ABQAVQCheckBox@@@Z 100597d0 f i flagsdialog.obj
 0001:000587e0       ?node_destruct@?$QList@PAVQCheckBox@@@@AAEXPAUNode@1@0@Z 100597e0 f i flagsdialog.obj
 0001:000587f0       ?node_copy@?$QList@PAVQCheckBox@@@@AAEXPAUNode@1@00@Z 100597f0 f i flagsdialog.obj
 0001:00058800       ??A?$QList@PAVQCheckBox@@@@QBEABQAVQCheckBox@@H@Z 10059800 f i flagsdialog.obj
 0001:00058810       ?free@?$QList@PAVQCheckBox@@@@AAEXPAUData@QListData@@@Z 10059810 f i flagsdialog.obj
 0001:00058830       ?value@FlagsDialog@@QBEIXZ 10059830 f   flagsdialog.obj
 0001:000588e0       ??1?$QList@PAVQCheckBox@@@@QAE@XZ 100598e0 f i flagsdialog.obj
 0001:00058900       ?detach_helper@?$QList@PAVQCheckBox@@@@AAEXXZ 10059900 f i flagsdialog.obj
 0001:00058920       ?detach@?$QList@PAVQCheckBox@@@@QAEXXZ 10059920 f i flagsdialog.obj
 0001:00058950       ??1FlagsDialog@@UAE@XZ     10059950 f   flagsdialog.obj
 0001:00058a10       ??_EFlagsDialog@@W7AEPAXI@Z 10059a10 f i flagsdialog.obj
 0001:00058a20       ??A?$QList@PAVQCheckBox@@@@QAEAAPAVQCheckBox@@H@Z 10059a20 f i flagsdialog.obj
 0001:00058a60       ?append@?$QList@PAVQCheckBox@@@@QAEXABQAVQCheckBox@@@Z 10059a60 f i flagsdialog.obj
 0001:00058ab0       ??0FlagsDialog@@QAE@ABVQString@@ABVQStringList@@PAVQWidget@@@Z 10059ab0 f   flagsdialog.obj
 0001:00058f20       ??_GQGridLayout@@UAEPAXI@Z 10059f20 f i flagsdialog.obj
 0001:00058f20       ??_EQGridLayout@@UAEPAXI@Z 10059f20 f i flagsdialog.obj
 0001:00058f40       ??_EQGridLayout@@W7AEPAXI@Z 10059f40 f i flagsdialog.obj
 0001:00058f50       ??_GFlagsDialog@@UAEPAXI@Z 10059f50 f i flagsdialog.obj
 0001:00058f50       ??_EFlagsDialog@@UAEPAXI@Z 10059f50 f i flagsdialog.obj
 0001:00058f70       ?setValue@FlagsDialog@@QAEXI@Z 10059f70 f   flagsdialog.obj
 0001:00058fe0       ??1FlagsEditor@@UAE@XZ     10059fe0 f   flagseditor.obj
 0001:00059000       ?accept@FlagsEditor@@QAEXXZ 1005a000 f   flagseditor.obj
 0001:00059040       ?flags@FlagsEditor@@QBEIXZ 1005a040 f   flagseditor.obj
 0001:00059050       ?onValueChanged@FlagsEditor@@QAEXXZ 1005a050 f   flagseditor.obj
 0001:00059070       ?reject@FlagsEditor@@QAEXXZ 1005a070 f   flagseditor.obj
 0001:00059080       ?setFlags@FlagsEditor@@QAEXI@Z 1005a080 f   flagseditor.obj
 0001:000590c0       ?setFormattedFlags@FlagsEditor@@QAEXABVQString@@@Z 1005a0c0 f   flagseditor.obj
 0001:000590d0       ?showFlagsDialog@FlagsEditor@@AAEXXZ 1005a0d0 f   flagseditor.obj
 0001:00059100       ??_EFlagsEditor@@W7AEPAXI@Z 1005a100 f i flagseditor.obj
 0001:00059110       ??0FlagsEditor@@QAE@ABVQString@@ABVQStringList@@PAVQWidget@@@Z 1005a110 f   flagseditor.obj
 0001:00059280       ??_EQTimer@@UAEPAXI@Z      1005a280 f i flagseditor.obj
 0001:00059280       ??_GQTimer@@UAEPAXI@Z      1005a280 f i flagseditor.obj
 0001:000592a0       ??_EFlagsEditor@@UAEPAXI@Z 1005a2a0 f i flagseditor.obj
 0001:000592a0       ??_GFlagsEditor@@UAEPAXI@Z 1005a2a0 f i flagseditor.obj
 0001:000592d0       ??0FloatType@@QAE@ABVQString@@H@Z 1005a2d0 f   floattype.obj
 0001:00059340       ??1FloatType@@UAE@XZ       1005a340 f   floattype.obj
 0001:00059350       ?describe@FloatType@@UBE?AVQString@@XZ 1005a350 f   floattype.obj
 0001:00059380       ?size@FloatType@@UBEHPBVLocationResolver@@@Z 1005a380 f   floattype.obj
 0001:000593a0       ?writeVariant@FloatType@@UBE_NABVQVariant@@ABVLocation@@PAVLocationResolver@@@Z 1005a3a0 f   floattype.obj
 0001:00059470       ??_GFloatType@@UAEPAXI@Z   1005a470 f i floattype.obj
 0001:00059470       ??_EFloatType@@UAEPAXI@Z   1005a470 f i floattype.obj
 0001:000594a0       ?formatValue@FloatType@@UBE?AVQString@@ABVLocation@@PBVLocationResolver@@@Z 1005a4a0 f   floattype.obj
 0001:00059670       ?readVariant@FloatType@@UBE?AVQVariant@@ABVLocation@@PBVLocationResolver@@@Z 1005a670 f   floattype.obj
 0001:00059820       ?describe@ForwardType@@UBE?AVQString@@XZ 1005a820 f   forwardtype.obj
 0001:00059860       ?name@ForwardType@@UBE?AVQString@@XZ 1005a860 f   forwardtype.obj
 0001:000598a0       ?size@ForwardType@@UBEHPBVLocationResolver@@@Z 1005a8a0 f   forwardtype.obj
 0001:000598c0       ?childCount@ForwardType@@UBEHPBVLocationResolver@@@Z 1005a8c0 f   forwardtype.obj
 0001:000598e0       ?child@ForwardType@@UBE?AVSymbol@@ABVLocation@@HPAVLocationResolver@@@Z 1005a8e0 f   forwardtype.obj
 0001:00059930       ?formatValue@ForwardType@@UBE?AVQString@@ABVLocation@@PBVLocationResolver@@@Z 1005a930 f   forwardtype.obj
 0001:00059980       ?readVariant@ForwardType@@UBE?AVQVariant@@ABVLocation@@PBVLocationResolver@@@Z 1005a980 f   forwardtype.obj
 0001:000599d0       ?writeVariant@ForwardType@@UBE_NABVQVariant@@ABVLocation@@PAVLocationResolver@@@Z 1005a9d0 f   forwardtype.obj
 0001:000599f0       ?isChar@ForwardType@@UBE_NXZ 1005a9f0 f   forwardtype.obj
 0001:00059a10       ?referencedTypeNumber@ForwardType@@QAEHXZ 1005aa10 f   forwardtype.obj
 0001:00059a20       ?referencedType@ForwardType@@QAEPAVSymbolType@@XZ 1005aa20 f   forwardtype.obj
 0001:00059a30       ?resolveForward@ForwardType@@UBEPBVSymbolType@@XZ 1005aa30 f   forwardtype.obj
 0001:00059a50       ?pointerSize@ForwardType@@UBEHPBVLocationResolver@@@Z 1005aa50 f   forwardtype.obj
 0001:00059a70       ??Econst_iterator@?$QList@PAVForwardType@@@@QAEAAV01@XZ 1005aa70 f i forwardtype.obj
 0001:00059a80       ??$qForeachPointer@V?$QList@PAVForwardType@@@@@@YAPAV?$QList@PAVForwardType@@@@ABV0@@Z 1005aa80 f i forwardtype.obj
 0001:00059a90       ??$qForeachContainer@V?$QList@PAVForwardType@@@@@@YAPBV?$QForeachContainer@V?$QList@PAVForwardType@@@@@@PBUQForeachContainerBase@@PBV?$QList@PAVForwardType@@@@@Z 1005aa90 f i forwardtype.obj
 0001:00059aa0       ?condition@?$QForeachContainer@V?$QList@PAVForwardType@@@@@@QBE_NXZ 1005aaa0 f i forwardtype.obj
 0001:00059ac0       ??Dconst_iterator@?$QList@PAVForwardType@@@@QBEABQAVForwardType@@XZ 1005aac0 f i forwardtype.obj
 0001:00059ad0       ?begin@?$QList@PAVForwardType@@@@QBE?AVconst_iterator@1@XZ 1005aad0 f i forwardtype.obj
 0001:00059af0       ?end@?$QList@PAVForwardType@@@@QBE?AVconst_iterator@1@XZ 1005aaf0 f i forwardtype.obj
 0001:00059b10       ??0ForwardType@@QAE@ABVQString@@H0_N1@Z 1005ab10 f   forwardtype.obj
 0001:00059bc0       ?isForward@ForwardType@@UBE_NXZ 1005abc0 f i forwardtype.obj
 0001:00059bd0       ??1ForwardType@@UAE@XZ     1005abd0 f   forwardtype.obj
 0001:00059c60       ??1?$QForeachContainer@V?$QList@PAVForwardType@@@@@@QAE@XZ 1005ac60 f i forwardtype.obj
 0001:00059c80       ??0?$QList@PAVForwardType@@@@QAE@ABV0@@Z 1005ac80 f i forwardtype.obj
 0001:00059cd0       ??_EForwardType@@UAEPAXI@Z 1005acd0 f i forwardtype.obj
 0001:00059cd0       ??_GForwardType@@UAEPAXI@Z 1005acd0 f i forwardtype.obj
 0001:00059cf0       ??0?$QForeachContainer@V?$QList@PAVForwardType@@@@@@QAE@ABV?$QList@PAVForwardType@@@@@Z 1005acf0 f i forwardtype.obj
 0001:00059d60       ?wrapChildrenVolatile@ForwardType@@UAEPAVSymbolType@@PAV?$QList@PAVSymbolType@@@@@Z 1005ad60 f   forwardtype.obj
 0001:00059f50       ??$qForeachContainerNew@V?$QList@PAVForwardType@@@@@@YA?AV?$QForeachContainer@V?$QList@PAVForwardType@@@@@@ABV?$QList@PAVForwardType@@@@@Z 1005af50 f i forwardtype.obj
 0001:00059f70       ?setReferencedType@ForwardType@@QAEXPAVSymbolType@@PAV?$QList@PAVSymbolType@@@@@Z 1005af70 f   forwardtype.obj
 0001:0005a0f0       ?wrapChildrenConst@ForwardType@@UAEPAVSymbolType@@PAV?$QList@PAVSymbolType@@@@@Z 1005b0f0 f   forwardtype.obj
 0001:0005a2f0       ??0FunctionType@@QAE@ABVQString@@PAVSymbolType@@@Z 1005b2f0 f   functiontype.obj
 0001:0005a380       ??1FunctionType@@UAE@XZ    1005b380 f   functiontype.obj
 0001:0005a390       ?describe@FunctionType@@UBE?AVQString@@XZ 1005b390 f   functiontype.obj
 0001:0005a420       ?pointerSize@FunctionType@@UBEHPBVLocationResolver@@@Z 1005b420 f   functiontype.obj
 0001:0005a430       ??_EFunctionType@@UAEPAXI@Z 1005b430 f i functiontype.obj
 0001:0005a430       ??_GFunctionType@@UAEPAXI@Z 1005b430 f i functiontype.obj
 0001:0005a460       ??1GattDbDocumentExtension@@UAE@XZ 1005b460 f   gattdbdocumentextension.obj
 0001:0005a470       ?addRef@GattDbDocumentExtension@@UAEKXZ 1005b470 f i gattdbdocumentextension.obj
 0001:0005a480       ?release@GattDbDocumentExtension@@UAEKXZ 1005b480 f i gattdbdocumentextension.obj
 0001:0005a4a0       ?queryInterface@GattDbDocumentExtension@@UAEKABUQUuid@@PAPAUQUnknownInterface@@@Z 1005b4a0 f   gattdbdocumentextension.obj
 0001:0005a620       ?type@GattDbDocumentExtension@@UBE?AW4Type@IExtension@@XZ 1005b620 f   gattdbdocumentextension.obj
 0001:0005a630       ?name@GattDbDocumentExtension@@UBE?AVQString@@XZ 1005b630 f   gattdbdocumentextension.obj
 0001:0005a660       ?templateName@GattDbDocumentExtension@@UBE?AVQString@@XZ 1005b660 f   gattdbdocumentextension.obj
 0001:0005a690       ?templateDescription@GattDbDocumentExtension@@UBE?AVQString@@XZ 1005b690 f   gattdbdocumentextension.obj
 0001:0005a6c0       ?templateIcon@GattDbDocumentExtension@@UBE?AVQPixmap@@XZ 1005b6c0 f   gattdbdocumentextension.obj
 0001:0005a6f0       ?createSyntaxHighlighter@GattDbDocumentExtension@@UBEPAXXZ 1005b6f0 f   gattdbdocumentextension.obj
 0001:0005a750       ?createIndenter@GattDbDocumentExtension@@UBEPAXXZ 1005b750 f   gattdbdocumentextension.obj
 0001:0005a760       ?queryInterface@GattDbDocumentExtension@@W3AEKABUQUuid@@PAPAUQUnknownInterface@@@Z 1005b760 f i gattdbdocumentextension.obj
 0001:0005a770       ?addRef@GattDbDocumentExtension@@W3AEKXZ 1005b770 f i gattdbdocumentextension.obj
 0001:0005a780       ?release@GattDbDocumentExtension@@W3AEKXZ 1005b780 f i gattdbdocumentextension.obj
 0001:0005a790       ??0GattDbDocumentExtension@@QAE@XZ 1005b790 f   gattdbdocumentextension.obj
 0001:0005a7b0       ??_EGattDbDocumentExtension@@UAEPAXI@Z 1005b7b0 f i gattdbdocumentextension.obj
 0001:0005a7b0       ??_GGattDbDocumentExtension@@UAEPAXI@Z 1005b7b0 f i gattdbdocumentextension.obj
 0001:0005a7e0       ?fileExtensions@GattDbDocumentExtension@@UBE?AVQStringList@@XZ 1005b7e0 f   gattdbdocumentextension.obj
 0001:0005a870       ?nextSyntaxState@GattDbSyntaxHighlighter@@AAE?AW4SyntaxState@1@W421@W4Input@1@@Z 1005b870 f   gattdbsyntaxhighlighter.obj
 0001:0005a8a0       ?previousBlockSyntaxState@GattDbSyntaxHighlighter@@AAE?AW4SyntaxState@1@XZ 1005b8a0 f   gattdbsyntaxhighlighter.obj
 0001:0005a8c0       ?setCurrentBlockSyntaxState@GattDbSyntaxHighlighter@@AAEXW4SyntaxState@1@@Z 1005b8c0 f   gattdbsyntaxhighlighter.obj
 0001:0005a8f0       ?nextAttributeState@GattDbSyntaxHighlighter@@AAE?AW4AttributeState@1@W421@VQChar@@@Z 1005b8f0 f   gattdbsyntaxhighlighter.obj
 0001:0005ab40       ??0?$QMap@W4Scope@GattDbSyntaxHighlighter@@VQString@@@@QAE@XZ 1005bb40 f i gattdbsyntaxhighlighter.obj
 0001:0005ab60       ??0?$QMap@W4AttributeScope@GattDbSyntaxHighlighter@@VQString@@@@QAE@XZ 1005bb60 f i gattdbsyntaxhighlighter.obj
 0001:0005ab80       ?size@?$QVector@VQString@@@@QBEHXZ 1005bb80 f i gattdbsyntaxhighlighter.obj
 0001:0005ab90       ?isEmpty@?$QVector@VQString@@@@QBE_NXZ 1005bb90 f i gattdbsyntaxhighlighter.obj
 0001:0005aba0       ??0?$QMap@VQString@@VQStringList@@@@QAE@XZ 1005bba0 f i gattdbsyntaxhighlighter.obj
 0001:0005abc0       ??0const_iterator@?$QMap@HV?$QMap@VQString@@H@@@@QAE@XZ 1005bbc0 f i gattdbsyntaxhighlighter.obj
 0001:0005abd0       ??0const_iterator@?$QMap@HV?$QMap@VQString@@H@@@@QAE@ABViterator@1@@Z 1005bbd0 f i gattdbsyntaxhighlighter.obj
 0001:0005abe0       ??9const_iterator@?$QMap@HV?$QMap@VQString@@H@@@@QBE_NABV01@@Z 1005bbe0 f i gattdbsyntaxhighlighter.obj
 0001:0005ac00       ??Econst_iterator@?$QMap@HV?$QMap@VQString@@H@@@@QAEAAV01@XZ 1005bc00 f i gattdbsyntaxhighlighter.obj
 0001:0005ac10       ??9const_iterator@?$QMap@VQString@@H@@QBE_NABV01@@Z 1005bc10 f i gattdbsyntaxhighlighter.obj
 0001:0005ac30       ??Econst_iterator@?$QMap@VQString@@H@@QAEAAV01@XZ 1005bc30 f i gattdbsyntaxhighlighter.obj
 0001:0005ac40       ??Econst_iterator@?$QList@W4Scope@GattDbSyntaxHighlighter@@@@QAEAAV01@XZ 1005bc40 f i gattdbsyntaxhighlighter.obj
 0001:0005ac50       ??Econst_iterator@?$QList@W4AttributeScope@GattDbSyntaxHighlighter@@@@QAEAAV01@XZ 1005bc50 f i gattdbsyntaxhighlighter.obj
 0001:0005ac60       ??0?$QVector@VQString@@@@QAE@XZ 1005bc60 f i gattdbsyntaxhighlighter.obj
 0001:0005ac80       ??0const_iterator@?$QMap@HV?$QMap@VQString@@H@@@@QAE@PAUNode@QMapData@@@Z 1005bc80 f i gattdbsyntaxhighlighter.obj
 0001:0005ac90       ??0const_iterator@?$QMap@VQString@@H@@QAE@PAUNode@QMapData@@@Z 1005bc90 f i gattdbsyntaxhighlighter.obj
 0001:0005aca0       ??9const_iterator@?$QList@W4Scope@GattDbSyntaxHighlighter@@@@QBE_NABV01@@Z 1005bca0 f i gattdbsyntaxhighlighter.obj
 0001:0005acc0       ??9const_iterator@?$QList@W4AttributeScope@GattDbSyntaxHighlighter@@@@QBE_NABV01@@Z 1005bcc0 f i gattdbsyntaxhighlighter.obj
 0001:0005ace0       ?t@Node@?$QList@W4Scope@GattDbSyntaxHighlighter@@@@QAEAAW4Scope@GattDbSyntaxHighlighter@@XZ 1005bce0 f i gattdbsyntaxhighlighter.obj
 0001:0005acf0       ?t@Node@?$QList@W4AttributeScope@GattDbSyntaxHighlighter@@@@QAEAAW4AttributeScope@GattDbSyntaxHighlighter@@XZ 1005bcf0 f i gattdbsyntaxhighlighter.obj
 0001:0005ad00       ?at@?$QVector@VQString@@@@QBEABVQString@@H@Z 1005bd00 f i gattdbsyntaxhighlighter.obj
 0001:0005ad10       ??$qForeachPointer@V?$QList@W4Scope@GattDbSyntaxHighlighter@@@@@@YAPAV?$QList@W4Scope@GattDbSyntaxHighlighter@@@@ABV0@@Z 1005bd10 f i gattdbsyntaxhighlighter.obj
 0001:0005ad20       ??$qForeachContainer@V?$QList@W4Scope@GattDbSyntaxHighlighter@@@@@@YAPBV?$QForeachContainer@V?$QList@W4Scope@GattDbSyntaxHighlighter@@@@@@PBUQForeachContainerBase@@PBV?$QList@W4Scope@GattDbSyntaxHighlighter@@@@@Z 1005bd20 f i gattdbsyntaxhighlighter.obj
 0001:0005ad30       ??$qForeachPointer@V?$QList@W4AttributeScope@GattDbSyntaxHighlighter@@@@@@YAPAV?$QList@W4AttributeScope@GattDbSyntaxHighlighter@@@@ABV0@@Z 1005bd30 f i gattdbsyntaxhighlighter.obj
 0001:0005ad40       ??$qForeachContainer@V?$QList@W4AttributeScope@GattDbSyntaxHighlighter@@@@@@YAPBV?$QForeachContainer@V?$QList@W4AttributeScope@GattDbSyntaxHighlighter@@@@@@PBUQForeachContainerBase@@PBV?$QList@W4AttributeScope@GattDbSyntaxHighlighter@@@@@Z 1005bd40 f i gattdbsyntaxhighlighter.obj
 0001:0005ad50       ?payload@?$QMap@W4Scope@GattDbSyntaxHighlighter@@VQString@@@@CAHXZ 1005bd50 f i gattdbsyntaxhighlighter.obj
 0001:0005ad60       ?concrete@?$QMap@W4Scope@GattDbSyntaxHighlighter@@VQString@@@@CAPAU?$QMapNode@W4Scope@GattDbSyntaxHighlighter@@VQString@@@@PAUNode@QMapData@@@Z 1005bd60 f i gattdbsyntaxhighlighter.obj
 0001:0005ad70       ?payload@?$QMap@W4AttributeScope@GattDbSyntaxHighlighter@@VQString@@@@CAHXZ 1005bd70 f i gattdbsyntaxhighlighter.obj
 0001:0005ad80       ?concrete@?$QMap@W4AttributeScope@GattDbSyntaxHighlighter@@VQString@@@@CAPAU?$QMapNode@W4AttributeScope@GattDbSyntaxHighlighter@@VQString@@@@PAUNode@QMapData@@@Z 1005bd80 f i gattdbsyntaxhighlighter.obj
 0001:0005ad90       ?sizeOfTypedData@?$QVector@VQString@@@@AAEHXZ 1005bd90 f i gattdbsyntaxhighlighter.obj
 0001:0005ada0       ?payload@?$QMap@VQString@@VQStringList@@@@CAHXZ 1005bda0 f i gattdbsyntaxhighlighter.obj
 0001:0005adb0       ?concrete@?$QMap@VQString@@VQStringList@@@@CAPAU?$QMapNode@VQString@@VQStringList@@@@PAUNode@QMapData@@@Z 1005bdb0 f i gattdbsyntaxhighlighter.obj
 0001:0005adc0       ??Bconst_iterator@?$QMap@HV?$QMap@VQString@@H@@@@QBEPAUNode@QMapData@@XZ 1005bdc0 f i gattdbsyntaxhighlighter.obj
 0001:0005add0       ??0?$QList@W4Scope@GattDbSyntaxHighlighter@@@@QAE@XZ 1005bdd0 f i gattdbsyntaxhighlighter.obj
 0001:0005adf0       ??0?$QList@W4AttributeScope@GattDbSyntaxHighlighter@@@@QAE@XZ 1005bdf0 f i gattdbsyntaxhighlighter.obj
 0001:0005ae10       ?key@const_iterator@?$QMap@W4Scope@GattDbSyntaxHighlighter@@VQString@@@@QBEABW4Scope@GattDbSyntaxHighlighter@@XZ 1005be10 f i gattdbsyntaxhighlighter.obj
 0001:0005ae20       ??9const_iterator@?$QMap@W4Scope@GattDbSyntaxHighlighter@@VQString@@@@QBE_NABV01@@Z 1005be20 f i gattdbsyntaxhighlighter.obj
 0001:0005ae40       ??Econst_iterator@?$QMap@W4Scope@GattDbSyntaxHighlighter@@VQString@@@@QAEAAV01@XZ 1005be40 f i gattdbsyntaxhighlighter.obj
 0001:0005ae50       ?key@const_iterator@?$QMap@W4AttributeScope@GattDbSyntaxHighlighter@@VQString@@@@QBEABW4AttributeScope@GattDbSyntaxHighlighter@@XZ 1005be50 f i gattdbsyntaxhighlighter.obj
 0001:0005ae60       ??9const_iterator@?$QMap@W4AttributeScope@GattDbSyntaxHighlighter@@VQString@@@@QBE_NABV01@@Z 1005be60 f i gattdbsyntaxhighlighter.obj
 0001:0005ae80       ??Econst_iterator@?$QMap@W4AttributeScope@GattDbSyntaxHighlighter@@VQString@@@@QAEAAV01@XZ 1005be80 f i gattdbsyntaxhighlighter.obj
 0001:0005ae90       ??0const_iterator@?$QMap@W4Scope@GattDbSyntaxHighlighter@@VQString@@@@QAE@PAUNode@QMapData@@@Z 1005be90 f i gattdbsyntaxhighlighter.obj
 0001:0005aea0       ??0const_iterator@?$QMap@W4AttributeScope@GattDbSyntaxHighlighter@@VQString@@@@QAE@PAUNode@QMapData@@@Z 1005bea0 f i gattdbsyntaxhighlighter.obj
 0001:0005aeb0       ??0const_iterator@?$QList@W4Scope@GattDbSyntaxHighlighter@@@@QAE@PAUNode@1@@Z 1005beb0 f i gattdbsyntaxhighlighter.obj
 0001:0005aec0       ??0const_iterator@?$QList@W4AttributeScope@GattDbSyntaxHighlighter@@@@QAE@PAUNode@1@@Z 1005bec0 f i gattdbsyntaxhighlighter.obj
 0001:0005aed0       ?node_create@?$QMap@W4Scope@GattDbSyntaxHighlighter@@VQString@@@@AAEPAUNode@QMapData@@PAU3@QAPAU23@ABW4Scope@GattDbSyntaxHighlighter@@ABVQString@@@Z 1005bed0 f i gattdbsyntaxhighlighter.obj
 0001:0005af40       ?node_create@?$QMap@W4AttributeScope@GattDbSyntaxHighlighter@@VQString@@@@AAEPAUNode@QMapData@@PAU3@QAPAU23@ABW4AttributeScope@GattDbSyntaxHighlighter@@ABVQString@@@Z 1005bf40 f i gattdbsyntaxhighlighter.obj
 0001:0005afb0       ??$qMapLessThanKey@W4Scope@GattDbSyntaxHighlighter@@@@YA_NABW4Scope@GattDbSyntaxHighlighter@@0@Z 1005bfb0 f i gattdbsyntaxhighlighter.obj
 0001:0005afd0       ?node_construct@?$QList@W4Scope@GattDbSyntaxHighlighter@@@@AAEXPAUNode@1@ABW4Scope@GattDbSyntaxHighlighter@@@Z 1005bfd0 f i gattdbsyntaxhighlighter.obj
 0001:0005b000       ?node_destruct@?$QList@W4Scope@GattDbSyntaxHighlighter@@@@AAEXPAUNode@1@0@Z 1005c000 f i gattdbsyntaxhighlighter.obj
 0001:0005b030       ?node_copy@?$QList@W4Scope@GattDbSyntaxHighlighter@@@@AAEXPAUNode@1@00@Z 1005c030 f i gattdbsyntaxhighlighter.obj
 0001:0005b070       ??$qMapLessThanKey@W4AttributeScope@GattDbSyntaxHighlighter@@@@YA_NABW4AttributeScope@GattDbSyntaxHighlighter@@0@Z 1005c070 f i gattdbsyntaxhighlighter.obj
 0001:0005b090       ?node_construct@?$QList@W4AttributeScope@GattDbSyntaxHighlighter@@@@AAEXPAUNode@1@ABW4AttributeScope@GattDbSyntaxHighlighter@@@Z 1005c090 f i gattdbsyntaxhighlighter.obj
 0001:0005b0c0       ?node_destruct@?$QList@W4AttributeScope@GattDbSyntaxHighlighter@@@@AAEXPAUNode@1@0@Z 1005c0c0 f i gattdbsyntaxhighlighter.obj
 0001:0005b0f0       ?node_copy@?$QList@W4AttributeScope@GattDbSyntaxHighlighter@@@@AAEXPAUNode@1@00@Z 1005c0f0 f i gattdbsyntaxhighlighter.obj
 0001:0005b130       ?malloc@?$QVector@VQString@@@@AAEPAUQVectorData@@H@Z 1005c130 f i gattdbsyntaxhighlighter.obj
 0001:0005b150       ?constEnd@?$QMap@HV?$QMap@VQString@@H@@@@QBE?AVconst_iterator@1@XZ 1005c150 f i gattdbsyntaxhighlighter.obj
 0001:0005b160       ?constBegin@?$QMap@VQString@@H@@QBE?AVconst_iterator@1@XZ 1005c160 f i gattdbsyntaxhighlighter.obj
 0001:0005b170       ?end@?$QMap@VQString@@H@@QBE?AVconst_iterator@1@XZ 1005c170 f i gattdbsyntaxhighlighter.obj
 0001:0005b180       ?constEnd@?$QMap@VQString@@H@@QBE?AVconst_iterator@1@XZ 1005c180 f i gattdbsyntaxhighlighter.obj
 0001:0005b190       ?condition@?$QForeachContainer@V?$QList@W4Scope@GattDbSyntaxHighlighter@@@@@@QBE_NXZ 1005c190 f i gattdbsyntaxhighlighter.obj
 0001:0005b1b0       ??Dconst_iterator@?$QList@W4Scope@GattDbSyntaxHighlighter@@@@QBEABW4Scope@GattDbSyntaxHighlighter@@XZ 1005c1b0 f i gattdbsyntaxhighlighter.obj
 0001:0005b1c0       ?condition@?$QForeachContainer@V?$QList@W4AttributeScope@GattDbSyntaxHighlighter@@@@@@QBE_NXZ 1005c1c0 f i gattdbsyntaxhighlighter.obj
 0001:0005b1e0       ??Dconst_iterator@?$QList@W4AttributeScope@GattDbSyntaxHighlighter@@@@QBEABW4AttributeScope@GattDbSyntaxHighlighter@@XZ 1005c1e0 f i gattdbsyntaxhighlighter.obj
 0001:0005b1f0       ?freeData@?$QMap@W4Scope@GattDbSyntaxHighlighter@@VQString@@@@AAEXPAUQMapData@@@Z 1005c1f0 f i gattdbsyntaxhighlighter.obj
 0001:0005b240       ?freeData@?$QMap@W4AttributeScope@GattDbSyntaxHighlighter@@VQString@@@@AAEXPAUQMapData@@@Z 1005c240 f i gattdbsyntaxhighlighter.obj
 0001:0005b290       ?free@?$QVector@VQString@@@@AAEXPAU?$QVectorTypedData@VQString@@@@@Z 1005c290 f i gattdbsyntaxhighlighter.obj
 0001:0005b2e0       ?begin@?$QMap@W4Scope@GattDbSyntaxHighlighter@@VQString@@@@QBE?AVconst_iterator@1@XZ 1005c2e0 f i gattdbsyntaxhighlighter.obj
 0001:0005b2f0       ?end@?$QMap@W4Scope@GattDbSyntaxHighlighter@@VQString@@@@QBE?AVconst_iterator@1@XZ 1005c2f0 f i gattdbsyntaxhighlighter.obj
 0001:0005b300       ?begin@?$QMap@W4AttributeScope@GattDbSyntaxHighlighter@@VQString@@@@QBE?AVconst_iterator@1@XZ 1005c300 f i gattdbsyntaxhighlighter.obj
 0001:0005b310       ?end@?$QMap@W4AttributeScope@GattDbSyntaxHighlighter@@VQString@@@@QBE?AVconst_iterator@1@XZ 1005c310 f i gattdbsyntaxhighlighter.obj
 0001:0005b320       ?begin@?$QList@W4Scope@GattDbSyntaxHighlighter@@@@QBE?AVconst_iterator@1@XZ 1005c320 f i gattdbsyntaxhighlighter.obj
 0001:0005b340       ?end@?$QList@W4Scope@GattDbSyntaxHighlighter@@@@QBE?AVconst_iterator@1@XZ 1005c340 f i gattdbsyntaxhighlighter.obj
 0001:0005b360       ?begin@?$QList@W4AttributeScope@GattDbSyntaxHighlighter@@@@QBE?AVconst_iterator@1@XZ 1005c360 f i gattdbsyntaxhighlighter.obj
 0001:0005b380       ?end@?$QList@W4AttributeScope@GattDbSyntaxHighlighter@@@@QBE?AVconst_iterator@1@XZ 1005c380 f i gattdbsyntaxhighlighter.obj
 0001:0005b3a0       ?detach_helper@?$QMap@W4Scope@GattDbSyntaxHighlighter@@VQString@@@@AAEXXZ 1005c3a0 f i gattdbsyntaxhighlighter.obj
 0001:0005b460       ?mutableFindNode@?$QMap@W4Scope@GattDbSyntaxHighlighter@@VQString@@@@ABEPAUNode@QMapData@@QAPAU23@ABW4Scope@GattDbSyntaxHighlighter@@@Z 1005c460 f i gattdbsyntaxhighlighter.obj
 0001:0005b4c0       ?free@?$QList@W4Scope@GattDbSyntaxHighlighter@@@@AAEXPAUData@QListData@@@Z 1005c4c0 f i gattdbsyntaxhighlighter.obj
 0001:0005b510       ?detach_helper@?$QMap@W4AttributeScope@GattDbSyntaxHighlighter@@VQString@@@@AAEXXZ 1005c510 f i gattdbsyntaxhighlighter.obj
 0001:0005b5d0       ?mutableFindNode@?$QMap@W4AttributeScope@GattDbSyntaxHighlighter@@VQString@@@@ABEPAUNode@QMapData@@QAPAU23@ABW4AttributeScope@GattDbSyntaxHighlighter@@@Z 1005c5d0 f i gattdbsyntaxhighlighter.obj
 0001:0005b630       ?free@?$QList@W4AttributeScope@GattDbSyntaxHighlighter@@@@AAEXPAUData@QListData@@@Z 1005c630 f i gattdbsyntaxhighlighter.obj
 0001:0005b680       ?realloc@?$QVector@VQString@@@@AAEXHH@Z 1005c680 f i gattdbsyntaxhighlighter.obj
 0001:0005b8e0       ?mutableFindNode@?$QMap@VQString@@VQStringList@@@@ABEPAUNode@QMapData@@QAPAU23@ABVQString@@@Z 1005c8e0 f i gattdbsyntaxhighlighter.obj
 0001:0005b950       ??1?$QMap@W4Scope@GattDbSyntaxHighlighter@@VQString@@@@QAE@XZ 1005c950 f i gattdbsyntaxhighlighter.obj
 0001:0005b970       ??1?$QMap@W4AttributeScope@GattDbSyntaxHighlighter@@VQString@@@@QAE@XZ 1005c970 f i gattdbsyntaxhighlighter.obj
 0001:0005b990       ??Dconst_iterator@?$QMap@HV?$QMap@VQString@@H@@@@QBEABV?$QMap@VQString@@H@@XZ 1005c990 f i gattdbsyntaxhighlighter.obj
 0001:0005b9a0       ?key@const_iterator@?$QMap@VQString@@H@@QBEABVQString@@XZ 1005c9a0 f i gattdbsyntaxhighlighter.obj
 0001:0005b9b0       ??Dconst_iterator@?$QMap@VQString@@H@@QBEABHXZ 1005c9b0 f i gattdbsyntaxhighlighter.obj
 0001:0005b9c0       ??1?$QVector@VQString@@@@QAE@XZ 1005c9c0 f i gattdbsyntaxhighlighter.obj
 0001:0005b9e0       ?append@?$QVector@VQString@@@@QAEXABVQString@@@Z 1005c9e0 f i gattdbsyntaxhighlighter.obj
 0001:0005bad0       ?find@?$QMap@VQString@@H@@QBE?AVconst_iterator@1@ABVQString@@@Z 1005cad0 f i gattdbsyntaxhighlighter.obj
 0001:0005baf0       ??1?$QList@W4Scope@GattDbSyntaxHighlighter@@@@QAE@XZ 1005caf0 f i gattdbsyntaxhighlighter.obj
 0001:0005bb10       ??1?$QList@W4AttributeScope@GattDbSyntaxHighlighter@@@@QAE@XZ 1005cb10 f i gattdbsyntaxhighlighter.obj
 0001:0005bb30       ?detach@?$QMap@W4Scope@GattDbSyntaxHighlighter@@VQString@@@@QAEXXZ 1005cb30 f i gattdbsyntaxhighlighter.obj
 0001:0005bb50       ?detach@?$QMap@W4AttributeScope@GattDbSyntaxHighlighter@@VQString@@@@QAEXXZ 1005cb50 f i gattdbsyntaxhighlighter.obj
 0001:0005bb70       ?detach_helper@?$QList@W4Scope@GattDbSyntaxHighlighter@@@@AAEXXZ 1005cb70 f i gattdbsyntaxhighlighter.obj
 0001:0005bbc0       ?detach_helper@?$QList@W4AttributeScope@GattDbSyntaxHighlighter@@@@AAEXXZ 1005cbc0 f i gattdbsyntaxhighlighter.obj
 0001:0005bc10       ?resize@?$QVector@VQString@@@@QAEXH@Z 1005cc10 f i gattdbsyntaxhighlighter.obj
 0001:0005bc70       ?detach_helper@?$QVector@VQString@@@@AAEXXZ 1005cc70 f i gattdbsyntaxhighlighter.obj
 0001:0005bc80       ?lowerBound@?$QMap@HV?$QMap@VQString@@H@@@@QBE?AVconst_iterator@1@ABH@Z 1005cc80 f i gattdbsyntaxhighlighter.obj
 0001:0005bcb0       ?detach@?$QList@W4Scope@GattDbSyntaxHighlighter@@@@QAEXXZ 1005ccb0 f i gattdbsyntaxhighlighter.obj
 0001:0005bcc0       ?detach@?$QList@W4AttributeScope@GattDbSyntaxHighlighter@@@@QAEXXZ 1005ccc0 f i gattdbsyntaxhighlighter.obj
 0001:0005bcd0       ??1?$QForeachContainer@V?$QList@W4Scope@GattDbSyntaxHighlighter@@@@@@QAE@XZ 1005ccd0 f i gattdbsyntaxhighlighter.obj
 0001:0005bcf0       ??1?$QForeachContainer@V?$QList@W4AttributeScope@GattDbSyntaxHighlighter@@@@@@QAE@XZ 1005ccf0 f i gattdbsyntaxhighlighter.obj
 0001:0005bd10       ??0?$QStack@VQString@@@@QAE@XZ 1005cd10 f i gattdbsyntaxhighlighter.obj
 0001:0005bd30       ??1?$QStack@VQString@@@@QAE@XZ 1005cd30 f i gattdbsyntaxhighlighter.obj
 0001:0005bd50       ?push@?$QStack@VQString@@@@QAEXABVQString@@@Z 1005cd50 f i gattdbsyntaxhighlighter.obj
 0001:0005bd60       ??A?$QMap@W4Scope@GattDbSyntaxHighlighter@@VQString@@@@QAEAAVQString@@ABW4Scope@GattDbSyntaxHighlighter@@@Z 1005cd60 f i gattdbsyntaxhighlighter.obj
 0001:0005be30       ??A?$QMap@W4AttributeScope@GattDbSyntaxHighlighter@@VQString@@@@QAEAAVQString@@ABW4AttributeScope@GattDbSyntaxHighlighter@@@Z 1005ce30 f i gattdbsyntaxhighlighter.obj
 0001:0005bf00       ?detach@?$QVector@VQString@@@@QAEXXZ 1005cf00 f i gattdbsyntaxhighlighter.obj
 0001:0005bf20       ?data@?$QVector@VQString@@@@QAEPAVQString@@XZ 1005cf20 f i gattdbsyntaxhighlighter.obj
 0001:0005bf50       ??0?$QList@W4Scope@GattDbSyntaxHighlighter@@@@QAE@ABV0@@Z 1005cf50 f i gattdbsyntaxhighlighter.obj
 0001:0005bf80       ??0?$QForeachContainer@V?$QList@W4Scope@GattDbSyntaxHighlighter@@@@@@QAE@ABV?$QList@W4Scope@GattDbSyntaxHighlighter@@@@@Z 1005cf80 f i gattdbsyntaxhighlighter.obj
 0001:0005bfd0       ??0?$QList@W4AttributeScope@GattDbSyntaxHighlighter@@@@QAE@ABV0@@Z 1005cfd0 f i gattdbsyntaxhighlighter.obj
 0001:0005c000       ??0?$QForeachContainer@V?$QList@W4AttributeScope@GattDbSyntaxHighlighter@@@@@@QAE@ABV?$QList@W4AttributeScope@GattDbSyntaxHighlighter@@@@@Z 1005d000 f i gattdbsyntaxhighlighter.obj
 0001:0005c050       ?append@?$QList@W4Scope@GattDbSyntaxHighlighter@@@@QAEXABW4Scope@GattDbSyntaxHighlighter@@@Z 1005d050 f i gattdbsyntaxhighlighter.obj
 0001:0005c090       ?append@?$QList@W4AttributeScope@GattDbSyntaxHighlighter@@@@QAEXABW4AttributeScope@GattDbSyntaxHighlighter@@@Z 1005d090 f i gattdbsyntaxhighlighter.obj
 0001:0005c0d0       ??4?$QVector@VQString@@@@QAEAAV0@ABV0@@Z 1005d0d0 f i gattdbsyntaxhighlighter.obj
 0001:0005c120       ?fromScopeEnum@GattDbSyntaxHighlighter@@AAE?AVQString@@W4Scope@1@@Z 1005d120 f   gattdbsyntaxhighlighter.obj
 0001:0005c150       ?fromAttributeScopeEnum@GattDbSyntaxHighlighter@@AAE?AVQString@@W4AttributeScope@1@@Z 1005d150 f   gattdbsyntaxhighlighter.obj
 0001:0005c180       ?keys@?$QMap@W4Scope@GattDbSyntaxHighlighter@@VQString@@@@QBE?AV?$QList@W4Scope@GattDbSyntaxHighlighter@@@@XZ 1005d180 f i gattdbsyntaxhighlighter.obj
 0001:0005c2b0       ?keys@?$QMap@W4AttributeScope@GattDbSyntaxHighlighter@@VQString@@@@QBE?AV?$QList@W4AttributeScope@GattDbSyntaxHighlighter@@@@XZ 1005d2b0 f i gattdbsyntaxhighlighter.obj
 0001:0005c3e0       ?clear@?$QVector@VQString@@@@QAEXXZ 1005d3e0 f i gattdbsyntaxhighlighter.obj
 0001:0005c480       ?pop@?$QStack@VQString@@@@QAE?AVQString@@XZ 1005d480 f i gattdbsyntaxhighlighter.obj
 0001:0005c510       ?top@?$QStack@VQString@@@@QAEAAVQString@@XZ 1005d510 f i gattdbsyntaxhighlighter.obj
 0001:0005c560       ?freeData@?$QMap@VQString@@VQStringList@@@@AAEXPAUQMapData@@@Z 1005d560 f i gattdbsyntaxhighlighter.obj
 0001:0005c5e0       ??$qForeachContainerNew@V?$QList@W4Scope@GattDbSyntaxHighlighter@@@@@@YA?AV?$QForeachContainer@V?$QList@W4Scope@GattDbSyntaxHighlighter@@@@@@ABV?$QList@W4Scope@GattDbSyntaxHighlighter@@@@@Z 1005d5e0 f i gattdbsyntaxhighlighter.obj
 0001:0005c640       ??$qForeachContainerNew@V?$QList@W4AttributeScope@GattDbSyntaxHighlighter@@@@@@YA?AV?$QForeachContainer@V?$QList@W4AttributeScope@GattDbSyntaxHighlighter@@@@@@ABV?$QList@W4AttributeScope@GattDbSyntaxHighlighter@@@@@Z 1005d640 f i gattdbsyntaxhighlighter.obj
 0001:0005c6a0       ?node_create@?$QMap@VQString@@VQStringList@@@@AAEPAUNode@QMapData@@PAU3@QAPAU23@ABVQString@@ABVQStringList@@@Z 1005d6a0 f i gattdbsyntaxhighlighter.obj
 0001:0005c740       ?previousBlockDepthState@GattDbSyntaxHighlighter@@AAEHXZ 1005d740 f   gattdbsyntaxhighlighter.obj
 0001:0005c900       ?previousBlockAttributeState@GattDbSyntaxHighlighter@@AAE?AW4AttributeState@1@XZ 1005d900 f   gattdbsyntaxhighlighter.obj
 0001:0005c9b0       ?fromScopeName@GattDbSyntaxHighlighter@@AAE?AW4Scope@1@VQString@@@Z 1005d9b0 f   gattdbsyntaxhighlighter.obj
 0001:0005cce0       ?fromAttributeScopeName@GattDbSyntaxHighlighter@@AAE?AW4AttributeScope@1@VQString@@@Z 1005dce0 f   gattdbsyntaxhighlighter.obj
 0001:0005d010       ??1?$QMap@VQString@@VQStringList@@@@QAE@XZ 1005e010 f i gattdbsyntaxhighlighter.obj
 0001:0005d030       ?detach_helper@?$QMap@VQString@@VQStringList@@@@AAEXXZ 1005e030 f i gattdbsyntaxhighlighter.obj
 0001:0005d0b0       ??1GattDbSyntaxHighlighter@@UAE@XZ 1005e0b0 f   gattdbsyntaxhighlighter.obj
 0001:0005d5f0       ?isPreprocessorHashKeyword@GattDbSyntaxHighlighter@@AAEHVQString@@@Z 1005e5f0 f   gattdbsyntaxhighlighter.obj
 0001:0005d7a0       ?setCurrentBlockDepthState@GattDbSyntaxHighlighter@@AAEXH@Z 1005e7a0 f   gattdbsyntaxhighlighter.obj
 0001:0005d900       ?setCurrentBlockAttributeState@GattDbSyntaxHighlighter@@AAEXW4AttributeState@1@@Z 1005e900 f   gattdbsyntaxhighlighter.obj
 0001:0005d960       ?lowerBound@?$QMap@HV?$QMap@VQString@@H@@@@QAE?AViterator@1@ABH@Z 1005e960 f i gattdbsyntaxhighlighter.obj
 0001:0005d9a0       ?detach@?$QMap@VQString@@VQStringList@@@@QAEXXZ 1005e9a0 f i gattdbsyntaxhighlighter.obj
 0001:0005d9c0       ??_GGattDbSyntaxHighlighter@@UAEPAXI@Z 1005e9c0 f i gattdbsyntaxhighlighter.obj
 0001:0005d9c0       ??_EGattDbSyntaxHighlighter@@UAEPAXI@Z 1005e9c0 f i gattdbsyntaxhighlighter.obj
 0001:0005d9e0       ?addKnownWords@GattDbSyntaxHighlighter@@AAEXVQStringList@@W4FormatId@SyntaxHighlighter@@@Z 1005e9e0 f   gattdbsyntaxhighlighter.obj
 0001:0005dd00       ?keywordBeginsWith@GattDbSyntaxHighlighter@@AAE_NVQString@@@Z 1005ed00 f   gattdbsyntaxhighlighter.obj
 0001:0005de10       ??A?$QMap@VQString@@VQStringList@@@@QAEAAVQStringList@@ABVQString@@@Z 1005ee10 f i gattdbsyntaxhighlighter.obj
 0001:0005def0       ??0GattDbSyntaxHighlighter@@QAE@XZ 1005eef0 f   gattdbsyntaxhighlighter.obj
 0001:00060620       ?applyFormatToToken@GattDbSyntaxHighlighter@@AAEXABVQString@@HH@Z 10061620 f   gattdbsyntaxhighlighter.obj
 0001:00060b20       ?highlightBlockHook@GattDbSyntaxHighlighter@@MAEXABVQString@@@Z 10061b20 f   gattdbsyntaxhighlighter.obj
 0001:00061510       ??0GlobalsProxyModel@@QAE@PAVQObject@@@Z 10062510 f   globalsproxymodel.obj
 0001:00061570       ??1GlobalsProxyModel@@UAE@XZ 10062570 f   globalsproxymodel.obj
 0001:00061580       ?filterAcceptsRow@GlobalsProxyModel@@MBE_NHABVQModelIndex@@@Z 10062580 f   globalsproxymodel.obj
 0001:00061640       ??_EGlobalsProxyModel@@UAEPAXI@Z 10062640 f i globalsproxymodel.obj
 0001:00061640       ??_GGlobalsProxyModel@@UAEPAXI@Z 10062640 f i globalsproxymodel.obj
 0001:00061670       ??H@YA?BVQString@@ABV0@D@Z 10062670 f i globalsymbols.obj
 0001:000616f0       ??8MemAddr@@QBE_NABV0@@Z   100626f0 f i globalsymbols.obj
 0001:00061710       ??GMemAddr@@QAE?AV0@H@Z    10062710 f i globalsymbols.obj
 0001:00061740       ?qHash@@YAIABVMemAddr@@@Z  10062740 f i globalsymbols.obj
 0001:00061750       ??1SymbolListBase@@UAE@XZ  10062750 f i globalsymbols.obj
 0001:00061760       ?sourceType@SymbolListBase@@QAE?AW4SourceType@SourceSymbols@@ABVQString@@@Z 10062760 f i globalsymbols.obj
 0001:000618d0       ??_ESymbolListBase@@UAEPAXI@Z 100628d0 f i globalsymbols.obj
 0001:000618d0       ??_GSymbolListBase@@UAEPAXI@Z 100628d0 f i globalsymbols.obj
 0001:000618f0       ??0SymbolListBase@@QAE@XZ  100628f0 f i globalsymbols.obj
 0001:00061900       ?setSourceSymbols@GlobalSymbols@@QAEXPAVSourceSymbols@@@Z 10062900 f   globalsymbols.obj
 0001:00061910       ?setLookupRules@GlobalSymbols@@QAEXW4LookupRules@1@@Z 10062910 f   globalsymbols.obj
 0001:00061920       ?lookupRules@GlobalSymbols@@ABE?AW4LookupRules@1@XZ 10062920 f   globalsymbols.obj
 0001:00061930       ?setGlobalsBeginDollar@GlobalSymbols@@QAEX_N@Z 10062930 f   globalsymbols.obj
 0001:00061940       ?setSourceSymbolRegion@GlobalSymbols@@QAEXH@Z 10062940 f   globalsymbols.obj
 0001:00061950       ?setLoaded@GlobalSymbols@@QAEX_N@Z 10062950 f   globalsymbols.obj
 0001:00061960       ?loaded@GlobalSymbols@@UAE_NXZ 10062960 f   globalsymbols.obj
 0001:00061980       ?hide@GlobalSymbols@@QAEXXZ 10062980 f   globalsymbols.obj
 0001:00061990       ?unhide@GlobalSymbols@@QAEXXZ 10062990 f   globalsymbols.obj
 0001:000619a0       ?hidden@GlobalSymbols@@QBE_NXZ 100629a0 f   globalsymbols.obj
 0001:000619b0       ?decodeHex@GlobalSymbols@@AAE?AVQString@@ABV2@PA_N@Z 100629b0 f   globalsymbols.obj
 0001:00061a80       ?regionToIndex@GlobalSymbols@@ABEHH@Z 10062a80 f   globalsymbols.obj
 0001:00061ab0       ??0?$QHash@VQString@@V?$QHash@VQString@@VMemAddr@@@@@@QAE@XZ 10062ab0 f i globalsymbols.obj
 0001:00061ad0       ??0?$QMap@HV?$QMap@IVQString@@@@@@QAE@XZ 10062ad0 f i globalsymbols.obj
 0001:00061af0       ??0?$QHash@VMemAddr@@_N@@QAE@XZ 10062af0 f i globalsymbols.obj
 0001:00061b10       ??0const_iterator@?$QList@VQString@@@@QAE@ABViterator@1@@Z 10062b10 f i globalsymbols.obj
 0001:00061b20       ??Econst_iterator@?$QList@H@@QAEAAV01@XZ 10062b20 f i globalsymbols.obj
 0001:00061b30       ??Econst_iterator@?$QList@VMemAddr@@@@QAEAAV01@XZ 10062b30 f i globalsymbols.obj
 0001:00061b40       ??0?$QList@USymbol@SymbolListBase@@@@QAE@XZ 10062b40 f i globalsymbols.obj
 0001:00061b60       ?size@?$QList@USymbol@SymbolListBase@@@@QBEHXZ 10062b60 f i globalsymbols.obj
 0001:00061b70       ??9const_iterator@?$QMap@IVQString@@@@QBE_NABV01@@Z 10062b70 f i globalsymbols.obj
 0001:00061b90       ??Econst_iterator@?$QMap@IVQString@@@@QAE?AV01@H@Z 10062b90 f i globalsymbols.obj
 0001:00061ba0       ??9const_iterator@?$QList@H@@QBE_NABV01@@Z 10062ba0 f i globalsymbols.obj
 0001:00061bc0       ??9const_iterator@?$QList@VMemAddr@@@@QBE_NABV01@@Z 10062bc0 f i globalsymbols.obj
 0001:00061be0       ?payload@?$QMap@IVQString@@@@CAHXZ 10062be0 f i globalsymbols.obj
 0001:00061bf0       ??0iterator@?$QList@USymbol@SymbolListBase@@@@QAE@PAUNode@1@@Z 10062bf0 f i globalsymbols.obj
 0001:00061c00       ??$qForeachPointer@V?$QList@H@@@@YAPAV?$QList@H@@ABV0@@Z 10062c00 f i globalsymbols.obj
 0001:00061c10       ??$qForeachContainer@V?$QList@H@@@@YAPBV?$QForeachContainer@V?$QList@H@@@@PBUQForeachContainerBase@@PBV?$QList@H@@@Z 10062c10 f i globalsymbols.obj
 0001:00061c20       ??$qForeachPointer@V?$QList@VMemAddr@@@@@@YAPAV?$QList@VMemAddr@@@@ABV0@@Z 10062c20 f i globalsymbols.obj
 0001:00061c30       ??$qForeachContainer@V?$QList@VMemAddr@@@@@@YAPBV?$QForeachContainer@V?$QList@VMemAddr@@@@@@PBUQForeachContainerBase@@PBV?$QList@VMemAddr@@@@@Z 10062c30 f i globalsymbols.obj
 0001:00061c40       ??$qSwap@I@@YAXAAI0@Z      10062c40 f i globalsymbols.obj
 0001:00061c60       ?payload@?$QMap@HV?$QMap@IVQString@@@@@@CAHXZ 10062c60 f i globalsymbols.obj
 0001:00061c70       ?concrete@?$QMap@HV?$QMap@IVQString@@@@@@CAPAU?$QMapNode@HV?$QMap@IVQString@@@@@@PAUNode@QMapData@@@Z 10062c70 f i globalsymbols.obj
 0001:00061c80       ??0?$QHash@VQString@@VMemAddr@@@@QAE@XZ 10062c80 f i globalsymbols.obj
 0001:00061ca0       ??0?$QList@H@@QAE@XZ       10062ca0 f i globalsymbols.obj
 0001:00061cc0       ??0?$QMap@IVQString@@@@QAE@XZ 10062cc0 f i globalsymbols.obj
 0001:00061ce0       ??0iterator@?$QHash@VMemAddr@@_N@@QAE@PAX@Z 10062ce0 f i globalsymbols.obj
 0001:00061cf0       ??0iterator@?$QMap@IVQString@@@@QAE@PAUNode@QMapData@@@Z 10062cf0 f i globalsymbols.obj
 0001:00061d00       ??0const_iterator@?$QMap@IVQString@@@@QAE@PAUNode@QMapData@@@Z 10062d00 f i globalsymbols.obj
 0001:00061d10       ??Econst_iterator@?$QMap@IVQString@@@@QAEAAV01@XZ 10062d10 f i globalsymbols.obj
 0001:00061d20       ??8const_iterator@?$QHash@VQString@@V?$QHash@VQString@@VMemAddr@@@@@@QBE_NABV01@@Z 10062d20 f i globalsymbols.obj
 0001:00061d40       ??9const_iterator@?$QHash@VQString@@V?$QHash@VQString@@VMemAddr@@@@@@QBE_NABV01@@Z 10062d40 f i globalsymbols.obj
 0001:00061d60       ??Econst_iterator@?$QHash@VQString@@V?$QHash@VQString@@VMemAddr@@@@@@QAEAAV01@XZ 10062d60 f i globalsymbols.obj
 0001:00061d80       ?key@const_iterator@?$QMap@HV?$QMap@IVQString@@@@@@QBEABHXZ 10062d80 f i globalsymbols.obj
 0001:00061d90       ??9const_iterator@?$QMap@HV?$QMap@IVQString@@@@@@QBE_NABV01@@Z 10062d90 f i globalsymbols.obj
 0001:00061db0       ??Econst_iterator@?$QMap@HV?$QMap@IVQString@@@@@@QAEAAV01@XZ 10062db0 f i globalsymbols.obj
 0001:00061dc0       ??9const_iterator@?$QHash@VMemAddr@@_N@@QBE_NABV01@@Z 10062dc0 f i globalsymbols.obj
 0001:00061de0       ??Econst_iterator@?$QHash@VMemAddr@@_N@@QAEAAV01@XZ 10062de0 f i globalsymbols.obj
 0001:00061e00       ??9const_iterator@?$QHash@VQString@@VMemAddr@@@@QBE_NABV01@@Z 10062e00 f i globalsymbols.obj
 0001:00061e20       ??Econst_iterator@?$QHash@VQString@@VMemAddr@@@@QAEAAV01@XZ 10062e20 f i globalsymbols.obj
 0001:00061e40       ?concrete@?$QHash@VQString@@V?$QHash@VQString@@VMemAddr@@@@@@CAPAU?$QHashNode@VQString@@V?$QHash@VQString@@VMemAddr@@@@@@PAUNode@QHashData@@@Z 10062e40 f i globalsymbols.obj
 0001:00061e50       ?concrete@?$QHash@VMemAddr@@_N@@CAPAU?$QHashNode@VMemAddr@@_N@@PAUNode@QHashData@@@Z 10062e50 f i globalsymbols.obj
 0001:00061e60       ?concrete@?$QHash@VQString@@VMemAddr@@@@CAPAU?$QHashNode@VQString@@VMemAddr@@@@PAUNode@QHashData@@@Z 10062e60 f i globalsymbols.obj
 0001:00061e70       ??0const_iterator@?$QHash@VQString@@V?$QHash@VQString@@VMemAddr@@@@@@QAE@PAX@Z 10062e70 f i globalsymbols.obj
 0001:00061e80       ??0const_iterator@?$QMap@HV?$QMap@IVQString@@@@@@QAE@PAUNode@QMapData@@@Z 10062e80 f i globalsymbols.obj
 0001:00061e90       ??0const_iterator@?$QHash@VMemAddr@@_N@@QAE@PAX@Z 10062e90 f i globalsymbols.obj
 0001:00061ea0       ??0const_iterator@?$QHash@VQString@@VMemAddr@@@@QAE@PAX@Z 10062ea0 f i globalsymbols.obj
 0001:00061eb0       ??0const_iterator@?$QList@H@@QAE@PAUNode@1@@Z 10062eb0 f i globalsymbols.obj
 0001:00061ec0       ??0const_iterator@?$QList@VMemAddr@@@@QAE@PAUNode@1@@Z 10062ec0 f i globalsymbols.obj
 0001:00061ed0       ?deleteNode@?$QHash@VMemAddr@@_N@@AAEXPAU?$QHashNode@VMemAddr@@_N@@@Z 10062ed0 f i globalsymbols.obj
 0001:00061ee0       ??1?$QHashNode@VQString@@VMemAddr@@@@QAE@XZ 10062ee0 f i globalsymbols.obj
 0001:00061f00       ?same_key@?$QHashNode@VQString@@V?$QHash@VQString@@VMemAddr@@@@@@QAE_NIABVQString@@@Z 10062f00 f i globalsymbols.obj
 0001:00061f30       ??0?$QHashNode@VMemAddr@@_N@@QAE@ABVMemAddr@@AB_N@Z 10062f30 f i globalsymbols.obj
 0001:00061f50       ?same_key@?$QHashNode@VMemAddr@@_N@@QAE_NIABVMemAddr@@@Z 10062f50 f i globalsymbols.obj
 0001:00061f80       ??0?$QHashNode@VQString@@VMemAddr@@@@QAE@ABVQString@@ABVMemAddr@@@Z 10062f80 f i globalsymbols.obj
 0001:00061fb0       ?same_key@?$QHashNode@VQString@@VMemAddr@@@@QAE_NIABVQString@@@Z 10062fb0 f i globalsymbols.obj
 0001:00061fe0       ??0?$QHashDummyNode@VQString@@V?$QHash@VQString@@VMemAddr@@@@@@QAE@ABVQString@@@Z 10062fe0 f i globalsymbols.obj
 0001:00062000       ??0?$QHashDummyNode@VQString@@VMemAddr@@@@QAE@ABVQString@@@Z 10063000 f i globalsymbols.obj
 0001:00062020       ??0?$QHashDummyNode@VMemAddr@@_N@@QAE@ABVMemAddr@@@Z 10063020 f i globalsymbols.obj
 0001:00062040       ?duplicateNode@?$QHash@VQString@@VMemAddr@@@@CAXPAUNode@QHashData@@PAX@Z 10063040 f i globalsymbols.obj
 0001:000620a0       ?node_construct@?$QList@H@@AAEXPAUNode@1@ABH@Z 100630a0 f i globalsymbols.obj
 0001:000620b0       ?node_copy@?$QList@H@@AAEXPAUNode@1@00@Z 100630b0 f i globalsymbols.obj
 0001:000620c0       ?duplicateNode@?$QHash@VMemAddr@@_N@@CAXPAUNode@QHashData@@PAX@Z 100630c0 f i globalsymbols.obj
 0001:000621f0       ?parseGlobalSymbol@GlobalSymbols@@AAE_NPBDPAVQString@@PAI@Z 100631f0 f   globalsymbols.obj
 0001:000622c0       ?parseModuleSymbol@GlobalSymbols@@AAE_NPBDPAVQString@@1PAI@Z 100632c0 f   globalsymbols.obj
 0001:000623e0       ?parseSourceSymbol@GlobalSymbols@@SA_NPBDPAVQString@@PAHPAI@Z 100633e0 f   globalsymbols.obj
 0001:00062540       ?condition@?$QForeachContainer@V?$QList@H@@@@QBE_NXZ 10063540 f i globalsymbols.obj
 0001:00062560       ??Dconst_iterator@?$QList@H@@QBEABHXZ 10063560 f i globalsymbols.obj
 0001:00062570       ?condition@?$QForeachContainer@V?$QList@VMemAddr@@@@@@QBE_NXZ 10063570 f i globalsymbols.obj
 0001:00062590       ??Dconst_iterator@?$QList@VMemAddr@@@@QBEABVMemAddr@@XZ 10063590 f i globalsymbols.obj
 0001:000625a0       ?concrete@?$QMap@IVQString@@@@CAPAU?$QMapNode@IVQString@@@@PAUNode@QMapData@@@Z 100635a0 f i globalsymbols.obj
 0001:000625b0       ?freeData@?$QHash@VMemAddr@@_N@@AAEXPAUQHashData@@@Z 100635b0 f i globalsymbols.obj
 0001:00062600       ?freeData@?$QMap@IVQString@@@@AAEXPAUQMapData@@@Z 10063600 f i globalsymbols.obj
 0001:00062650       ?begin@?$QHash@VQString@@V?$QHash@VQString@@VMemAddr@@@@@@QBE?AVconst_iterator@1@XZ 10063650 f i globalsymbols.obj
 0001:00062680       ?end@?$QHash@VQString@@V?$QHash@VQString@@VMemAddr@@@@@@QBE?AVconst_iterator@1@XZ 10063680 f i globalsymbols.obj
 0001:00062690       ?begin@?$QMap@HV?$QMap@IVQString@@@@@@QBE?AVconst_iterator@1@XZ 10063690 f i globalsymbols.obj
 0001:000626a0       ?end@?$QMap@HV?$QMap@IVQString@@@@@@QBE?AVconst_iterator@1@XZ 100636a0 f i globalsymbols.obj
 0001:000626b0       ?begin@?$QHash@VMemAddr@@_N@@QBE?AVconst_iterator@1@XZ 100636b0 f i globalsymbols.obj
 0001:000626e0       ?end@?$QHash@VMemAddr@@_N@@QBE?AVconst_iterator@1@XZ 100636e0 f i globalsymbols.obj
 0001:000626f0       ?begin@?$QHash@VQString@@VMemAddr@@@@QBE?AVconst_iterator@1@XZ 100636f0 f i globalsymbols.obj
 0001:00062720       ?end@?$QHash@VQString@@VMemAddr@@@@QBE?AVconst_iterator@1@XZ 10063720 f i globalsymbols.obj
 0001:00062730       ?begin@?$QMap@IVQString@@@@QBE?AVconst_iterator@1@XZ 10063730 f i globalsymbols.obj
 0001:00062740       ?end@?$QMap@IVQString@@@@QBE?AVconst_iterator@1@XZ 10063740 f i globalsymbols.obj
 0001:00062750       ?key@const_iterator@?$QHash@VQString@@V?$QHash@VQString@@VMemAddr@@@@@@QBEABVQString@@XZ 10063750 f i globalsymbols.obj
 0001:00062760       ?key@const_iterator@?$QHash@VMemAddr@@_N@@QBEABVMemAddr@@XZ 10063760 f i globalsymbols.obj
 0001:00062770       ?key@const_iterator@?$QHash@VQString@@VMemAddr@@@@QBEABVQString@@XZ 10063770 f i globalsymbols.obj
 0001:00062780       ?begin@?$QList@H@@QBE?AVconst_iterator@1@XZ 10063780 f i globalsymbols.obj
 0001:000627a0       ?end@?$QList@H@@QBE?AVconst_iterator@1@XZ 100637a0 f i globalsymbols.obj
 0001:000627c0       ?begin@?$QList@VMemAddr@@@@QBE?AVconst_iterator@1@XZ 100637c0 f i globalsymbols.obj
 0001:000627e0       ?end@?$QList@VMemAddr@@@@QBE?AVconst_iterator@1@XZ 100637e0 f i globalsymbols.obj
 0001:00062800       ?findNode@?$QHash@VQString@@V?$QHash@VQString@@VMemAddr@@@@@@ABEPAPAU?$QHashNode@VQString@@V?$QHash@VQString@@VMemAddr@@@@@@ABVQString@@PAI@Z 10063800 f i globalsymbols.obj
 0001:00062870       ?findNode@?$QHash@VQString@@VMemAddr@@@@ABEPAPAU?$QHashNode@VQString@@VMemAddr@@@@ABVQString@@PAI@Z 10063870 f i globalsymbols.obj
 0001:000628e0       ?createNode@?$QHash@VQString@@VMemAddr@@@@AAEPAU?$QHashNode@VQString@@VMemAddr@@@@IABVQString@@ABVMemAddr@@PAPAU2@@Z 100638e0 f i globalsymbols.obj
 0001:00062970       ?findNode@?$QMap@HV?$QMap@IVQString@@@@@@ABEPAUNode@QMapData@@ABH@Z 10063970 f i globalsymbols.obj
 0001:000629c0       ?mutableFindNode@?$QMap@HV?$QMap@IVQString@@@@@@ABEPAUNode@QMapData@@QAPAU23@ABH@Z 100639c0 f i globalsymbols.obj
 0001:00062a20       ?findNode@?$QMap@IVQString@@@@ABEPAUNode@QMapData@@ABI@Z 10063a20 f i globalsymbols.obj
 0001:00062a70       ?mutableFindNode@?$QMap@IVQString@@@@ABEPAUNode@QMapData@@QAPAU23@ABI@Z 10063a70 f i globalsymbols.obj
 0001:00062ad0       ?node_create@?$QMap@IVQString@@@@AAEPAUNode@QMapData@@PAU3@QAPAU23@ABIABVQString@@@Z 10063ad0 f i globalsymbols.obj
 0001:00062b40       ?detach_helper@?$QHash@VMemAddr@@_N@@AAEXXZ 10063b40 f i globalsymbols.obj
 0001:00062b80       ?findNode@?$QHash@VMemAddr@@_N@@ABEPAPAU?$QHashNode@VMemAddr@@_N@@ABVMemAddr@@PAI@Z 10063b80 f i globalsymbols.obj
 0001:00062be0       ?createNode@?$QHash@VMemAddr@@_N@@AAEPAU?$QHashNode@VMemAddr@@_N@@IABVMemAddr@@AB_NPAPAU2@@Z 10063be0 f i globalsymbols.obj
 0001:00062c30       ?node_construct@?$QList@USymbol@SymbolListBase@@@@AAEXPAUNode@1@ABUSymbol@SymbolListBase@@@Z 10063c30 f i globalsymbols.obj
 0001:00062cb0       ?node_destruct@?$QList@USymbol@SymbolListBase@@@@AAEXPAUNode@1@@Z 10063cb0 f i globalsymbols.obj
 0001:00062ce0       ??_G?$QHashNode@VQString@@VMemAddr@@@@QAEPAXI@Z 10063ce0 f i globalsymbols.obj
 0001:00062d20       ??1?$QHash@VMemAddr@@_N@@QAE@XZ 10063d20 f i globalsymbols.obj
 0001:00062d40       ??1?$QMap@IVQString@@@@QAE@XZ 10063d40 f i globalsymbols.obj
 0001:00062d60       ?key@const_iterator@?$QMap@IVQString@@@@QBEABIXZ 10063d60 f i globalsymbols.obj
 0001:00062d70       ?value@const_iterator@?$QMap@IVQString@@@@QBEABVQString@@XZ 10063d70 f i globalsymbols.obj
 0001:00062d80       ?contains@?$QHash@VQString@@V1@@@QBE_NABVQString@@@Z 10063d80 f i globalsymbols.obj
 0001:00062da0       ?contains@?$QHash@VQString@@V?$QHash@VQString@@VMemAddr@@@@@@QBE_NABVQString@@@Z 10063da0 f i globalsymbols.obj
 0001:00062dc0       ?contains@?$QMap@HV?$QMap@IVQString@@@@@@QBE_NABH@Z 10063dc0 f i globalsymbols.obj
 0001:00062de0       ?value@?$QHash@VMemAddr@@_N@@QBE?B_NABVMemAddr@@@Z 10063de0 f i globalsymbols.obj
 0001:00062e10       ?contains@?$QHash@VQString@@VMemAddr@@@@QBE_NABVQString@@@Z 10063e10 f i globalsymbols.obj
 0001:00062e30       ?lowerBound@?$QMap@IVQString@@@@QBE?AVconst_iterator@1@ABI@Z 10063e30 f i globalsymbols.obj
 0001:00062e60       ?upperBound@?$QMap@IVQString@@@@QBE?AVconst_iterator@1@ABI@Z 10063e60 f i globalsymbols.obj
 0001:00062ea0       ?erase@?$QList@USymbol@SymbolListBase@@@@QAE?AViterator@1@V21@@Z 10063ea0 f i globalsymbols.obj
 0001:00062ef0       ??_G?$QMap@IVQString@@@@QAEPAXI@Z 10063ef0 f i globalsymbols.obj
 0001:00062f30       ?detach@?$QHash@VMemAddr@@_N@@QAEXXZ 10063f30 f i globalsymbols.obj
 0001:00062f70       ?value@?$QHash@VQString@@VMemAddr@@@@QBE?BVMemAddr@@ABVQString@@@Z 10063f70 f i globalsymbols.obj
 0001:00062fc0       ?deleteNode@?$QHash@VQString@@VMemAddr@@@@AAEXPAU?$QHashNode@VQString@@VMemAddr@@@@@Z 10063fc0 f i globalsymbols.obj
 0001:00062ff0       ?value@?$QMap@IVQString@@@@QBE?BVQString@@ABI@Z 10063ff0 f i globalsymbols.obj
 0001:00063050       ?detach_helper@?$QMap@IVQString@@@@AAEXXZ 10064050 f i globalsymbols.obj
 0001:00063110       ?detach_helper@?$QList@H@@AAEXXZ 10064110 f i globalsymbols.obj
 0001:00063130       ??4?$QHash@VMemAddr@@_N@@QAEAAV0@ABV0@@Z 10064130 f i globalsymbols.obj
 0001:000631a0       ?detach@?$QList@H@@QAEXXZ  100641a0 f i globalsymbols.obj
 0001:000631d0       ??1?$QForeachContainer@V?$QList@H@@@@QAE@XZ 100641d0 f i globalsymbols.obj
 0001:000631f0       ??1?$QForeachContainer@V?$QList@VMemAddr@@@@@@QAE@XZ 100641f0 f i globalsymbols.obj
 0001:00063210       ?detach@?$QList@USymbol@SymbolListBase@@@@QAEXXZ 10064210 f i globalsymbols.obj
 0001:00063220       ?uniqueKeys@?$QHash@VQString@@V?$QHash@VQString@@VMemAddr@@@@@@QBE?AV?$QList@VQString@@@@XZ 10064220 f i globalsymbols.obj
 0001:000632f0       ?keys@?$QHash@VQString@@V?$QHash@VQString@@VMemAddr@@@@@@QBE?AV?$QList@VQString@@@@XZ 100642f0 f i globalsymbols.obj
 0001:000633a0       ?freeData@?$QMap@HV?$QMap@IVQString@@@@@@AAEXPAUQMapData@@@Z 100643a0 f i globalsymbols.obj
 0001:000633f0       ?clear@?$QHash@VMemAddr@@_N@@QAEXXZ 100643f0 f i globalsymbols.obj
 0001:00063460       ??A?$QHash@VMemAddr@@_N@@QAEAA_NABVMemAddr@@@Z 10064460 f i globalsymbols.obj
 0001:00063520       ?insert@?$QHash@VMemAddr@@_N@@QAE?AViterator@1@ABVMemAddr@@AB_N@Z 10064520 f i globalsymbols.obj
 0001:00063600       ??A?$QHash@VQString@@VMemAddr@@@@QBE?BVMemAddr@@ABVQString@@@Z 10064600 f i globalsymbols.obj
 0001:00063650       ?keys@?$QHash@VQString@@VMemAddr@@@@QBE?AV?$QList@VQString@@@@XZ 10064650 f i globalsymbols.obj
 0001:00063700       ?freeData@?$QHash@VQString@@VMemAddr@@@@AAEXPAUQHashData@@@Z 10064700 f i globalsymbols.obj
 0001:00063770       ??A?$QMap@IVQString@@@@QBE?BVQString@@ABI@Z 10064770 f i globalsymbols.obj
 0001:00063790       ?values@?$QMap@IVQString@@@@QBE?AV?$QList@VQString@@@@ABI@Z 10064790 f i globalsymbols.obj
 0001:00063820       ??4?$QList@USymbol@SymbolListBase@@@@QAEAAV0@ABV0@@Z 10064820 f i globalsymbols.obj
 0001:00063890       ?append@?$QList@USymbol@SymbolListBase@@@@QAEXABUSymbol@SymbolListBase@@@Z 10064890 f i globalsymbols.obj
 0001:000638c0       ??0?$QList@H@@QAE@ABV0@@Z  100648c0 f i globalsymbols.obj
 0001:00063910       ??0?$QForeachContainer@V?$QList@H@@@@QAE@ABV?$QList@H@@@Z 10064910 f i globalsymbols.obj
 0001:00063980       ?detach@?$QMap@IVQString@@@@QAEXXZ 10064980 f i globalsymbols.obj
 0001:000639a0       ??0?$QForeachContainer@V?$QList@VMemAddr@@@@@@QAE@ABV?$QList@VMemAddr@@@@@Z 100649a0 f i globalsymbols.obj
 0001:000639f0       ?detach_helper@?$QHash@VQString@@VMemAddr@@@@AAEXXZ 100649f0 f i globalsymbols.obj
 0001:00063a30       ?append@?$QList@H@@QAEXABH@Z 10064a30 f i globalsymbols.obj
 0001:00063a80       ??0?$QMap@IVQString@@@@QAE@ABV0@@Z 10064a80 f i globalsymbols.obj
 0001:00063ac0       ?moduleList@GlobalSymbols@@QAE?AVQStringList@@XZ 10064ac0 f   globalsymbols.obj
 0001:00063b90       ??1?$QMap@HV?$QMap@IVQString@@@@@@QAE@XZ 10064b90 f i globalsymbols.obj
 0001:00063bb0       ??1?$QHash@VQString@@VMemAddr@@@@QAE@XZ 10064bb0 f i globalsymbols.obj
 0001:00063bd0       ??6?$QList@USymbol@SymbolListBase@@@@QAEAAV0@ABUSymbol@SymbolListBase@@@Z 10064bd0 f i globalsymbols.obj
 0001:00063c00       ?begin@?$QList@USymbol@SymbolListBase@@@@QAE?AViterator@1@XZ 10064c00 f i globalsymbols.obj
 0001:00063c30       ?keys@?$QMap@HV?$QMap@IVQString@@@@@@QBE?AV?$QList@H@@XZ 10064c30 f i globalsymbols.obj
 0001:00063ce0       ?keys@?$QHash@VMemAddr@@_N@@QBE?AV?$QList@VMemAddr@@@@XZ 10064ce0 f i globalsymbols.obj
 0001:00063e30       ??$qForeachContainerNew@V?$QList@H@@@@YA?AV?$QForeachContainer@V?$QList@H@@@@ABV?$QList@H@@@Z 10064e30 f i globalsymbols.obj
 0001:00063e50       ?keys@?$QMap@IVQString@@@@QBE?AV?$QList@I@@XZ 10064e50 f i globalsymbols.obj
 0001:00063f00       ?insertMulti@?$QMap@IVQString@@@@QAE?AViterator@1@ABIABVQString@@@Z 10064f00 f i globalsymbols.obj
 0001:00063f50       ??$qForeachContainerNew@V?$QList@VMemAddr@@@@@@YA?AV?$QForeachContainer@V?$QList@VMemAddr@@@@@@ABV?$QList@VMemAddr@@@@@Z 10064f50 f i globalsymbols.obj
 0001:00063fb0       ?detach@?$QHash@VQString@@VMemAddr@@@@QAEXXZ 10064fb0 f i globalsymbols.obj
 0001:00063ff0       ?value@?$QMap@HV?$QMap@IVQString@@@@@@QBE?BV?$QMap@IVQString@@@@ABH@Z 10064ff0 f i globalsymbols.obj
 0001:00064070       ?node_create@?$QMap@HV?$QMap@IVQString@@@@@@AAEPAUNode@QMapData@@PAU3@QAPAU23@ABHABV?$QMap@IVQString@@@@@Z 10065070 f i globalsymbols.obj
 0001:00064100       ??1?$QHashNode@VQString@@V?$QHash@VQString@@VMemAddr@@@@@@QAE@XZ 10065100 f i globalsymbols.obj
 0001:00064170       ?removeFirst@?$QList@USymbol@SymbolListBase@@@@QAEXXZ 10065170 f i globalsymbols.obj
 0001:000641d0       ??A?$QHash@VQString@@V1@@@QAEAAVQString@@ABV1@@Z 100651d0 f i globalsymbols.obj
 0001:000642f0       ??A?$QMap@HV?$QMap@IVQString@@@@@@QBE?BV?$QMap@IVQString@@@@ABH@Z 100652f0 f i globalsymbols.obj
 0001:00064310       ??A?$QHash@VQString@@VMemAddr@@@@QAEAAVMemAddr@@ABVQString@@@Z 10065310 f i globalsymbols.obj
 0001:000643d0       ??0?$QHash@VQString@@VMemAddr@@@@QAE@ABV0@@Z 100653d0 f i globalsymbols.obj
 0001:00064430       ?detach_helper@?$QMap@HV?$QMap@IVQString@@@@@@AAEXXZ 10065430 f i globalsymbols.obj
 0001:000644b0       ??_G?$QHashNode@VQString@@V?$QHash@VQString@@VMemAddr@@@@@@QAEPAXI@Z 100654b0 f i globalsymbols.obj
 0001:000644d0       ??0?$QHashNode@VQString@@V?$QHash@VQString@@VMemAddr@@@@@@QAE@ABVQString@@ABV?$QHash@VQString@@VMemAddr@@@@@Z 100654d0 f i globalsymbols.obj
 0001:00064530       ?duplicateNode@?$QHash@VQString@@V?$QHash@VQString@@VMemAddr@@@@@@CAXPAUNode@QHashData@@PAX@Z 10065530 f i globalsymbols.obj
 0001:00064580       ?setProjectFiles@GlobalSymbols@@QAEXABVQStringList@@ABVQDir@@@Z 10065580 f   globalsymbols.obj
 0001:00064750       ?lookupSymbols@GlobalSymbols@@UBE?AVQStringList@@VMemAddr@@_N@Z 10065750 f   globalsymbols.obj
 0001:00064a30       ?pop_front@?$QList@USymbol@SymbolListBase@@@@QAEXXZ 10065a30 f i globalsymbols.obj
 0001:00064a40       ?value@?$QHash@VQString@@V?$QHash@VQString@@VMemAddr@@@@@@QBE?BV?$QHash@VQString@@VMemAddr@@@@ABVQString@@@Z 10065a40 f i globalsymbols.obj
 0001:00064aa0       ??A?$QHash@VQString@@V?$QHash@VQString@@VMemAddr@@@@@@QBE?BV?$QHash@VQString@@VMemAddr@@@@ABVQString@@@Z 10065aa0 f i globalsymbols.obj
 0001:00064ac0       ?detach@?$QMap@HV?$QMap@IVQString@@@@@@QAEXXZ 10065ac0 f i globalsymbols.obj
 0001:00064ae0       ?createNode@?$QHash@VQString@@V?$QHash@VQString@@VMemAddr@@@@@@AAEPAU?$QHashNode@VQString@@V?$QHash@VQString@@VMemAddr@@@@@@IABVQString@@ABV?$QHash@VQString@@VMemAddr@@@@PAPAU2@@Z 10065ae0 f i globalsymbols.obj
 0001:00064b60       ?deleteNode@?$QHash@VQString@@V?$QHash@VQString@@VMemAddr@@@@@@AAEXPAU?$QHashNode@VQString@@V?$QHash@VQString@@VMemAddr@@@@@@@Z 10065b60 f i globalsymbols.obj
 0001:00064b80       ??4?$QMap@HV?$QMap@IVQString@@@@@@QAEAAV0@ABV0@@Z 10065b80 f i globalsymbols.obj
 0001:00064bd0       ?lookupSymbol@GlobalSymbols@@UBE_NABVQString@@PAVMemAddr@@@Z 10065bd0 f   globalsymbols.obj
 0001:00064e60       ?symbolsForModule@GlobalSymbols@@QAE?AV?$QHash@VQString@@VMemAddr@@@@ABVQString@@@Z 10065e60 f   globalsymbols.obj
 0001:00064e90       ?symbolsBeforeAddress@GlobalSymbols@@UAE?AV?$QList@USymbol@SymbolListBase@@@@VMemAddr@@I@Z 10065e90 f   globalsymbols.obj
 0001:00065020       ?freeData@?$QHash@VQString@@V?$QHash@VQString@@VMemAddr@@@@@@AAEXPAUQHashData@@@Z 10066020 f i globalsymbols.obj
 0001:000650f0       ?clear@?$QMap@HV?$QMap@IVQString@@@@@@QAEXXZ 100660f0 f i globalsymbols.obj
 0001:000651a0       ??A?$QMap@HV?$QMap@IVQString@@@@@@QAEAAV?$QMap@IVQString@@@@ABH@Z 100661a0 f i globalsymbols.obj
 0001:00065270       ?detach_helper@?$QHash@VQString@@V?$QHash@VQString@@VMemAddr@@@@@@AAEXXZ 10066270 f i globalsymbols.obj
 0001:000652b0       ?symbolsInRange@GlobalSymbols@@UAE?AV?$QList@USymbol@SymbolListBase@@@@VMemAddr@@0@Z 100662b0 f   globalsymbols.obj
 0001:000654f0       ??1?$QHash@VQString@@V?$QHash@VQString@@VMemAddr@@@@@@QAE@XZ 100664f0 f i globalsymbols.obj
 0001:00065510       ?detach@?$QHash@VQString@@V?$QHash@VQString@@VMemAddr@@@@@@QAEXXZ 10066510 f i globalsymbols.obj
 0001:00065550       ??4?$QHash@VQString@@V?$QHash@VQString@@VMemAddr@@@@@@QAEAAV0@ABV0@@Z 10066550 f i globalsymbols.obj
 0001:000655c0       ??0GlobalSymbols@@QAE@XZ   100665c0 f   globalsymbols.obj
 0001:00065700       ??_EGlobalSymbols@@W7AEPAXI@Z 10066700 f i globalsymbols.obj
 0001:00065710       ??1GlobalSymbols@@UAE@XZ   10066710 f   globalsymbols.obj
 0001:00065870       ?clear@?$QHash@VQString@@V?$QHash@VQString@@VMemAddr@@@@@@QAEXXZ 10066870 f i globalsymbols.obj
 0001:000658e0       ??A?$QHash@VQString@@V?$QHash@VQString@@VMemAddr@@@@@@QAEAAV?$QHash@VQString@@VMemAddr@@@@ABVQString@@@Z 100668e0 f i globalsymbols.obj
 0001:00065a00       ??_EGlobalSymbols@@UAEPAXI@Z 10066a00 f i globalsymbols.obj
 0001:00065a00       ??_GGlobalSymbols@@UAEPAXI@Z 10066a00 f i globalsymbols.obj
 0001:00065a20       ?clear@GlobalSymbols@@QAEXXZ 10066a20 f   globalsymbols.obj
 0001:00065a80       ?testDump@GlobalSymbols@@QAEXXZ 10066a80 f   globalsymbols.obj
 0001:00066cd0       ?addModuleSymbol@GlobalSymbols@@AAEXABVQString@@0ABVMemAddr@@@Z 10067cd0 f   globalsymbols.obj
 0001:00066e70       ?addGlobalSymbol@GlobalSymbols@@QAEXABVQString@@ABVMemAddr@@@Z 10067e70 f   globalsymbols.obj
 0001:00066ef0       ?addGlobalFunctionSymbol@GlobalSymbols@@QAEXABVQString@@ABVMemAddr@@@Z 10067ef0 f   globalsymbols.obj
 0001:00066f20       ?symbolsMatching@GlobalSymbols@@QAE?AV?$QList@USymbol@SymbolListBase@@@@W4SymbolMatchType@1@VQString@@H@Z 10067f20 f   globalsymbols.obj
 0001:00067900       ?addSymbol@GlobalSymbols@@QAE_NABVQString@@_NH@Z 10068900 f   globalsymbols.obj
 0001:00068070       ?searchSymbols@GlobalSymbols@@UAE?AV?$QList@USymbol@SymbolListBase@@@@VQString@@H@Z 10069070 f   globalsymbols.obj
 0001:00068100       ??0HarvardElfParser@@QAE@G_N@Z 10069100 f   harvardelfparser.obj
 0001:00068130       ??1HarvardElfParser@@UAE@XZ 10069130 f   harvardelfparser.obj
 0001:00068140       ?setRegions@HarvardElfParser@@QAEXHH@Z 10069140 f   harvardelfparser.obj
 0001:00068160       ?setCodeMask@HarvardElfParser@@QAEXI@Z 10069160 f   harvardelfparser.obj
 0001:00068170       ?extraCheck@HarvardElfParser@@MBE_NPBUElf32_Phdr@ElfParser@@PBUElf32_Shdr@3@@Z 10069170 f   harvardelfparser.obj
 0001:000681a0       ?translateAddress@HarvardElfParser@@MBE?AVMemAddr@@I@Z 100691a0 f   harvardelfparser.obj
 0001:000681e0       ?translateCodeAddress@HarvardElfParser@@MBE?AVMemAddr@@I@Z 100691e0 f   harvardelfparser.obj
 0001:00068210       ?translateDataAddress@HarvardElfParser@@MBE?AVMemAddr@@I@Z 10069210 f   harvardelfparser.obj
 0001:00068240       ??_GHarvardElfParser@@UAEPAXI@Z 10069240 f i harvardelfparser.obj
 0001:00068240       ??_EHarvardElfParser@@UAEPAXI@Z 10069240 f i harvardelfparser.obj
 0001:00068270       ??0Indenter@@QAE@XZ        10069270 f   indenter.obj
 0001:00068290       ??1Indenter@@UAE@XZ        10069290 f   indenter.obj
 0001:000682a0       ?setTabSize@Indenter@@QAEXH@Z 100692a0 f   indenter.obj
 0001:000682b0       ?setKeepTabs@Indenter@@QAEX_N@Z 100692b0 f   indenter.obj
 0001:000682c0       ?setIndentMode@Indenter@@QAEXH@Z 100692c0 f   indenter.obj
 0001:000682d0       ?tabSize@Indenter@@QBEHXZ  100692d0 f   indenter.obj
 0001:000682e0       ?keepTabs@Indenter@@QBE_NXZ 100692e0 f   indenter.obj
 0001:000682f0       ?indentMode@Indenter@@QBEHXZ 100692f0 f   indenter.obj
 0001:00068300       ?calcIndentationForce@Indenter@@IBEHABVQString@@@Z 10069300 f   indenter.obj
 0001:00068380       ?tabify@Indenter@@IAEXAAVQString@@@Z 10069380 f   indenter.obj
 0001:00068620       ?indentLength@Indenter@@QAEHVQTextCursor@@@Z 10069620 f   indenter.obj
 0001:00068770       ??_GIndenter@@UAEPAXI@Z    10069770 f i indenter.obj
 0001:00068770       ??_EIndenter@@UAEPAXI@Z    10069770 f i indenter.obj
 0001:00068790       ?calcIndentation@Indenter@@IBEHABVQString@@@Z 10069790 f   indenter.obj
 0001:000687f0       ?updateIndentation@Indenter@@IAEXVQTextCursor@@H@Z 100697f0 f   indenter.obj
 0001:000688f0       ?increaseIndent@Indenter@@QAEXVQTextCursor@@@Z 100698f0 f   indenter.obj
 0001:00068970       ?decreaseIndent@Indenter@@QAEXVQTextCursor@@@Z 10069970 f   indenter.obj
 0001:000689f0       ?indentBlock@Indenter@@UAEXVQTextCursor@@ABVQChar@@@Z 100699f0 f   indenter.obj
 0001:00068b20       ?isBitField@Location@@QBE_NPAH@Z 10069b20 f i integertype.obj
 0001:00068b40       ??0IntegerType@@QAE@ABVQString@@H_N1@Z 10069b40 f   integertype.obj
 0001:00068bb0       ??1IntegerType@@UAE@XZ     10069bb0 f   integertype.obj
 0001:00068bc0       ?writeVariant@IntegerType@@UBE_NABVQVariant@@ABVLocation@@PAVLocationResolver@@@Z 10069bc0 f   integertype.obj
 0001:00068c90       ?bitSize@IntegerType@@QBEHXZ 10069c90 f   integertype.obj
 0001:00068ca0       ?isSigned@IntegerType@@QBE_NXZ 10069ca0 f   integertype.obj
 0001:00068cb0       ?isChar@IntegerType@@UBE_NXZ 10069cb0 f   integertype.obj
 0001:00068cc0       ??_EIntegerType@@UAEPAXI@Z 10069cc0 f i integertype.obj
 0001:00068cc0       ??_GIntegerType@@UAEPAXI@Z 10069cc0 f i integertype.obj
 0001:00068cf0       ?describe@IntegerType@@UBE?AVQString@@XZ 10069cf0 f   integertype.obj
 0001:00068ec0       ?size@IntegerType@@UBEHPBVLocationResolver@@@Z 10069ec0 f   integertype.obj
 0001:00068ef0       ?formatValue@IntegerType@@UBE?AVQString@@ABVLocation@@PBVLocationResolver@@@Z 10069ef0 f   integertype.obj
 0001:00069420       ?readVariant@IntegerType@@UBE?AVQVariant@@ABVLocation@@PBVLocationResolver@@@Z 1006a420 f   integertype.obj
 0001:00069610       ?canUnwindThroughIrqs@InterruptStackConfig@@QBE_NXZ 1006a610 f   interruptstackconfig.obj
 0001:00069660       ?data@?$Basic@VProcessorConfigAccessor@@@QtSharedPointer@@QBEPAVProcessorConfigAccessor@@XZ 1006a660 f i interruptstackconfig.obj
 0001:00069670       ??C?$Basic@VProcessorConfigAccessor@@@QtSharedPointer@@QBEPAVProcessorConfigAccessor@@XZ 1006a670 f i interruptstackconfig.obj
 0001:00069680       ?isEmpty@?$QList@USymbol@SymbolListBase@@@@QBE_NXZ 1006a680 f i interruptstackconfig.obj
 0001:00069690       ?ref@?$ExternalRefCount@VProcessorConfigAccessor@@@QtSharedPointer@@IBEXXZ 1006a690 f i interruptstackconfig.obj
 0001:000696b0       ?internalDestroy@?$Basic@VProcessorConfigAccessor@@@QtSharedPointer@@IAEXXZ 1006a6b0 f i interruptstackconfig.obj
 0001:000696c0       ??$getPropertyValue@H@ProcessorConfigAccessor@@QBEHABVQString@@@Z 1006a6c0 f i interruptstackconfig.obj
 0001:00069770       ??$getPropertyValue@_N@ProcessorConfigAccessor@@QBE_NABVQString@@@Z 1006a770 f i interruptstackconfig.obj
 0001:00069830       ?payload@?$QMap@VQString@@V1@@@CAHXZ 1006a830 f i interruptstackconfig.obj
 0001:00069840       ?concrete@?$QMap@VQString@@V1@@@CAPAU?$QMapNode@VQString@@V1@@@PAUNode@QMapData@@@Z 1006a840 f i interruptstackconfig.obj
 0001:00069850       ??0?$ExternalRefCount@VProcessorConfigAccessor@@@QtSharedPointer@@IAE@ABV01@@Z 1006a850 f i interruptstackconfig.obj
 0001:00069890       ?freeData@?$QMap@VQString@@V1@@@AAEXPAUQMapData@@@Z 1006a890 f i interruptstackconfig.obj
 0001:000698f0       ??A?$QList@USymbol@SymbolListBase@@@@QBEABUSymbol@SymbolListBase@@H@Z 1006a8f0 f i interruptstackconfig.obj
 0001:00069900       ??1?$QMap@VQString@@V1@@@QAE@XZ 1006a900 f i interruptstackconfig.obj
 0001:00069920       ??1ProcessorConfigAccessor@@QAE@XZ 1006a920 f i interruptstackconfig.obj
 0001:000699a0       ??_GProcessorConfigAccessor@@QAEPAXI@Z 1006a9a0 f i interruptstackconfig.obj
 0001:000699c0       ?internalDestroy@?$ExternalRefCount@VProcessorConfigAccessor@@@QtSharedPointer@@IAEXXZ 1006a9c0 f i interruptstackconfig.obj
 0001:000699f0       ?deref@?$ExternalRefCount@VProcessorConfigAccessor@@@QtSharedPointer@@IAE_NXZ 1006a9f0 f i interruptstackconfig.obj
 0001:00069a40       ??1?$ExternalRefCount@VProcessorConfigAccessor@@@QtSharedPointer@@IAE@XZ 1006aa40 f i interruptstackconfig.obj
 0001:00069a70       ??1?$QSharedPointer@VProcessorConfigAccessor@@@@QAE@XZ 1006aa70 f i interruptstackconfig.obj
 0001:00069aa0       ?lookupEnabledFlag@?A0x53fd21be@@YA_NV?$QSharedPointer@VProcessorConfigAccessor@@@@@Z 1006aaa0 f   interruptstackconfig.obj
 0001:00069bb0       ??0?$QSharedPointer@VProcessorConfigAccessor@@@@QAE@ABV0@@Z 1006abb0 f i interruptstackconfig.obj
 0001:00069bf0       ?lookupConfig@?A0x53fd21be@@YAHABVQString@@_NPAVSymbolListBase@@V?$QSharedPointer@VProcessorConfigAccessor@@@@H@Z 1006abf0 f   interruptstackconfig.obj
 0001:00069dd0       ??0InterruptStackConfig@@QAE@PAVSymbolListBase@@V?$QSharedPointer@VProcessorConfigAccessor@@@@@Z 1006add0 f   interruptstackconfig.obj
 0001:0006a410       ??0IOException@@QAE@ABVQString@@@Z 1006b410 f   ioexception.obj
 0001:0006a430       ??0IOException@@QAE@XZ     1006b430 f   ioexception.obj
 0001:0006a440       ??1KeyrDocumentExtension@@UAE@XZ 1006b440 f   keyrdocumentextension.obj
 0001:0006a450       ?addRef@KeyrDocumentExtension@@UAEKXZ 1006b450 f i keyrdocumentextension.obj
 0001:0006a460       ?release@KeyrDocumentExtension@@UAEKXZ 1006b460 f i keyrdocumentextension.obj
 0001:0006a480       ?queryInterface@KeyrDocumentExtension@@UAEKABUQUuid@@PAPAUQUnknownInterface@@@Z 1006b480 f   keyrdocumentextension.obj
 0001:0006a600       ?type@KeyrDocumentExtension@@UBE?AW4Type@IExtension@@XZ 1006b600 f   keyrdocumentextension.obj
 0001:0006a610       ?name@KeyrDocumentExtension@@UBE?AVQString@@XZ 1006b610 f   keyrdocumentextension.obj
 0001:0006a640       ?templateName@KeyrDocumentExtension@@UBE?AVQString@@XZ 1006b640 f   keyrdocumentextension.obj
 0001:0006a670       ?templateDescription@KeyrDocumentExtension@@UBE?AVQString@@XZ 1006b670 f   keyrdocumentextension.obj
 0001:0006a6a0       ?templateIcon@KeyrDocumentExtension@@UBE?AVQPixmap@@XZ 1006b6a0 f   keyrdocumentextension.obj
 0001:0006a6d0       ?createSyntaxHighlighter@KeyrDocumentExtension@@UBEPAXXZ 1006b6d0 f   keyrdocumentextension.obj
 0001:0006a6e0       ?createIndenter@KeyrDocumentExtension@@UBEPAXXZ 1006b6e0 f   keyrdocumentextension.obj
 0001:0006a6f0       ?queryInterface@KeyrDocumentExtension@@W3AEKABUQUuid@@PAPAUQUnknownInterface@@@Z 1006b6f0 f i keyrdocumentextension.obj
 0001:0006a700       ?addRef@KeyrDocumentExtension@@W3AEKXZ 1006b700 f i keyrdocumentextension.obj
 0001:0006a710       ?release@KeyrDocumentExtension@@W3AEKXZ 1006b710 f i keyrdocumentextension.obj
 0001:0006a720       ??0KeyrDocumentExtension@@QAE@XZ 1006b720 f   keyrdocumentextension.obj
 0001:0006a740       ??_GKeyrDocumentExtension@@UAEPAXI@Z 1006b740 f i keyrdocumentextension.obj
 0001:0006a740       ??_EKeyrDocumentExtension@@UAEPAXI@Z 1006b740 f i keyrdocumentextension.obj
 0001:0006a770       ?fileExtensions@KeyrDocumentExtension@@UBE?AVQStringList@@XZ 1006b770 f   keyrdocumentextension.obj
 0001:0006a800       ??0LocalsProxyModel@@QAE@PAVQObject@@@Z 1006b800 f   localsproxymodel.obj
 0001:0006a860       ??1LocalsProxyModel@@UAE@XZ 1006b860 f   localsproxymodel.obj
 0001:0006a870       ?filterAcceptsRow@LocalsProxyModel@@MBE_NHABVQModelIndex@@@Z 1006b870 f   localsproxymodel.obj
 0001:0006a930       ??_GLocalsProxyModel@@UAEPAXI@Z 1006b930 f i localsproxymodel.obj
 0001:0006a930       ??_ELocalsProxyModel@@UAEPAXI@Z 1006b930 f i localsproxymodel.obj
 0001:0006a960       ??0?$QFlags@W4SortFlag@QDir@@@@QAE@W4SortFlag@QDir@@@Z 1006b960 f i locateperipherals.obj
 0001:0006a970       ??0?$QFlags@W4Filter@QDir@@@@QAE@W4Filter@QDir@@@Z 1006b970 f i locateperipherals.obj
 0001:0006a980       ?findLatest@@YA?AVQString@@ABVQStringList@@@Z 1006b980 f   locateperipherals.obj
 0001:0006ac10       ?locateBestPeripheralsDefinition@@YA?AVQString@@PBD0IG_NAAV1@PAV1@@Z 1006bc10 f   locateperipherals.obj
 0001:0006b610       ?makePiece@LocationPiece@@QAEXHH@Z 1006c610 f i location.obj
 0001:0006b630       ?pieceStart@LocationPiece@@QBEHXZ 1006c630 f i location.obj
 0001:0006b640       ?pieceSize@LocationPiece@@QBEHXZ 1006c640 f i location.obj
 0001:0006b650       ?isCurrent@Location@@QBE_NI@Z 1006c650 f   location.obj
 0001:0006b6a0       ?isEmpty@?$QList@VLocationOperation@@@@QBE_NXZ 1006c6a0 f i location.obj
 0001:0006b6b0       ??0?$QList@VLocationPiece@@@@QAE@XZ 1006c6b0 f i location.obj
 0001:0006b6d0       ?size@?$QList@VLocationPiece@@@@QBEHXZ 1006c6d0 f i location.obj
 0001:0006b6e0       ?isEmpty@?$QList@VLocationPiece@@@@QBE_NXZ 1006c6e0 f i location.obj
 0001:0006b6f0       ?count@?$QList@VLocationPiece@@@@QBEHXZ 1006c6f0 f i location.obj
 0001:0006b700       ??0const_iterator@?$QList@VLocationPiece@@@@QAE@XZ 1006c700 f i location.obj
 0001:0006b710       ??9const_iterator@?$QList@VLocationPiece@@@@QBE_NABV01@@Z 1006c710 f i location.obj
 0001:0006b730       ??Econst_iterator@?$QList@VLocationPiece@@@@QAEAAV01@XZ 1006c730 f i location.obj
 0001:0006b740       ??0const_iterator@?$QList@VLocationPiece@@@@QAE@PAUNode@1@@Z 1006c740 f i location.obj
 0001:0006b750       ??Fiterator@?$QList@VLocationPiece@@@@QAEAAV01@XZ 1006c750 f i location.obj
 0001:0006b760       ?t@Node@?$QList@VLocationPiece@@@@QAEAAVLocationPiece@@XZ 1006c760 f i location.obj
 0001:0006b770       ??0const_iterator@?$QList@VLocationOperation@@@@QAE@PAUNode@1@@Z 1006c770 f i location.obj
 0001:0006b780       ??0iterator@?$QList@VLocationPiece@@@@QAE@PAUNode@1@@Z 1006c780 f i location.obj
 0001:0006b790       ?t@Node@?$QList@VLocationOperation@@@@QAEAAVLocationOperation@@XZ 1006c790 f i location.obj
 0001:0006b7a0       ?isBytepieces@Location@@ABE_NXZ 1006c7a0 f i location.obj
 0001:0006b7c0       ?begin@?$QList@VLocationPiece@@@@QBE?AVconst_iterator@1@XZ 1006c7c0 f i location.obj
 0001:0006b7e0       ?end@?$QList@VLocationPiece@@@@QBE?AVconst_iterator@1@XZ 1006c7e0 f i location.obj
 0001:0006b800       ??Dconst_iterator@?$QList@VLocationPiece@@@@QBEABVLocationPiece@@XZ 1006c800 f i location.obj
 0001:0006b810       ?begin@?$QList@VLocationOperation@@@@QBE?AVconst_iterator@1@XZ 1006c810 f i location.obj
 0001:0006b830       ??Dconst_iterator@?$QList@VLocationOperation@@@@QBEABVLocationOperation@@XZ 1006c830 f i location.obj
 0001:0006b840       ??Diterator@?$QList@VLocationPiece@@@@QBEAAVLocationPiece@@XZ 1006c840 f i location.obj
 0001:0006b850       ?storageDetail@Location@@QBE?AVQString@@PBVLocationResolver@@@Z 1006c850 f   location.obj
 0001:0006bd00       ?storageDetailDeep@Location@@QBE?AVQString@@PBVLocationResolver@@H@Z 1006cd00 f   location.obj
 0001:0006c030       ?first@?$QList@VLocationOperation@@@@QBEABVLocationOperation@@XZ 1006d030 f i location.obj
 0001:0006c040       ?first@?$QList@VLocationPiece@@@@QBEABVLocationPiece@@XZ 1006d040 f i location.obj
 0001:0006c050       ??4?$QList@VLocationOperation@@@@QAEAAV0@ABV0@@Z 1006d050 f i location.obj
 0001:0006c0a0       ?isValid@LocationPiece@@QBE_NXZ 1006d0a0 f i location.obj
 0001:0006c0d0       ??1Location@@UAE@XZ        1006d0d0 f   location.obj
 0001:0006c100       ?isValid@Location@@QBE_NXZ 1006d100 f   location.obj
 0001:0006c140       ?storageType@Location@@QBE?AW4ValueType@LocationOperation@@XZ 1006d140 f   location.obj
 0001:0006c170       ?isStaticDuration@Location@@QBE_NXZ 1006d170 f   location.obj
 0001:0006c1a0       ?storageTypeString@Location@@QBE?AVQString@@XZ 1006d1a0 f   location.obj
 0001:0006c1f0       ?addressResolved@Location@@QBE?AVMemAddr@@PBVLocationResolver@@HPA_N@Z 1006d1f0 f   location.obj
 0001:0006c2a0       ??4LocationPiece@@QAEAAV0@ABV0@@Z 1006d2a0 f i location.obj
 0001:0006c300       ?evaluateBlock@Location@@QBE?AVQByteArray@@PBVLocationResolver@@HPA_N@Z 1006d300 f   location.obj
 0001:0006c930       ?writeBlock@Location@@QBE_NVQByteArray@@HPBVLocationResolver@@@Z 1006d930 f   location.obj
 0001:0006cd60       ?node_construct@?$QList@VLocationPiece@@@@AAEXPAUNode@1@ABVLocationPiece@@@Z 1006dd60 f i location.obj
 0001:0006cdd0       ?detach@?$QList@VLocationPiece@@@@QAEXXZ 1006ddd0 f i location.obj
 0001:0006cde0       ?clear@?$QList@VLocationPiece@@@@QAEXXZ 1006dde0 f i location.obj
 0001:0006ce80       ??A?$QList@VLocationPiece@@@@QAEAAVLocationPiece@@H@Z 1006de80 f i location.obj
 0001:0006ceb0       ?append@?$QList@VLocationPiece@@@@QAEXABVLocationPiece@@@Z 1006deb0 f i location.obj
 0001:0006cee0       ??0Location@@QAE@XZ        1006dee0 f   location.obj
 0001:0006cf50       ?invalid@Location@@QBE?AV1@XZ 1006df50 f   location.obj
 0001:0006d000       ?noLocation@Location@@QBE?AV1@XZ 1006e000 f   location.obj
 0001:0006d0f0       ?bitField@Location@@QBE?AV1@HH@Z 1006e0f0 f   location.obj
 0001:0006d120       ?setRange@Location@@QBE?AV1@II_N@Z 1006e120 f   location.obj
 0001:0006d160       ?end@?$QList@VLocationPiece@@@@QAE?AViterator@1@XZ 1006e160 f i location.obj
 0001:0006d190       ?last@?$QList@VLocationPiece@@@@QAEAAVLocationPiece@@XZ 1006e190 f i location.obj
 0001:0006d1b0       ?currentPiece@Location@@ABEAAVLocationPiece@@AAV1@@Z 1006e1b0 f   location.obj
 0001:0006d2b0       ?finishBytepiece@Location@@QBE?AV1@HH@Z 1006e2b0 f   location.obj
 0001:0006d320       ?addOperation@Location@@QBE?AV1@VLocationOperation@@@Z 1006e320 f   location.obj
 0001:0006d3b0       ?memory@Location@@QBE?AV1@VMemAddr@@@Z 1006e3b0 f   location.obj
 0001:0006d450       ?memory@Location@@QBE?AV1@ABVQString@@@Z 1006e450 f   location.obj
 0001:0006d4f0       ?reg@Location@@QBE?AV1@H@Z 1006e4f0 f   location.obj
 0001:0006d590       ?stack@Location@@QBE?AV1@H@Z 1006e590 f   location.obj
 0001:0006d650       ?frameBase@Location@@QBE?AV1@H@Z 1006e650 f   location.obj
 0001:0006d710       ?literal@Location@@QBE?AV1@H@Z 1006e710 f   location.obj
 0001:0006d7b0       ?uLiteral@Location@@QBE?AV1@I@Z 1006e7b0 f   location.obj
 0001:0006d850       ?relative@Location@@QBE?AV1@H@Z 1006e850 f   location.obj
 0001:0006d8f0       ?indirect@Location@@QBE?AV1@_N@Z 1006e8f0 f   location.obj
 0001:0006d980       ??HMemAddr@@QAE?AV0@H@Z    1006e980 f i locationoperation.obj
 0001:0006d9b0       ??0LocationOperation@@QAE@XZ 1006e9b0 f   locationoperation.obj
 0001:0006d9e0       ??0LocationOperation@@QAE@W4OperationType@0@@Z 1006e9e0 f   locationoperation.obj
 0001:0006da20       ??1LocationOperation@@UAE@XZ 1006ea20 f   locationoperation.obj
 0001:0006da40       ?isValid@LocationOperation@@QBE_NXZ 1006ea40 f   locationoperation.obj
 0001:0006da60       ?memory@LocationOperation@@QBE?AV1@ABVQString@@@Z 1006ea60 f   locationoperation.obj
 0001:0006dae0       ?reg@LocationOperation@@QBE?AV1@H@Z 1006eae0 f   locationoperation.obj
 0001:0006db10       ?literal@LocationOperation@@QBE?AV1@H@Z 1006eb10 f   locationoperation.obj
 0001:0006db40       ?uLiteral@LocationOperation@@QBE?AV1@I@Z 1006eb40 f   locationoperation.obj
 0001:0006db70       ?relative@LocationOperation@@QBE?AV1@H@Z 1006eb70 f   locationoperation.obj
 0001:0006dba0       ?stackDupn@LocationOperation@@QBE?AV1@H@Z 1006eba0 f   locationoperation.obj
 0001:0006dbd0       ?stackDerefSize@LocationOperation@@QBE?AV1@H@Z 1006ebd0 f   locationoperation.obj
 0001:0006dc00       ?branch@LocationOperation@@QBE?AV1@H@Z 1006ec00 f   locationoperation.obj
 0001:0006dc30       ?condBranch@LocationOperation@@QBE?AV1@H@Z 1006ec30 f   locationoperation.obj
 0001:0006dc60       ?valueType@LocationOperation@@QBE?AW4ValueType@1@XZ 1006ec60 f   locationoperation.obj
 0001:0006dce0       ?valueTypeString@LocationOperation@@SA?AVQString@@W4ValueType@1@@Z 1006ece0 f   locationoperation.obj
 0001:0006ddb0       ?locationDuration@LocationOperation@@QBE?AW4Duration@1@XZ 1006edb0 f   locationoperation.obj
 0001:0006de30       ?combineRegions@LocationOperation@@ABEHVMemAddr@@0@Z 1006ee30 f   locationoperation.obj
 0001:0006de60       ?size@?$QVector@VMemAddr@@@@QBEHXZ 1006ee60 f i locationoperation.obj
 0001:0006de70       ?count@?$QVector@VMemAddr@@@@QBEHXZ 1006ee70 f i locationoperation.obj
 0001:0006de80       ?at@?$QVector@VMemAddr@@@@QBEABVMemAddr@@H@Z 1006ee80 f i locationoperation.obj
 0001:0006de90       ?sizeOfTypedData@?$QVector@VMemAddr@@@@AAEHXZ 1006ee90 f i locationoperation.obj
 0001:0006dea0       ?malloc@?$QVector@VMemAddr@@@@AAEPAUQVectorData@@H@Z 1006eea0 f i locationoperation.obj
 0001:0006dec0       ?free@?$QVector@VMemAddr@@@@AAEXPAU?$QVectorTypedData@VMemAddr@@@@@Z 1006eec0 f i locationoperation.obj
 0001:0006ded0       ?memory@LocationOperation@@QBE?AV1@VMemAddr@@@Z 1006eed0 f   locationoperation.obj
 0001:0006df50       ?realloc@?$QVector@VMemAddr@@@@AAEXHH@Z 1006ef50 f i locationoperation.obj
 0001:0006e080       ?findNode@?$QMap@HVQStringList@@@@ABEPAUNode@QMapData@@ABH@Z 1006f080 f i locationoperation.obj
 0001:0006e0d0       ?append@?$QVector@VMemAddr@@@@QAEXABVMemAddr@@@Z 1006f0d0 f i locationoperation.obj
 0001:0006e160       ?resize@?$QVector@VMemAddr@@@@QAEXH@Z 1006f160 f i locationoperation.obj
 0001:0006e1c0       ?detach_helper@?$QVector@VMemAddr@@@@AAEXXZ 1006f1c0 f i locationoperation.obj
 0001:0006e1d0       ?push@?$QStack@VMemAddr@@@@QAEXABVMemAddr@@@Z 1006f1d0 f i locationoperation.obj
 0001:0006e1e0       ?detach@?$QVector@VMemAddr@@@@QAEXXZ 1006f1e0 f i locationoperation.obj
 0001:0006e200       ?data@?$QVector@VMemAddr@@@@QAEPAVMemAddr@@XZ 1006f200 f i locationoperation.obj
 0001:0006e230       ?pop@?$QStack@VMemAddr@@@@QAE?AVMemAddr@@XZ 1006f230 f i locationoperation.obj
 0001:0006e280       ?value@?$QMap@HVQStringList@@@@QBE?BVQStringList@@ABHABV2@@Z 1006f280 f i locationoperation.obj
 0001:0006e2d0       ?evaluate@LocationOperation@@QBE_NAAV?$QStack@VMemAddr@@@@PBVLocationResolver@@@Z 1006f2d0 f   locationoperation.obj
 0001:0006f300       ?branchSize@LocationOperation@@QBEHAAV?$QStack@VMemAddr@@@@@Z 10070300 f   locationoperation.obj
 0001:0006f350       ?describeOperation@LocationOperation@@QBE?AVQString@@PBVLocationResolver@@@Z 10070350 f   locationoperation.obj
 0001:000700b0       ?type@LocationOperation@@QBE?AW4OperationType@1@XZ 100710b0 f i locationpiece.obj
 0001:000700c0       ?regNum@LocationOperation@@QBEHXZ 100710c0 f i locationpiece.obj
 0001:000700d0       ?byteArrayAnd@LocationPiece@@SA?AVQByteArray@@V2@0@Z 100710d0 f   locationpiece.obj
 0001:00070220       ?byteArrayOr@LocationPiece@@SA?AVQByteArray@@V2@0@Z 10071220 f   locationpiece.obj
 0001:00070370       ?byteArrayOneMask@LocationPiece@@SA?AVQByteArray@@IHH@Z 10071370 f   locationpiece.obj
 0001:000704d0       ?byteArrayZeroMask@LocationPiece@@SA?AVQByteArray@@IHH@Z 100714d0 f   locationpiece.obj
 0001:00070630       ?byteArrayShiftLeft@LocationPiece@@SA?AVQByteArray@@V2@H@Z 10071630 f   locationpiece.obj
 0001:00070840       ?byteArrayShiftRight@LocationPiece@@SA?AVQByteArray@@V2@H@Z 10071840 f   locationpiece.obj
 0001:00070a70       ??0?$QList@VLocationOperation@@@@QAE@XZ 10071a70 f i locationpiece.obj
 0001:00070a90       ?size@?$QList@VLocationOperation@@@@QBEHXZ 10071a90 f i locationpiece.obj
 0001:00070aa0       ??0const_iterator@?$QList@VLocationOperation@@@@QAE@XZ 10071aa0 f i locationpiece.obj
 0001:00070ab0       ??9const_iterator@?$QList@VLocationOperation@@@@QBE_NABV01@@Z 10071ab0 f i locationpiece.obj
 0001:00070ad0       ??Econst_iterator@?$QList@VLocationOperation@@@@QAEAAV01@XZ 10071ad0 f i locationpiece.obj
 0001:00070ae0       ??Fconst_iterator@?$QList@VLocationOperation@@@@QAEAAV01@XZ 10071ae0 f i locationpiece.obj
 0001:00070af0       ?isEmpty@?$QVector@VMemAddr@@@@QBE_NXZ 10071af0 f i locationpiece.obj
 0001:00070b00       ??0?$QVector@VMemAddr@@@@QAE@XZ 10071b00 f i locationpiece.obj
 0001:00070b20       ?at@?$QList@VLocationOperation@@@@QBEABVLocationOperation@@H@Z 10071b20 f i locationpiece.obj
 0001:00070b30       ??4LocationOperation@@QAEAAV0@ABV0@@Z 10071b30 f i locationpiece.obj
 0001:00070b80       ?end@?$QList@VLocationOperation@@@@QBE?AVconst_iterator@1@XZ 10071b80 f i locationpiece.obj
 0001:00070ba0       ??1?$QVector@VMemAddr@@@@QAE@XZ 10071ba0 f i locationpiece.obj
 0001:00070bc0       ?node_construct@?$QList@VLocationOperation@@@@AAEXPAUNode@1@ABVLocationOperation@@@Z 10071bc0 f i locationpiece.obj
 0001:00070c30       ?valueType@LocationPiece@@QBE?AW4ValueType@LocationOperation@@XZ 10071c30 f   locationpiece.obj
 0001:00070c90       ?isStaticDuration@LocationPiece@@QBE_NXZ 10071c90 f   locationpiece.obj
 0001:00070ce0       ?storageDetail@LocationPiece@@QBE?AVQString@@PBVLocationResolver@@@Z 10071ce0 f   locationpiece.obj
 0001:00070e10       ??0?$QStack@VMemAddr@@@@QAE@XZ 10071e10 f i locationpiece.obj
 0001:00070e30       ??1?$QStack@VMemAddr@@@@QAE@XZ 10071e30 f i locationpiece.obj
 0001:00070e50       ?isInReg@LocationPiece@@QBE_NXZ 10071e50 f i locationpiece.obj
 0001:00070e60       ?isAddr@LocationPiece@@QBE_NXZ 10071e60 f i locationpiece.obj
 0001:00070e70       ?isValue@LocationPiece@@QBE_NXZ 10071e70 f i locationpiece.obj
 0001:00070e80       ??0LocationPiece@@QAE@XZ   10071e80 f   locationpiece.obj
 0001:00070eb0       ??1LocationPiece@@UAE@XZ   10071eb0 f   locationpiece.obj
 0001:00070ee0       ?readRegisterBlock@LocationPiece@@ABE?AVQByteArray@@PBVLocationResolver@@HPA_N@Z 10071ee0 f   locationpiece.obj
 0001:00071000       ?detach@?$QList@VLocationOperation@@@@QAEXXZ 10072000 f i locationpiece.obj
 0001:00071010       ?append@?$QList@VLocationOperation@@@@QAEXABVLocationOperation@@@Z 10072010 f i locationpiece.obj
 0001:00071040       ?top@?$QStack@VMemAddr@@@@QAEAAVMemAddr@@XZ 10072040 f i locationpiece.obj
 0001:00071090       ?addOperation@LocationPiece@@QAEXVLocationOperation@@@Z 10072090 f   locationpiece.obj
 0001:00071100       ?evalOperations@LocationPiece@@ABE?AVMemAddr@@PBVLocationResolver@@PA_N@Z 10072100 f   locationpiece.obj
 0001:00071360       ?evaluateBlock@LocationPiece@@QBE?AVQByteArray@@PBVLocationResolver@@HPA_N@Z 10072360 f   locationpiece.obj
 0001:000714e0       ?writeBlock@LocationPiece@@QBE_NVQByteArray@@HPBVLocationResolver@@HH@Z 100724e0 f   locationpiece.obj
 0001:00071b80       ?addressResolved@LocationPiece@@QBE?AVMemAddr@@PBVLocationResolver@@HPA_N@Z 10072b80 f   locationpiece.obj
 0001:00071c10       ??0LocationResolver@@QAE@XZ 10072c10 f   locationresolver.obj
 0001:00071c20       ??1LocationResolver@@UAE@XZ 10072c20 f   locationresolver.obj
 0001:00071c30       ?readMemoryBlock@LocationResolver@@QBE?AVQByteArray@@VMemAddr@@HPA_N@Z 10072c30 f   locationresolver.obj
 0001:00071db0       ?readMemoryAuxBlock@LocationResolver@@UBEXVMemAddr@@PAIHPA_N@Z 10072db0 f   locationresolver.obj
 0001:00071e40       ?readRegisterBlock@LocationResolver@@QBE?AVQByteArray@@HHPA_N@Z 10072e40 f   locationresolver.obj
 0001:00072000       ?writeMemoryBlock@LocationResolver@@QBE_NVMemAddr@@VQByteArray@@H@Z 10073000 f   locationresolver.obj
 0001:000721d0       ?writeRegisterBlock@LocationResolver@@QBE_NHVQByteArray@@H@Z 100731d0 f   locationresolver.obj
 0001:00072410       ?readMemoryAddress@LocationResolver@@QBEIVMemAddr@@HPA_N@Z 10073410 f   locationresolver.obj
 0001:00072530       ?setSymbolTree@LocationResolver@@UAEXPAVSymbolContext@@@Z 10073530 f   locationresolver.obj
 0001:00072540       ?readFrameBase@LocationResolver@@UBE?AVMemAddr@@PA_N@Z 10073540 f   locationresolver.obj
 0001:000726f0       ?dataRegion@LocationResolver@@UBEHXZ 100736f0 f   locationresolver.obj
 0001:00072700       ?codeRegion@LocationResolver@@UBEHXZ 10073700 f   locationresolver.obj
 0001:00072710       ?regionName@LocationResolver@@UBE?AVQString@@H@Z 10073710 f   locationresolver.obj
 0001:00072740       ?bytesToUint16@LocationResolver@@IBEGABVQByteArray@@@Z 10073740 f   locationresolver.obj
 0001:000727b0       ?bytesToUint32@LocationResolver@@IBEIABVQByteArray@@@Z 100737b0 f   locationresolver.obj
 0001:00072820       ?bytesToUint64@LocationResolver@@IBE_KABVQByteArray@@@Z 10073820 f   locationresolver.obj
 0001:000728a0       ?uint64ToBytes@LocationResolver@@IBE?AVQByteArray@@_K@Z 100738a0 f   locationresolver.obj
 0001:00072930       ?uint32ToBytes@LocationResolver@@IBE?AVQByteArray@@I@Z 10073930 f   locationresolver.obj
 0001:000729b0       ?uint16ToBytes@LocationResolver@@IBE?AVQByteArray@@G@Z 100739b0 f   locationresolver.obj
 0001:00072a30       ?correctReturnAddrLocation@LocationResolver@@UAEXPAVLocation@@PAH@Z 10073a30 f   locationresolver.obj
 0001:00072a40       ?correctReturnAddrValue@LocationResolver@@UAEII@Z 10073a40 f   locationresolver.obj
 0001:00072a50       ??_ELocationResolver@@UAEPAXI@Z 10073a50 f i locationresolver.obj
 0001:00072a50       ??_GLocationResolver@@UAEPAXI@Z 10073a50 f i locationresolver.obj
 0001:00072a70       ?frameBaseLocation@LocationResolver@@UBE?AVLocation@@I@Z 10073a70 f   locationresolver.obj
 0001:00072b00       ??0LogWriter@@QAE@XZ       10073b00 f i logwriter.obj
 0001:00072b20       ??1LogWriter@@QAE@XZ       10073b20 f i logwriter.obj
 0001:00072b30       ?write@LogWriter@@QAA_NPBDZZ 10073b30 f   logwriter.obj
 0001:00072d60       ??Fiterator@?$QList@VQString@@@@QAEAAV01@XZ 10073d60 f i logwriter.obj
 0001:00072d70       ?removeLast@?$QList@VQString@@@@QAEXXZ 10073d70 f i logwriter.obj
 0001:00072db0       ?last@?$QList@VQString@@@@QAEAAVQString@@XZ 10073db0 f i logwriter.obj
 0001:00072dd0       ?pop_back@?$QList@VQString@@@@QAEXXZ 10073dd0 f i logwriter.obj
 0001:00072e10       ?open@LogWriter@@QAE_NPBD0@Z 10073e10 f   logwriter.obj
 0001:000733b0       ??1MapDocumentExtension@@UAE@XZ 100743b0 f   mapdocumentextension.obj
 0001:000733c0       ?addRef@MapDocumentExtension@@UAEKXZ 100743c0 f i mapdocumentextension.obj
 0001:000733d0       ?release@MapDocumentExtension@@UAEKXZ 100743d0 f i mapdocumentextension.obj
 0001:000733f0       ?queryInterface@MapDocumentExtension@@UAEKABUQUuid@@PAPAUQUnknownInterface@@@Z 100743f0 f   mapdocumentextension.obj
 0001:00073570       ?type@MapDocumentExtension@@UBE?AW4Type@IExtension@@XZ 10074570 f   mapdocumentextension.obj
 0001:00073580       ?name@MapDocumentExtension@@UBE?AVQString@@XZ 10074580 f   mapdocumentextension.obj
 0001:000735b0       ?templateName@MapDocumentExtension@@UBE?AVQString@@XZ 100745b0 f   mapdocumentextension.obj
 0001:000735e0       ?templateDescription@MapDocumentExtension@@UBE?AVQString@@XZ 100745e0 f   mapdocumentextension.obj
 0001:00073610       ?templateIcon@MapDocumentExtension@@UBE?AVQPixmap@@XZ 10074610 f   mapdocumentextension.obj
 0001:00073640       ?createIndenter@MapDocumentExtension@@UBEPAXXZ 10074640 f   mapdocumentextension.obj
 0001:00073650       ?queryInterface@MapDocumentExtension@@W3AEKABUQUuid@@PAPAUQUnknownInterface@@@Z 10074650 f i mapdocumentextension.obj
 0001:00073660       ?addRef@MapDocumentExtension@@W3AEKXZ 10074660 f i mapdocumentextension.obj
 0001:00073670       ?release@MapDocumentExtension@@W3AEKXZ 10074670 f i mapdocumentextension.obj
 0001:00073680       ??0MapDocumentExtension@@QAE@XZ 10074680 f   mapdocumentextension.obj
 0001:000736a0       ??_GMapDocumentExtension@@UAEPAXI@Z 100746a0 f i mapdocumentextension.obj
 0001:000736a0       ??_EMapDocumentExtension@@UAEPAXI@Z 100746a0 f i mapdocumentextension.obj
 0001:000736d0       ?fileExtensions@MapDocumentExtension@@UBE?AVQStringList@@XZ 100746d0 f   mapdocumentextension.obj
 0001:00073760       ??Y?$QList@VQString@@@@QAEAAV0@ABVQString@@@Z 10074760 f i mapdocumentextension.obj
 0001:00073780       ?createSyntaxHighlighter@MapDocumentExtension@@UBEPAXXZ 10074780 f   mapdocumentextension.obj
 0001:000739c0       ?mask@MemAddr@@ABEIH@Z     100749c0 f   memaddr.obj
 0001:00073a00       ?msbMask@MemAddr@@ABEIH@Z  10074a00 f   memaddr.obj
 0001:00073a10       ??0?$QMap@HH@@QAE@XZ       10074a10 f i memaddr.obj
 0001:00073a30       ?payload@?$QMap@HH@@CAHXZ  10074a30 f i memaddr.obj
 0001:00073a40       ?concrete@?$QMap@HH@@CAPAU?$QMapNode@HH@@PAUNode@QMapData@@@Z 10074a40 f i memaddr.obj
 0001:00073a50       ?node_create@?$QMap@HH@@AAEPAUNode@QMapData@@PAU3@QAPAU23@ABH2@Z 10074a50 f i memaddr.obj
 0001:00073a80       ?freeData@?$QMap@HH@@AAEXPAUQMapData@@@Z 10074a80 f i memaddr.obj
 0001:00073a90       ?detach_helper@?$QMap@HH@@AAEXXZ 10074a90 f i memaddr.obj
 0001:00073b10       ?findNode@?$QMap@HH@@ABEPAUNode@QMapData@@ABH@Z 10074b10 f i memaddr.obj
 0001:00073b60       ?mutableFindNode@?$QMap@HH@@ABEPAUNode@QMapData@@QAPAU23@ABH@Z 10074b60 f i memaddr.obj
 0001:00073bc0       ??1?$QMap@HH@@QAE@XZ       10074bc0 f i memaddr.obj
 0001:00073be0       ?value@?$QMap@HH@@QBE?BHABH0@Z 10074be0 f i memaddr.obj
 0001:00073c10       ?detach@?$QMap@HH@@QAEXXZ  10074c10 f i memaddr.obj
 0001:00073c30       ?regionSize@MemAddr@@ABEHH@Z 10074c30 f   memaddr.obj
 0001:00073c60       ?addrSext@MemAddr@@QBEHXZ  10074c60 f   memaddr.obj
 0001:00073cc0       ??A?$QMap@HH@@QAEAAHABH@Z  10074cc0 f i memaddr.obj
 0001:00073d20       ?setRegionSize@MemAddr@@SAXHH@Z 10074d20 f   memaddr.obj
 0001:00073d60       ?isSafeToCache@MemoryRegionCache@@QBE_NXZ 10074d60 f i memorycache.obj
 0001:00073d70       ?caching@MemoryCache@@QBE_NXZ 10074d70 f   memorycache.obj
 0001:00073d80       ?setMinHWReadSize@MemoryCache@@QAEXH@Z 10074d80 f   memorycache.obj
 0001:00073d90       ?baseMode@MemoryCache@@ABE?AW4MemoryMode@IMemory@@H@Z 10074d90 f   memorycache.obj
 0001:00073dd0       ?modeToBytes@MemoryCache@@ABEHW4MemoryMode@IMemory@@@Z 10074dd0 f   memorycache.obj
 0001:00073e30       ?modeStep@MemoryCache@@ABEHW4MemoryMode@IMemory@@0@Z 10074e30 f   memorycache.obj
 0001:00073e80       ??0?$QVector@U?$QPair@IW4MemoryResult@IMemory@@@@@@QAE@XZ 10074e80 f i memorycache.obj
 0001:00073ea0       ?size@?$QVector@U?$QPair@IW4MemoryResult@IMemory@@@@@@QBEHXZ 10074ea0 f i memorycache.obj
 0001:00073eb0       ??0?$QMap@IPAVMemoryRegionCache@@@@QAE@XZ 10074eb0 f i memorycache.obj
 0001:00073ed0       ??Econst_iterator@?$QMap@IPAVMemoryRegionCache@@@@QAEAAV01@XZ 10074ed0 f i memorycache.obj
 0001:00073ee0       ??Econst_iterator@?$QList@URegion@IMemory@@@@QAEAAV01@XZ 10074ee0 f i memorycache.obj
 0001:00073ef0       ??9const_iterator@?$QMap@IPAVMemoryRegionCache@@@@QBE_NABV01@@Z 10074ef0 f i memorycache.obj
 0001:00073f10       ??9const_iterator@?$QList@URegion@IMemory@@@@QBE_NABV01@@Z 10074f10 f i memorycache.obj
 0001:00073f30       ?payload@?$QMap@IPAVMemoryRegionCache@@@@CAHXZ 10074f30 f i memorycache.obj
 0001:00073f40       ??$qForeachPointer@V?$QMap@IPAVMemoryRegionCache@@@@@@YAPAV?$QMap@IPAVMemoryRegionCache@@@@ABV0@@Z 10074f40 f i memorycache.obj
 0001:00073f50       ??$qForeachContainer@V?$QMap@IPAVMemoryRegionCache@@@@@@YAPBV?$QForeachContainer@V?$QMap@IPAVMemoryRegionCache@@@@@@PBUQForeachContainerBase@@PBV?$QMap@IPAVMemoryRegionCache@@@@@Z 10074f50 f i memorycache.obj
 0001:00073f60       ??$qForeachPointer@V?$QList@URegion@IMemory@@@@@@YAPAV?$QList@URegion@IMemory@@@@ABV0@@Z 10074f60 f i memorycache.obj
 0001:00073f70       ??$qForeachContainer@V?$QList@URegion@IMemory@@@@@@YAPBV?$QForeachContainer@V?$QList@URegion@IMemory@@@@@@PBUQForeachContainerBase@@PBV?$QList@URegion@IMemory@@@@@Z 10074f70 f i memorycache.obj
 0001:00073f80       ??0const_iterator@?$QMap@IPAVMemoryRegionCache@@@@QAE@PAUNode@QMapData@@@Z 10074f80 f i memorycache.obj
 0001:00073f90       ??0const_iterator@?$QList@URegion@IMemory@@@@QAE@PAUNode@1@@Z 10074f90 f i memorycache.obj
 0001:00073fa0       ?condition@?$QForeachContainer@V?$QMap@IPAVMemoryRegionCache@@@@@@QBE_NXZ 10074fa0 f i memorycache.obj
 0001:00073fc0       ?condition@?$QForeachContainer@V?$QList@URegion@IMemory@@@@@@QBE_NXZ 10074fc0 f i memorycache.obj
 0001:00073fe0       ??Dconst_iterator@?$QList@URegion@IMemory@@@@QBEABURegion@IMemory@@XZ 10074fe0 f i memorycache.obj
 0001:00073ff0       ?concrete@?$QMap@IPAVMemoryRegionCache@@@@CAPAU?$QMapNode@IPAVMemoryRegionCache@@@@PAUNode@QMapData@@@Z 10074ff0 f i memorycache.obj
 0001:00074000       ?freeData@?$QMap@IPAVMemoryRegionCache@@@@AAEXPAUQMapData@@@Z 10075000 f i memorycache.obj
 0001:00074010       ?begin@?$QList@URegion@IMemory@@@@QBE?AVconst_iterator@1@XZ 10075010 f i memorycache.obj
 0001:00074030       ?end@?$QList@URegion@IMemory@@@@QBE?AVconst_iterator@1@XZ 10075030 f i memorycache.obj
 0001:00074050       ?begin@?$QMap@IPAVMemoryRegionCache@@@@QBE?AVconst_iterator@1@XZ 10075050 f i memorycache.obj
 0001:00074060       ?end@?$QMap@IPAVMemoryRegionCache@@@@QBE?AVconst_iterator@1@XZ 10075060 f i memorycache.obj
 0001:00074070       ?findNode@?$QMap@IPAVMemoryRegionCache@@@@ABEPAUNode@QMapData@@ABI@Z 10075070 f i memorycache.obj
 0001:000740c0       ?mutableFindNode@?$QMap@IPAVMemoryRegionCache@@@@ABEPAUNode@QMapData@@QAPAU23@ABI@Z 100750c0 f i memorycache.obj
 0001:00074120       ?node_create@?$QMap@IPAVMemoryRegionCache@@@@AAEPAUNode@QMapData@@PAU3@QAPAU23@ABIABQAVMemoryRegionCache@@@Z 10075120 f i memorycache.obj
 0001:00074150       ??1?$QMap@IPAVMemoryRegionCache@@@@QAE@XZ 10075150 f i memorycache.obj
 0001:00074170       ??Dconst_iterator@?$QMap@IPAVMemoryRegionCache@@@@QBEABQAVMemoryRegionCache@@XZ 10075170 f i memorycache.obj
 0001:00074180       ?value@?$QMap@IPAVMemoryRegionCache@@@@QBEQAVMemoryRegionCache@@ABIABQAV2@@Z 10075180 f i memorycache.obj
 0001:000741b0       ?value@?$QMap@IPAVMemoryRegionCache@@@@QBEQAVMemoryRegionCache@@ABI@Z 100751b0 f i memorycache.obj
 0001:000741e0       ?detach_helper@?$QMap@IPAVMemoryRegionCache@@@@AAEXXZ 100751e0 f i memorycache.obj
 0001:00074260       ??1?$QForeachContainer@V?$QMap@IPAVMemoryRegionCache@@@@@@QAE@XZ 10075260 f i memorycache.obj
 0001:00074280       ?getCache@MemoryCache@@ABEPAVMemoryRegionCache@@I@Z 10075280 f   memorycache.obj
 0001:000742b0       ??A?$QMap@IPAVMemoryRegionCache@@@@QBEQAVMemoryRegionCache@@ABI@Z 100752b0 f i memorycache.obj
 0001:000742e0       ?detach@?$QMap@IPAVMemoryRegionCache@@@@QAEXXZ 100752e0 f i memorycache.obj
 0001:00074300       ??0?$QMap@IPAVMemoryRegionCache@@@@QAE@ABV0@@Z 10075300 f i memorycache.obj
 0001:00074340       ??4?$QMap@IPAVMemoryRegionCache@@@@QAEAAV0@ABV0@@Z 10075340 f i memorycache.obj
 0001:00074390       ??1?$QForeachContainer@V?$QList@URegion@IMemory@@@@@@QAE@XZ 10075390 f i memorycache.obj
 0001:000743d0       ?isSafeToCache@MemoryCache@@QBE_NI@Z 100753d0 f   memorycache.obj
 0001:00074420       ?clear@?$QMap@IPAVMemoryRegionCache@@@@QAEXXZ 10075420 f i memorycache.obj
 0001:000744d0       ??A?$QMap@IPAVMemoryRegionCache@@@@QAEAAPAVMemoryRegionCache@@ABI@Z 100754d0 f i memorycache.obj
 0001:00074530       ??0?$QForeachContainer@V?$QMap@IPAVMemoryRegionCache@@@@@@QAE@ABV?$QMap@IPAVMemoryRegionCache@@@@@Z 10075530 f i memorycache.obj
 0001:00074580       ??0?$QForeachContainer@V?$QList@URegion@IMemory@@@@@@QAE@ABV?$QList@URegion@IMemory@@@@@Z 10075580 f i memorycache.obj
 0001:000745d0       ??0MemoryCache@@QAE@XZ     100755d0 f   memorycache.obj
 0001:00074650       ?regions@MemoryCache@@QBE?AV?$QList@URegion@IMemory@@@@XZ 10075650 f   memorycache.obj
 0001:00074690       ?read@MemoryCache@@UAE?AW4MemoryResult@IMemory@@IW4MemoryMode@3@IPAI_N@Z 10075690 f   memorycache.obj
 0001:000747e0       ?write@MemoryCache@@UAE?AW4MemoryResult@IMemory@@IW4MemoryMode@3@II@Z 100757e0 f   memorycache.obj
 0001:00074900       ??$qForeachContainerNew@V?$QMap@IPAVMemoryRegionCache@@@@@@YA?AV?$QForeachContainer@V?$QMap@IPAVMemoryRegionCache@@@@@@ABV?$QMap@IPAVMemoryRegionCache@@@@@Z 10075900 f i memorycache.obj
 0001:00074960       ??$qForeachContainerNew@V?$QList@URegion@IMemory@@@@@@YA?AV?$QForeachContainer@V?$QList@URegion@IMemory@@@@@@ABV?$QList@URegion@IMemory@@@@@Z 10075960 f i memorycache.obj
 0001:000749c0       ?setCaching@MemoryCache@@QAEX_N@Z 100759c0 f   memorycache.obj
 0001:00074a70       ?invalidate@MemoryCache@@QAEXXZ 10075a70 f   memorycache.obj
 0001:00074b20       ?safeToCache@MemoryCache@@QAEX_N@Z 10075b20 f   memorycache.obj
 0001:00074bd0       ?destroyCache@MemoryCache@@AAEXXZ 10075bd0 f   memorycache.obj
 0001:00074c90       ?isRegionBigEndian@MemoryCache@@ABE_NI@Z 10075c90 f   memorycache.obj
 0001:00074f00       ?regionBaseMode@MemoryCache@@ABE?AW4MemoryMode@IMemory@@I@Z 10075f00 f   memorycache.obj
 0001:000751a0       ??1MemoryCache@@UAE@XZ     100761a0 f   memorycache.obj
 0001:00075250       ?setRegions@MemoryCache@@QAEXV?$QList@URegion@IMemory@@@@@Z 10076250 f   memorycache.obj
 0001:000754d0       ?isRangeCached@MemoryCache@@QAE_NIW4MemoryMode@IMemory@@IH@Z 100764d0 f   memorycache.obj
 0001:00075540       ?readBlock@MemoryCache@@UAEXIW4MemoryMode@IMemory@@IHPAV?$QVector@U?$QPair@IW4MemoryResult@IMemory@@@@@@_N@Z 10076540 f   memorycache.obj
 0001:00075930       ?writeBlock@MemoryCache@@UAEXIW4MemoryMode@IMemory@@IHPAV?$QVector@U?$QPair@IW4MemoryResult@IMemory@@@@@@@Z 10076930 f   memorycache.obj
 0001:00075b60       ??_EMemoryCache@@UAEPAXI@Z 10076b60 f i memorycache.obj
 0001:00075b60       ??_GMemoryCache@@UAEPAXI@Z 10076b60 f i memorycache.obj
 0001:00075b80       ?isAddrCached@MemoryCache@@QAE_NIW4MemoryMode@IMemory@@I@Z 10076b80 f   memorycache.obj
 0001:00075ba0       ??0?$QVector@I@@QAE@XZ     10076ba0 f i memoryimage.obj
 0001:00075bc0       ??0?$QList@PAUMemoryBlock@MemoryImage@@@@QAE@XZ 10076bc0 f i memoryimage.obj
 0001:00075be0       ?size@?$QList@PAUMemoryBlock@MemoryImage@@@@QBEHXZ 10076be0 f i memoryimage.obj
 0001:00075bf0       ?isEmpty@?$QList@PAUMemoryBlock@MemoryImage@@@@QBE_NXZ 10076bf0 f i memoryimage.obj
 0001:00075c00       ?count@?$QList@PAUMemoryBlock@MemoryImage@@@@QBEHXZ 10076c00 f i memoryimage.obj
 0001:00075c10       ??Econst_iterator@?$QList@PAUMemoryBlock@MemoryImage@@@@QAEAAV01@XZ 10076c10 f i memoryimage.obj
 0001:00075c20       ??9const_iterator@?$QList@PAUMemoryBlock@MemoryImage@@@@QBE_NABV01@@Z 10076c20 f i memoryimage.obj
 0001:00075c40       ?t@Node@?$QList@PAUMemoryBlock@MemoryImage@@@@QAEAAPAUMemoryBlock@MemoryImage@@XZ 10076c40 f i memoryimage.obj
 0001:00075c50       ??0iterator@?$QList@PAUMemoryBlock@MemoryImage@@@@QAE@PAUNode@1@@Z 10076c50 f i memoryimage.obj
 0001:00075c60       ?at@?$QVector@I@@QBEABIH@Z 10076c60 f i memoryimage.obj
 0001:00075c70       ?free@?$QVector@I@@AAEXPAU?$QVectorTypedData@I@@@Z 10076c70 f i memoryimage.obj
 0001:00075c80       ?at@?$QList@PAUMemoryBlock@MemoryImage@@@@QBEABQAUMemoryBlock@MemoryImage@@H@Z 10076c80 f i memoryimage.obj
 0001:00075c90       ??$qForeachPointer@V?$QList@PAUMemoryBlock@MemoryImage@@@@@@YAPAV?$QList@PAUMemoryBlock@MemoryImage@@@@ABV0@@Z 10076c90 f i memoryimage.obj
 0001:00075ca0       ??$qForeachContainer@V?$QList@PAUMemoryBlock@MemoryImage@@@@@@YAPBV?$QForeachContainer@V?$QList@PAUMemoryBlock@MemoryImage@@@@@@PBUQForeachContainerBase@@PBV?$QList@PAUMemoryBlock@MemoryImage@@@@@Z 10076ca0 f i memoryimage.obj
 0001:00075cb0       ??0const_iterator@?$QList@PAUMemoryBlock@MemoryImage@@@@QAE@PAUNode@1@@Z 10076cb0 f i memoryimage.obj
 0001:00075cc0       ?node_construct@?$QList@PAUMemoryBlock@MemoryImage@@@@AAEXPAUNode@1@ABQAUMemoryBlock@MemoryImage@@@Z 10076cc0 f i memoryimage.obj
 0001:00075cd0       ?sizeOfTypedData@?$QVector@I@@AAEHXZ 10076cd0 f i memoryimage.obj
 0001:00075ce0       ?malloc@?$QVector@I@@AAEPAUQVectorData@@H@Z 10076ce0 f i memoryimage.obj
 0001:00075d00       ??1?$QVector@I@@QAE@XZ     10076d00 f i memoryimage.obj
 0001:00075d20       ?condition@?$QForeachContainer@V?$QList@PAUMemoryBlock@MemoryImage@@@@@@QBE_NXZ 10076d20 f i memoryimage.obj
 0001:00075d40       ??Dconst_iterator@?$QList@PAUMemoryBlock@MemoryImage@@@@QBEABQAUMemoryBlock@MemoryImage@@XZ 10076d40 f i memoryimage.obj
 0001:00075d50       ??Diterator@?$QList@PAUMemoryBlock@MemoryImage@@@@QBEAAPAUMemoryBlock@MemoryImage@@XZ 10076d50 f i memoryimage.obj
 0001:00075d60       ?begin@?$QList@PAUMemoryBlock@MemoryImage@@@@QBE?AVconst_iterator@1@XZ 10076d60 f i memoryimage.obj
 0001:00075d80       ?end@?$QList@PAUMemoryBlock@MemoryImage@@@@QBE?AVconst_iterator@1@XZ 10076d80 f i memoryimage.obj
 0001:00075da0       ??1MemoryBlock@MemoryImage@@QAE@XZ 10076da0 f i memoryimage.obj
 0001:00075dc0       ?realloc@?$QVector@I@@AAEXHH@Z 10076dc0 f i memoryimage.obj
 0001:00075e80       ??0MemoryBlock@MemoryImage@@QAE@XZ 10076e80 f i memoryimage.obj
 0001:00075ea0       ?resize@?$QVector@I@@QAEXH@Z 10076ea0 f i memoryimage.obj
 0001:00075f00       ?detach_helper@?$QVector@I@@AAEXXZ 10076f00 f i memoryimage.obj
 0001:00075f10       ??_GMemoryBlock@MemoryImage@@QAEPAXI@Z 10076f10 f i memoryimage.obj
 0001:00075f50       ??0MemoryImage@@QAE@XZ     10076f50 f   memoryimage.obj
 0001:00075f80       ??1?$QForeachContainer@V?$QList@PAUMemoryBlock@MemoryImage@@@@@@QAE@XZ 10076f80 f i memoryimage.obj
 0001:00075fa0       ?detach@?$QList@PAUMemoryBlock@MemoryImage@@@@QAEXXZ 10076fa0 f i memoryimage.obj
 0001:00075fd0       ?fill@?$QVector@I@@QAEAAV1@ABIH@Z 10076fd0 f i memoryimage.obj
 0001:00076020       ?clear@?$QList@PAUMemoryBlock@MemoryImage@@@@QAEXXZ 10077020 f i memoryimage.obj
 0001:000760a0       ?append@?$QList@PAUMemoryBlock@MemoryImage@@@@QAEXABQAUMemoryBlock@MemoryImage@@@Z 100770a0 f i memoryimage.obj
 0001:000760f0       ?insert@?$QList@PAUMemoryBlock@MemoryImage@@@@QAEXHABQAUMemoryBlock@MemoryImage@@@Z 100770f0 f i memoryimage.obj
 0001:00076140       ??0?$QForeachContainer@V?$QList@PAUMemoryBlock@MemoryImage@@@@@@QAE@ABV?$QList@PAUMemoryBlock@MemoryImage@@@@@Z 10077140 f i memoryimage.obj
 0001:000761b0       ?detach@?$QVector@I@@QAEXXZ 100771b0 f i memoryimage.obj
 0001:000761d0       ??$qDeleteAll@Vconst_iterator@?$QList@PAUMemoryBlock@MemoryImage@@@@@@YAXVconst_iterator@?$QList@PAUMemoryBlock@MemoryImage@@@@0@Z 100771d0 f i memoryimage.obj
 0001:00076220       ?addBlock@MemoryImage@@QAE_NIIII@Z 10077220 f   memoryimage.obj
 0001:00076350       ?begin@?$QList@PAUMemoryBlock@MemoryImage@@@@QAE?AViterator@1@XZ 10077350 f i memoryimage.obj
 0001:00076390       ??$qDeleteAll@V?$QList@PAUMemoryBlock@MemoryImage@@@@@@YAXABV?$QList@PAUMemoryBlock@MemoryImage@@@@@Z 10077390 f i memoryimage.obj
 0001:000763c0       ??$qForeachContainerNew@V?$QList@PAUMemoryBlock@MemoryImage@@@@@@YA?AV?$QForeachContainer@V?$QList@PAUMemoryBlock@MemoryImage@@@@@@ABV?$QList@PAUMemoryBlock@MemoryImage@@@@@Z 100773c0 f i memoryimage.obj
 0001:000763e0       ?data@?$QVector@I@@QAEPAIXZ 100773e0 f i memoryimage.obj
 0001:00076410       ?clear@MemoryImage@@QAEXXZ 10077410 f   memoryimage.obj
 0001:00076450       ?blockAddr@MemoryImage@@QAE_NIPAI00@Z 10077450 f   memoryimage.obj
 0001:00076530       ?nextBlockAddr@MemoryImage@@QAE_NIPAI00@Z 10077530 f   memoryimage.obj
 0001:00076600       ?first@?$QList@PAUMemoryBlock@MemoryImage@@@@QAEAAPAUMemoryBlock@MemoryImage@@XZ 10077600 f i memoryimage.obj
 0001:00076640       ??A?$QVector@I@@QAEAAIH@Z  10077640 f i memoryimage.obj
 0001:00076670       ??1MemoryImage@@UAE@XZ     10077670 f   memoryimage.obj
 0001:00076710       ?firstBlockAddr@MemoryImage@@QAE_NPAI00@Z 10077710 f   memoryimage.obj
 0001:000767a0       ?size@MemoryImage@@QAEHXZ  100777a0 f   memoryimage.obj
 0001:00076830       ?getBlock@MemoryImage@@AAEPAUMemoryBlock@1@I@Z 10077830 f   memoryimage.obj
 0001:000768d0       ?contents@MemoryImage@@QAEII@Z 100778d0 f   memoryimage.obj
 0001:000768f0       ?setContents@MemoryImage@@QAE_NII@Z 100778f0 f   memoryimage.obj
 0001:00076940       ?tr@MemoryImageLoader@@SA?AVQString@@PBD0@Z 10077940 f i memoryimageloader.obj
 0001:00076970       ??0MemoryImageLoader@@QAE@XZ 10077970 f   memoryimageloader.obj
 0001:00076a00       ??1MemoryImageLoader@@UAE@XZ 10077a00 f   memoryimageloader.obj
 0001:00076a90       ?setFileFormat@MemoryImageLoader@@QAEXABVQString@@0@Z 10077a90 f   memoryimageloader.obj
 0001:00076ac0       ??_EMemoryImageLoader@@UAEPAXI@Z 10077ac0 f i memoryimageloader.obj
 0001:00076ac0       ??_GMemoryImageLoader@@UAEPAXI@Z 10077ac0 f i memoryimageloader.obj
 0001:00076ae0       ?reserve@?$QVector@I@@QAEXH@Z 10077ae0 f i memoryimageloader.obj
 0001:00076b10       ?append@?$QVector@I@@QAEXABI@Z 10077b10 f i memoryimageloader.obj
 0001:00076b80       ?push_back@?$QVector@I@@QAEXABI@Z 10077b80 f i memoryimageloader.obj
 0001:00076b90       ??4?$QVector@I@@QAEAAV0@ABV0@@Z 10077b90 f i memoryimageloader.obj
 0001:00076be0       ?clear@?$QVector@I@@QAEXXZ 10077be0 f i memoryimageloader.obj
 0001:00076c80       ?load@MemoryImageLoader@@QAE_NABVQString@@PAVMemoryImage@@@Z 10077c80 f   memoryimageloader.obj
 0001:00077420       ?type@RegionSpiMapping@@QBE?AW4MemoryType@Memory@@XZ 10078420 f i memorymap.obj
 0001:00077430       ?ignore@RegionSpiMapping@@QBE_NXZ 10078430 f i memorymap.obj
 0001:00077440       ?getOffset@RegionSpiMapping@@QBEHXZ 10078440 f i memorymap.obj
 0001:00077450       ?getSubSystemString@Xap2BigfootEnvironment@@QBE?AVQString@@XZ 10078450 f i memorymap.obj
 0001:00077480       ??1DefaultMemoryMapping@@QAE@XZ 10078480 f i memorymap.obj
 0001:000774a0       ??1RegionAttribute@@QAE@XZ 100784a0 f i memorymap.obj
 0001:000774c0       ?convertAttribute@ScriptedMemoryMap@@AAE?ATOneOfThree@@W4RegionAttributeConversion@@ABVQString@@@Z 100784c0 f   memorymap.obj
 0001:000776d0       ?regionDefinitionHasPython@?A0xf5a4600f@@YA_NABVQDomNode@@@Z 100786d0 f   memorymap.obj
 0001:000778c0       ?findWhichMemoryMapToLoad@?A0xf5a4600f@@YA?AUWhichMapToLoad@1@ABVQDomNodeList@@ABVQString@@@Z 100788c0 f i memorymap.obj
 0001:00077b60       ?initializeScripting@ScriptedMemoryMap@@AAEXXZ 10078b60 f   memorymap.obj
 0001:00077f30       ??1MemoryTypePair@@QAE@XZ  10078f30 f i memorymap.obj
 0001:00077f50       ?lookupMemoryTypeEnum@ScriptedMemoryMap@@AAE?AW4MemoryType@Memory@@VQString@@@Z 10078f50 f   memorymap.obj
 0001:00078020       ??0?$QMap@IURegion@IMemory@@@@QAE@XZ 10079020 f i memorymap.obj
 0001:00078040       ?size@?$QMap@VQString@@H@@QBEHXZ 10079040 f i memorymap.obj
 0001:00078050       ??0?$QMap@IV?$QList@VRegionSpiMapping@@@@@@QAE@XZ 10079050 f i memorymap.obj
 0001:00078070       ??0?$QList@VRegionSpiMapping@@@@QAE@XZ 10079070 f i memorymap.obj
 0001:00078090       ??Econst_iterator@?$QList@VRegionSpiMapping@@@@QAEAAV01@XZ 10079090 f i memorymap.obj
 0001:000780a0       ??9const_iterator@?$QList@VRegionSpiMapping@@@@QBE_NABV01@@Z 100790a0 f i memorymap.obj
 0001:000780c0       ?t@Node@?$QList@VRegionSpiMapping@@@@QAEAAVRegionSpiMapping@@XZ 100790c0 f i memorymap.obj
 0001:000780d0       ??Diterator@?$QList@VRegionSpiMapping@@@@QBEAAVRegionSpiMapping@@XZ 100790d0 f i memorymap.obj
 0001:000780e0       ??Fiterator@?$QList@VRegionSpiMapping@@@@QAEAAV01@XZ 100790e0 f i memorymap.obj
 0001:000780f0       ??0iterator@?$QList@VRegionSpiMapping@@@@QAE@PAUNode@1@@Z 100790f0 f i memorymap.obj
 0001:00078100       ??$qForeachPointer@V?$QList@VRegionSpiMapping@@@@@@YAPAV?$QList@VRegionSpiMapping@@@@ABV0@@Z 10079100 f i memorymap.obj
 0001:00078110       ??$qForeachContainer@V?$QList@VRegionSpiMapping@@@@@@YAPBV?$QForeachContainer@V?$QList@VRegionSpiMapping@@@@@@PBUQForeachContainerBase@@PBV?$QList@VRegionSpiMapping@@@@@Z 10079110 f i memorymap.obj
 0001:00078120       ?payload@?$QMap@IURegion@IMemory@@@@CAHXZ 10079120 f i memorymap.obj
 0001:00078130       ?concrete@?$QMap@IURegion@IMemory@@@@CAPAU?$QMapNode@IURegion@IMemory@@@@PAUNode@QMapData@@@Z 10079130 f i memorymap.obj
 0001:00078140       ?payload@?$QMap@IV?$QList@VRegionSpiMapping@@@@@@CAHXZ 10079140 f i memorymap.obj
 0001:00078150       ?concrete@?$QMap@IV?$QList@VRegionSpiMapping@@@@@@CAPAU?$QMapNode@IV?$QList@VRegionSpiMapping@@@@@@PAUNode@QMapData@@@Z 10079150 f i memorymap.obj
 0001:00078160       ??0const_iterator@?$QList@VRegionSpiMapping@@@@QAE@PAUNode@1@@Z 10079160 f i memorymap.obj
 0001:00078170       ?node_create@?$QMap@IURegion@IMemory@@@@AAEPAUNode@QMapData@@PAU3@QAPAU23@ABIABURegion@IMemory@@@Z 10079170 f i memorymap.obj
 0001:00078210       ?node_construct@?$QList@VRegionSpiMapping@@@@AAEXPAUNode@1@ABVRegionSpiMapping@@@Z 10079210 f i memorymap.obj
 0001:00078280       ?node_copy@?$QList@VRegionSpiMapping@@@@AAEXPAUNode@1@00@Z 10079280 f i memorymap.obj
 0001:00078300       ??_GRegionSpiMapping@@QAEPAXI@Z 10079300 f i memorymap.obj
 0001:00078320       ?loadMemoryMapFile@?A0xf5a4600f@@YA_NABVQString@@AAV2@@Z 10079320 f i memorymap.obj
 0001:000784b0       ?condition@?$QForeachContainer@V?$QList@VRegionSpiMapping@@@@@@QBE_NXZ 100794b0 f i memorymap.obj
 0001:000784d0       ??Dconst_iterator@?$QList@VRegionSpiMapping@@@@QBEABVRegionSpiMapping@@XZ 100794d0 f i memorymap.obj
 0001:000784e0       ?freeData@?$QMap@IURegion@IMemory@@@@AAEXPAUQMapData@@@Z 100794e0 f i memorymap.obj
 0001:00078530       ?begin@?$QList@VRegionSpiMapping@@@@QBE?AVconst_iterator@1@XZ 10079530 f i memorymap.obj
 0001:00078550       ?end@?$QList@VRegionSpiMapping@@@@QBE?AVconst_iterator@1@XZ 10079550 f i memorymap.obj
 0001:00078570       ?detach_helper@?$QMap@IURegion@IMemory@@@@AAEXXZ 10079570 f i memorymap.obj
 0001:000785f0       ?findNode@?$QMap@IURegion@IMemory@@@@ABEPAUNode@QMapData@@ABI@Z 100795f0 f i memorymap.obj
 0001:00078640       ?mutableFindNode@?$QMap@IURegion@IMemory@@@@ABEPAUNode@QMapData@@QAPAU23@ABI@Z 10079640 f i memorymap.obj
 0001:000786a0       ?findNode@?$QMap@IV?$QList@VRegionSpiMapping@@@@@@ABEPAUNode@QMapData@@ABI@Z 100796a0 f i memorymap.obj
 0001:000786f0       ?mutableFindNode@?$QMap@IV?$QList@VRegionSpiMapping@@@@@@ABEPAUNode@QMapData@@QAPAU23@ABI@Z 100796f0 f i memorymap.obj
 0001:00078750       ?node_destruct@?$QList@VRegionSpiMapping@@@@AAEXPAUNode@1@0@Z 10079750 f i memorymap.obj
 0001:00078790       ??1?$QMap@IURegion@IMemory@@@@QAE@XZ 10079790 f i memorymap.obj
 0001:000787b0       ?contains@?$QMap@IURegion@IMemory@@@@QBE_NABI@Z 100797b0 f i memorymap.obj
 0001:000787d0       ?contains@?$QMap@VQString@@H@@QBE_NABVQString@@@Z 100797d0 f i memorymap.obj
 0001:000787f0       ?value@?$QMap@VQString@@H@@QBE?BHABVQString@@@Z 100797f0 f i memorymap.obj
 0001:00078820       ??A?$QMap@VQString@@H@@QBE?BHABVQString@@@Z 10079820 f i memorymap.obj
 0001:00078850       ?contains@?$QMap@IV?$QList@VRegionSpiMapping@@@@@@QBE_NABI@Z 10079850 f i memorymap.obj
 0001:00078870       ?detach@?$QMap@IURegion@IMemory@@@@QAEXXZ 10079870 f i memorymap.obj
 0001:00078890       ??4?$QMap@IURegion@IMemory@@@@QAEAAV0@ABV0@@Z 10079890 f i memorymap.obj
 0001:000788e0       ?free@?$QList@VRegionSpiMapping@@@@AAEXPAUData@QListData@@@Z 100798e0 f i memorymap.obj
 0001:00078910       ??0MemoryMap@@QAE@XZ       10079910 f i memorymap.obj
 0001:00078940       ?value@const_iterator@?$QMap@IURegion@IMemory@@@@QBEABURegion@IMemory@@XZ 10079940 f i memorymap.obj
 0001:00078950       ??9const_iterator@?$QMap@IURegion@IMemory@@@@QBE_NABV01@@Z 10079950 f i memorymap.obj
 0001:00078970       ??Econst_iterator@?$QMap@IURegion@IMemory@@@@QAEAAV01@XZ 10079970 f i memorymap.obj
 0001:00078980       ??0const_iterator@?$QMap@IURegion@IMemory@@@@QAE@PAUNode@QMapData@@@Z 10079980 f i memorymap.obj
 0001:00078990       ?begin@?$QMap@IURegion@IMemory@@@@QBE?AVconst_iterator@1@XZ 10079990 f i memorymap.obj
 0001:000789a0       ?end@?$QMap@IURegion@IMemory@@@@QBE?AVconst_iterator@1@XZ 100799a0 f i memorymap.obj
 0001:000789b0       ??1MemoryMap@@UAE@XZ       100799b0 f i memorymap.obj
 0001:00078a20       ??_EMemoryMap@@UAEPAXI@Z   10079a20 f i memorymap.obj
 0001:00078a20       ??_GMemoryMap@@UAEPAXI@Z   10079a20 f i memorymap.obj
 0001:00078a40       ?clear@?$QMap@IURegion@IMemory@@@@QAEXXZ 10079a40 f i memorymap.obj
 0001:00078af0       ??A?$QMap@IURegion@IMemory@@@@QAEAAURegion@IMemory@@ABI@Z 10079af0 f i memorymap.obj
 0001:00078bc0       ?clear@?$QMap@VQString@@H@@QAEXXZ 10079bc0 f i memorymap.obj
 0001:00078c70       ?insert@?$QMap@VQString@@H@@QAE?AViterator@1@ABVQString@@ABH@Z 10079c70 f i memorymap.obj
 0001:00078ce0       ??1?$QList@VRegionSpiMapping@@@@QAE@XZ 10079ce0 f i memorymap.obj
 0001:00078d20       ?detach_helper@?$QList@VRegionSpiMapping@@@@AAEXXZ 10079d20 f i memorymap.obj
 0001:00078d90       ??_G?$QList@VRegionSpiMapping@@@@QAEPAXI@Z 10079d90 f i memorymap.obj
 0001:00078df0       ?findRegionIndex@ScriptedMemoryMap@@AAEHABVQString@@@Z 10079df0 f i memorymap.obj
 0001:00078e50       ?getRegion@MemoryMap@@UAE_NIPAURegion@IMemory@@@Z 10079e50 f   memorymap.obj
 0001:00078f30       ?setRegionField@ScriptedMemoryMap@@AAEXPAURegion@IMemory@@HVQString@@@Z 10079f30 f   memorymap.obj
 0001:00079110       ?buildRegion@ScriptedMemoryMap@@AAE?AURegion@IMemory@@ABVQDomNamedNodeMap@@@Z 1007a110 f   memorymap.obj
 0001:000794d0       ??1?$QForeachContainer@V?$QList@VRegionSpiMapping@@@@@@QAE@XZ 1007a4d0 f i memorymap.obj
 0001:00079510       ??0?$QList@VRegionSpiMapping@@@@QAE@ABV0@@Z 1007a510 f i memorymap.obj
 0001:00079540       ?detach@?$QList@VRegionSpiMapping@@@@QAEXXZ 1007a540 f i memorymap.obj
 0001:00079550       ?values@?$QMap@IURegion@IMemory@@@@QBE?AV?$QList@URegion@IMemory@@@@XZ 1007a550 f i memorymap.obj
 0001:000795f0       ?freeData@?$QMap@IV?$QList@VRegionSpiMapping@@@@@@AAEXPAUQMapData@@@Z 1007a5f0 f i memorymap.obj
 0001:00079660       ??4?$QList@VRegionSpiMapping@@@@QAEAAV0@ABV0@@Z 1007a660 f i memorymap.obj
 0001:000796d0       ?append@?$QList@VRegionSpiMapping@@@@QAEXABVRegionSpiMapping@@@Z 1007a6d0 f i memorymap.obj
 0001:00079700       ??0?$QForeachContainer@V?$QList@VRegionSpiMapping@@@@@@QAE@ABV?$QList@VRegionSpiMapping@@@@@Z 1007a700 f i memorymap.obj
 0001:00079750       ?value@?$QMap@IV?$QList@VRegionSpiMapping@@@@@@QBE?BV?$QList@VRegionSpiMapping@@@@ABI@Z 1007a750 f i memorymap.obj
 0001:000797c0       ?node_create@?$QMap@IV?$QList@VRegionSpiMapping@@@@@@AAEPAUNode@QMapData@@PAU3@QAPAU23@ABIABV?$QList@VRegionSpiMapping@@@@@Z 1007a7c0 f i memorymap.obj
 0001:00079850       ?regions@MemoryMap@@UAE?AV?$QList@URegion@IMemory@@@@XZ 1007a850 f i memorymap.obj
 0001:00079870       ??1?$QMap@IV?$QList@VRegionSpiMapping@@@@@@QAE@XZ 1007a870 f i memorymap.obj
 0001:00079890       ??6?$QList@VRegionSpiMapping@@@@QAEAAV0@ABVRegionSpiMapping@@@Z 1007a890 f i memorymap.obj
 0001:000798c0       ?end@?$QList@VRegionSpiMapping@@@@QAE?AViterator@1@XZ 1007a8c0 f i memorymap.obj
 0001:000798f0       ??A?$QMap@IV?$QList@VRegionSpiMapping@@@@@@QBE?BV?$QList@VRegionSpiMapping@@@@ABI@Z 1007a8f0 f i memorymap.obj
 0001:00079910       ??$qForeachContainerNew@V?$QList@VRegionSpiMapping@@@@@@YA?AV?$QForeachContainer@V?$QList@VRegionSpiMapping@@@@@@ABV?$QList@VRegionSpiMapping@@@@@Z 1007a910 f i memorymap.obj
 0001:00079970       ?detach_helper@?$QMap@IV?$QList@VRegionSpiMapping@@@@@@AAEXXZ 1007a970 f i memorymap.obj
 0001:000799f0       ??0ScriptedMemoryMap@@AAE@XZ 1007a9f0 f i memorymap.obj
 0001:00079a60       ??1ScriptedMemoryMap@@UAE@XZ 1007aa60 f   memorymap.obj
 0001:00079b20       ?convertPeripheralToDebugRegisterAddr@ScriptedMemoryMap@@QBEII@Z 1007ab20 f   memorymap.obj
 0001:00079d60       ?last@?$QList@VRegionSpiMapping@@@@QAEAAVRegionSpiMapping@@XZ 1007ad60 f i memorymap.obj
 0001:00079d80       ?detach@?$QMap@IV?$QList@VRegionSpiMapping@@@@@@QAEXXZ 1007ad80 f i memorymap.obj
 0001:00079da0       ??_EScriptedMemoryMap@@UAEPAXI@Z 1007ada0 f i memorymap.obj
 0001:00079da0       ??_GScriptedMemoryMap@@UAEPAXI@Z 1007ada0 f i memorymap.obj
 0001:00079dc0       ?back@?$QList@VRegionSpiMapping@@@@QAEAAVRegionSpiMapping@@XZ 1007adc0 f i memorymap.obj
 0001:00079de0       ??A?$QMap@IV?$QList@VRegionSpiMapping@@@@@@QAEAAV?$QList@VRegionSpiMapping@@@@ABI@Z 1007ade0 f i memorymap.obj
 0001:00079ec0       ?processMappings@ScriptedMemoryMap@@AAEXIABVQDomNodeList@@@Z 1007aec0 f   memorymap.obj
 0001:0007a990       ?loadMemoryMap@ScriptedMemoryMap@@AAE_NABVQDomElement@@AAVQString@@@Z 1007b990 f   memorymap.obj
 0001:0007ae50       ?prepareMemory@ScriptedMemoryMap@@UAE_NIIPA_NPAI10@Z 1007be50 f   memorymap.obj
 0001:0007b200       ?load@ScriptedMemoryMap@@AAE_NABVQString@@PAVXap2BigfootEnvironment@@AAV2@@Z 1007c200 f   memorymap.obj
 0001:0007b7d0       ?type@ScriptedMemoryMap@@QAE?AW4MemoryType@Memory@@II@Z 1007c7d0 f   memorymap.obj
 0001:0007ba30       ?createScriptedMemoryMap@ScriptedMemoryMap@@SAPAV1@ABVQString@@PAVXap2BigfootEnvironment@@AAV2@@Z 1007ca30 f   memorymap.obj
 0001:0007bad0       ?setCaching@MemoryRegionCache@@QAEX_N@Z 1007cad0 f   memoryregioncache.obj
 0001:0007bae0       ?caching@MemoryRegionCache@@QBE_NXZ 1007cae0 f   memoryregioncache.obj
 0001:0007baf0       ?region@MemoryRegionCache@@QBE?AURegion@IMemory@@XZ 1007caf0 f   memoryregioncache.obj
 0001:0007bb40       ?setMinHWReadSize@MemoryRegionCache@@QAEXH@Z 1007cb40 f   memoryregioncache.obj
 0001:0007bb50       ?at@?$QVector@U?$QPair@IW4MemoryResult@IMemory@@@@@@QBEABU?$QPair@IW4MemoryResult@IMemory@@@@H@Z 1007cb50 f i memoryregioncache.obj
 0001:0007bb60       ??0?$QHash@IUNode@?$QCache@IU?$QPair@IW4MemoryResult@IMemory@@@@@@@@QAE@XZ 1007cb60 f i memoryregioncache.obj
 0001:0007bb80       ??0Node@?$QCache@IU?$QPair@IW4MemoryResult@IMemory@@@@@@QAE@PAU?$QPair@IW4MemoryResult@IMemory@@@@H@Z 1007cb80 f i memoryregioncache.obj
 0001:0007bba0       ??0const_iterator@?$QHash@IUNode@?$QCache@IU?$QPair@IW4MemoryResult@IMemory@@@@@@@@QAE@ABViterator@1@@Z 1007cba0 f i memoryregioncache.obj
 0001:0007bbb0       ??8const_iterator@?$QHash@IUNode@?$QCache@IU?$QPair@IW4MemoryResult@IMemory@@@@@@@@QBE_NABV01@@Z 1007cbb0 f i memoryregioncache.obj
 0001:0007bbd0       ?concrete@?$QHash@IUNode@?$QCache@IU?$QPair@IW4MemoryResult@IMemory@@@@@@@@CAPAU?$QHashNode@IUNode@?$QCache@IU?$QPair@IW4MemoryResult@IMemory@@@@@@@@PAUNode@QHashData@@@Z 1007cbd0 f i memoryregioncache.obj
 0001:0007bbe0       ??0const_iterator@?$QHash@IUNode@?$QCache@IU?$QPair@IW4MemoryResult@IMemory@@@@@@@@QAE@PAX@Z 1007cbe0 f i memoryregioncache.obj
 0001:0007bbf0       ?deleteNode@?$QHash@IUNode@?$QCache@IU?$QPair@IW4MemoryResult@IMemory@@@@@@@@AAEXPAU?$QHashNode@IUNode@?$QCache@IU?$QPair@IW4MemoryResult@IMemory@@@@@@@@@Z 1007cbf0 f i memoryregioncache.obj
 0001:0007bc00       ?same_key@?$QHashNode@IUNode@?$QCache@IU?$QPair@IW4MemoryResult@IMemory@@@@@@@@QAE_NII@Z 1007cc00 f i memoryregioncache.obj
 0001:0007bc10       ??0iterator@?$QHash@IUNode@?$QCache@IU?$QPair@IW4MemoryResult@IMemory@@@@@@@@QAE@PAX@Z 1007cc10 f i memoryregioncache.obj
 0001:0007bc20       ??$qIsDetached@U?$QPair@IW4MemoryResult@IMemory@@@@@@YA_NAAU?$QPair@IW4MemoryResult@IMemory@@@@@Z 1007cc20 f i memoryregioncache.obj
 0001:0007bc30       ??0?$QHashNode@IUNode@?$QCache@IU?$QPair@IW4MemoryResult@IMemory@@@@@@@@QAE@IABUNode@?$QCache@IU?$QPair@IW4MemoryResult@IMemory@@@@@@@Z 1007cc30 f i memoryregioncache.obj
 0001:0007bc60       ??0?$QHashDummyNode@IUNode@?$QCache@IU?$QPair@IW4MemoryResult@IMemory@@@@@@@@QAE@I@Z 1007cc60 f i memoryregioncache.obj
 0001:0007bc70       ?duplicateNode@?$QHash@IUNode@?$QCache@IU?$QPair@IW4MemoryResult@IMemory@@@@@@@@CAXPAUNode@QHashData@@PAX@Z 1007cc70 f i memoryregioncache.obj
 0001:0007bcb0       ?freeData@?$QHash@IUNode@?$QCache@IU?$QPair@IW4MemoryResult@IMemory@@@@@@@@AAEXPAUQHashData@@@Z 1007ccb0 f i memoryregioncache.obj
 0001:0007bd00       ?constEnd@?$QHash@IUNode@?$QCache@IU?$QPair@IW4MemoryResult@IMemory@@@@@@@@QBE?AVconst_iterator@1@XZ 1007cd00 f i memoryregioncache.obj
 0001:0007bd10       ?key@iterator@?$QHash@IUNode@?$QCache@IU?$QPair@IW4MemoryResult@IMemory@@@@@@@@QBEABIXZ 1007cd10 f i memoryregioncache.obj
 0001:0007bd20       ?value@iterator@?$QHash@IUNode@?$QCache@IU?$QPair@IW4MemoryResult@IMemory@@@@@@@@QBEAAUNode@?$QCache@IU?$QPair@IW4MemoryResult@IMemory@@@@@@XZ 1007cd20 f i memoryregioncache.obj
 0001:0007bd30       ??Diterator@?$QHash@IUNode@?$QCache@IU?$QPair@IW4MemoryResult@IMemory@@@@@@@@QBEAAUNode@?$QCache@IU?$QPair@IW4MemoryResult@IMemory@@@@@@XZ 1007cd30 f i memoryregioncache.obj
 0001:0007bd40       ?findNode@?$QHash@IUNode@?$QCache@IU?$QPair@IW4MemoryResult@IMemory@@@@@@@@ABEPAPAU?$QHashNode@IUNode@?$QCache@IU?$QPair@IW4MemoryResult@IMemory@@@@@@@@ABIPAI@Z 1007cd40 f i memoryregioncache.obj
 0001:0007bd90       ?detach_helper@?$QHash@IUNode@?$QCache@IU?$QPair@IW4MemoryResult@IMemory@@@@@@@@AAEXXZ 1007cd90 f i memoryregioncache.obj
 0001:0007bdd0       ?createNode@?$QHash@IUNode@?$QCache@IU?$QPair@IW4MemoryResult@IMemory@@@@@@@@AAEPAU?$QHashNode@IUNode@?$QCache@IU?$QPair@IW4MemoryResult@IMemory@@@@@@@@IABIABUNode@?$QCache@IU?$QPair@IW4MemoryResult@IMemory@@@@@@PAPAU2@@Z 1007cdd0 f i memoryregioncache.obj
 0001:0007be20       ??1?$QHash@IUNode@?$QCache@IU?$QPair@IW4MemoryResult@IMemory@@@@@@@@QAE@XZ 1007ce20 f i memoryregioncache.obj
 0001:0007be40       ?contains@?$QHash@IUNode@?$QCache@IU?$QPair@IW4MemoryResult@IMemory@@@@@@@@QBE_NABI@Z 1007ce40 f i memoryregioncache.obj
 0001:0007be80       ??0?$QCache@IU?$QPair@IW4MemoryResult@IMemory@@@@@@QAE@H@Z 1007ce80 f i memoryregioncache.obj
 0001:0007beb0       ?detach@?$QHash@IUNode@?$QCache@IU?$QPair@IW4MemoryResult@IMemory@@@@@@@@QAEXXZ 1007ceb0 f i memoryregioncache.obj
 0001:0007bef0       ??4?$QHash@IUNode@?$QCache@IU?$QPair@IW4MemoryResult@IMemory@@@@@@@@QAEAAV0@ABV0@@Z 1007cef0 f i memoryregioncache.obj
 0001:0007bf60       ?contains@?$QCache@IU?$QPair@IW4MemoryResult@IMemory@@@@@@QBE_NABI@Z 1007cf60 f i memoryregioncache.obj
 0001:0007bfa0       ?clear@?$QHash@IUNode@?$QCache@IU?$QPair@IW4MemoryResult@IMemory@@@@@@@@QAEXXZ 1007cfa0 f i memoryregioncache.obj
 0001:0007c010       ?remove@?$QHash@IUNode@?$QCache@IU?$QPair@IW4MemoryResult@IMemory@@@@@@@@QAEHABI@Z 1007d010 f i memoryregioncache.obj
 0001:0007c0e0       ?find@?$QHash@IUNode@?$QCache@IU?$QPair@IW4MemoryResult@IMemory@@@@@@@@QAE?AViterator@1@ABI@Z 1007d0e0 f i memoryregioncache.obj
 0001:0007c170       ?insert@?$QHash@IUNode@?$QCache@IU?$QPair@IW4MemoryResult@IMemory@@@@@@@@QAE?AViterator@1@ABIABUNode@?$QCache@IU?$QPair@IW4MemoryResult@IMemory@@@@@@@Z 1007d170 f i memoryregioncache.obj
 0001:0007c240       ?relink@?$QCache@IU?$QPair@IW4MemoryResult@IMemory@@@@@@AAEPAU?$QPair@IW4MemoryResult@IMemory@@@@ABI@Z 1007d240 f i memoryregioncache.obj
 0001:0007c2b0       ?isRangeCached@MemoryRegionCache@@QAE_NIH@Z 1007d2b0 f   memoryregioncache.obj
 0001:0007c320       ?isAddrCached@MemoryRegionCache@@AAE_NI@Z 1007d320 f   memoryregioncache.obj
 0001:0007c360       ?lenNotCachedFromStart@MemoryRegionCache@@AAEHIH@Z 1007d360 f   memoryregioncache.obj
 0001:0007c3d0       ?clear@?$QCache@IU?$QPair@IW4MemoryResult@IMemory@@@@@@QAEXXZ 1007d3d0 f i memoryregioncache.obj
 0001:0007c410       ?unlink@?$QCache@IU?$QPair@IW4MemoryResult@IMemory@@@@@@AAEXAAUNode@1@@Z 1007d410 f i memoryregioncache.obj
 0001:0007c470       ?object@?$QCache@IU?$QPair@IW4MemoryResult@IMemory@@@@@@QBEPAU?$QPair@IW4MemoryResult@IMemory@@@@ABI@Z 1007d470 f i memoryregioncache.obj
 0001:0007c480       ?trim@?$QCache@IU?$QPair@IW4MemoryResult@IMemory@@@@@@AAEXH@Z 1007d480 f i memoryregioncache.obj
 0001:0007c4f0       ?invalidate@MemoryRegionCache@@QAEXXZ 1007d4f0 f   memoryregioncache.obj
 0001:0007c500       ?safeToCache@MemoryRegionCache@@QAEX_N@Z 1007d500 f   memoryregioncache.obj
 0001:0007c520       ??1?$QCache@IU?$QPair@IW4MemoryResult@IMemory@@@@@@QAE@XZ 1007d520 f i memoryregioncache.obj
 0001:0007c580       ?setMaxCost@?$QCache@IU?$QPair@IW4MemoryResult@IMemory@@@@@@QAEXH@Z 1007d580 f i memoryregioncache.obj
 0001:0007c590       ??A?$QCache@IU?$QPair@IW4MemoryResult@IMemory@@@@@@QBEPAU?$QPair@IW4MemoryResult@IMemory@@@@ABI@Z 1007d590 f i memoryregioncache.obj
 0001:0007c5a0       ?remove@?$QCache@IU?$QPair@IW4MemoryResult@IMemory@@@@@@QAE_NABI@Z 1007d5a0 f i memoryregioncache.obj
 0001:0007c5e0       ??0MemoryRegionCache@@QAE@URegion@IMemory@@@Z 1007d5e0 f   memoryregioncache.obj
 0001:0007c6e0       ??1MemoryRegionCache@@UAE@XZ 1007d6e0 f   memoryregioncache.obj
 0001:0007c750       ?invalidateRange@MemoryRegionCache@@QAEXIH@Z 1007d750 f   memoryregioncache.obj
 0001:0007c7f0       ?writeBlock@MemoryRegionCache@@UAEXIHPAV?$QVector@U?$QPair@IW4MemoryResult@IMemory@@@@@@@Z 1007d7f0 f   memoryregioncache.obj
 0001:0007c820       ?insert@?$QCache@IU?$QPair@IW4MemoryResult@IMemory@@@@@@QAE_NABIPAU?$QPair@IW4MemoryResult@IMemory@@@@H@Z 1007d820 f i memoryregioncache.obj
 0001:0007c8f0       ??_EMemoryRegionCache@@UAEPAXI@Z 1007d8f0 f i memoryregioncache.obj
 0001:0007c8f0       ??_GMemoryRegionCache@@UAEPAXI@Z 1007d8f0 f i memoryregioncache.obj
 0001:0007c910       ?cacheBlock@MemoryRegionCache@@AAEXIHPAV?$QVector@U?$QPair@IW4MemoryResult@IMemory@@@@@@@Z 1007d910 f   memoryregioncache.obj
 0001:0007c9b0       ?assembleMemoryBlock@MemoryRegionCache@@AAEXIHPAV?$QVector@U?$QPair@IW4MemoryResult@IMemory@@@@@@@Z 1007d9b0 f   memoryregioncache.obj
 0001:0007ccc0       ?readBlock@MemoryRegionCache@@UAEXIHPAV?$QVector@U?$QPair@IW4MemoryResult@IMemory@@@@@@@Z 1007dcc0 f   memoryregioncache.obj
 0001:0007cd60       ??1ElfConsumer@@UAE@XZ     1007dd60 f i memorysections.obj
 0001:0007cd70       ??_GElfConsumer@@UAEPAXI@Z 1007dd70 f i memorysections.obj
 0001:0007cd70       ??_EElfConsumer@@UAEPAXI@Z 1007dd70 f i memorysections.obj
 0001:0007cd90       ??0SectionProperties@MemorySections@@QAE@XZ 1007dd90 f i memorysections.obj
 0001:0007cda0       ??0ElfConsumer@@QAE@XZ     1007dda0 f i memorysections.obj
 0001:0007cdb0       ?load@MemorySections@@QAE_NABVQString@@@Z 1007ddb0 f   memorysections.obj
 0001:0007ceb0       ?partOfProgram@MemorySections@@ABE_NPBUElf32_Shdr@@@Z 1007deb0 f   memorysections.obj
 0001:0007ced0       ?sectionRole@MemorySections@@ABE?AW4SectionRole@1@PBUElf32_Shdr@@@Z 1007ded0 f   memorysections.obj
 0001:0007cf00       ?sectionAccess@MemorySections@@ABE?AW4SectionAccess@1@PBUElf32_Shdr@@@Z 1007df00 f   memorysections.obj
 0001:0007cf30       ?sectionInitMethod@MemorySections@@ABE?AW4SectionInitMethod@1@PBUElf32_Shdr@@@Z 1007df30 f   memorysections.obj
 0001:0007cf60       ??0?$QMap@IUSectionProperties@MemorySections@@@@QAE@XZ 1007df60 f i memorysections.obj
 0001:0007cf80       ??0iterator@?$QMap@IUSectionProperties@MemorySections@@@@QAE@XZ 1007df80 f i memorysections.obj
 0001:0007cf90       ??9iterator@?$QMap@IUSectionProperties@MemorySections@@@@QBE_NABV01@@Z 1007df90 f i memorysections.obj
 0001:0007cfb0       ??Eiterator@?$QMap@IUSectionProperties@MemorySections@@@@QAEAAV01@XZ 1007dfb0 f i memorysections.obj
 0001:0007cfc0       ?isEmpty@?$QMap@IUSectionProperties@MemorySections@@@@QBE_NXZ 1007dfc0 f i memorysections.obj
 0001:0007cfd0       ??0iterator@?$QMap@IUSectionProperties@MemorySections@@@@QAE@PAUNode@QMapData@@@Z 1007dfd0 f i memorysections.obj
 0001:0007cfe0       ?payload@?$QMap@IUSectionProperties@MemorySections@@@@CAHXZ 1007dfe0 f i memorysections.obj
 0001:0007cff0       ?empty@?$QMap@IUSectionProperties@MemorySections@@@@QBE_NXZ 1007dff0 f i memorysections.obj
 0001:0007d000       ?concrete@?$QMap@IUSectionProperties@MemorySections@@@@CAPAU?$QMapNode@IUSectionProperties@MemorySections@@@@PAUNode@QMapData@@@Z 1007e000 f i memorysections.obj
 0001:0007d010       ?freeData@?$QMap@IUSectionProperties@MemorySections@@@@AAEXPAUQMapData@@@Z 1007e010 f i memorysections.obj
 0001:0007d040       ?mutableFindNode@?$QMap@IUSectionProperties@MemorySections@@@@ABEPAUNode@QMapData@@QAPAU23@ABI@Z 1007e040 f i memorysections.obj
 0001:0007d0a0       ?node_create@?$QMap@IUSectionProperties@MemorySections@@@@AAEPAUNode@QMapData@@PAU3@QAPAU23@ABIABUSectionProperties@MemorySections@@@Z 1007e0a0 f i memorysections.obj
 0001:0007d0e0       ??1?$QMap@IUSectionProperties@MemorySections@@@@QAE@XZ 1007e0e0 f i memorysections.obj
 0001:0007d110       ?key@iterator@?$QMap@IUSectionProperties@MemorySections@@@@QBEABIXZ 1007e110 f i memorysections.obj
 0001:0007d120       ?value@iterator@?$QMap@IUSectionProperties@MemorySections@@@@QBEAAUSectionProperties@MemorySections@@XZ 1007e120 f i memorysections.obj
 0001:0007d130       ?detach_helper@?$QMap@IUSectionProperties@MemorySections@@@@AAEXXZ 1007e130 f i memorysections.obj
 0001:0007d1d0       ??4?$QMap@IUSectionProperties@MemorySections@@@@QAEAAV0@ABV0@@Z 1007e1d0 f i memorysections.obj
 0001:0007d230       ??1MemorySections@@UAE@XZ  1007e230 f   memorysections.obj
 0001:0007d2a0       ?detach@?$QMap@IUSectionProperties@MemorySections@@@@QAEXXZ 1007e2a0 f i memorysections.obj
 0001:0007d2c0       ?clear@?$QMap@IUSectionProperties@MemorySections@@@@QAEXXZ 1007e2c0 f i memorysections.obj
 0001:0007d350       ?insert@?$QMap@IUSectionProperties@MemorySections@@@@QAE?AViterator@1@ABIABUSectionProperties@MemorySections@@@Z 1007e350 f i memorysections.obj
 0001:0007d3f0       ??_GMemorySections@@UAEPAXI@Z 1007e3f0 f i memorysections.obj
 0001:0007d3f0       ??_EMemorySections@@UAEPAXI@Z 1007e3f0 f i memorysections.obj
 0001:0007d410       ?processElf@MemorySections@@UAE_NPAUElf@@@Z 1007e410 f   memorysections.obj
 0001:0007d540       ?clear@MemorySections@@QAEXXZ 1007e540 f   memorysections.obj
 0001:0007d5c0       ?begin@?$QMap@IUSectionProperties@MemorySections@@@@QAE?AViterator@1@XZ 1007e5c0 f i memorysections.obj
 0001:0007d5f0       ?end@?$QMap@IUSectionProperties@MemorySections@@@@QAE?AViterator@1@XZ 1007e5f0 f i memorysections.obj
 0001:0007d610       ??0MemorySections@@QAE@XZ  1007e610 f   memorysections.obj
 0001:0007d680       ?sectionProperties@MemorySections@@QAE?AUSectionProperties@1@IPAI0@Z 1007e680 f   memorysections.obj
 0001:0007d7a0       ?getAddress@RegisterValueData@@QBEIXZ 1007e7a0 f i modifiedqtreeview.obj
 0001:0007d7b0       ?getDisplayFormat@RegisterValueData@@QBE?AW4DisplayFormat@@XZ 1007e7b0 f i modifiedqtreeview.obj
 0001:0007d7c0       ?getDisplayFormat@BitfieldValueData@@QBE?AW4DisplayFormat@@XZ 1007e7c0 f i modifiedqtreeview.obj
 0001:0007d7d0       ??0ModifiedQTreeView@@QAE@XZ 1007e7d0 f   modifiedqtreeview.obj
 0001:0007d870       ??_GQSignalMapper@@UAEPAXI@Z 1007e870 f i modifiedqtreeview.obj
 0001:0007d870       ??_EQSignalMapper@@UAEPAXI@Z 1007e870 f i modifiedqtreeview.obj
 0001:0007d890       ??1ModifiedQTreeView@@UAE@XZ 1007e890 f i modifiedqtreeview.obj
 0001:0007d8a0       ?scrollContentsBy@ModifiedQTreeView@@EAEXHH@Z 1007e8a0 f   modifiedqtreeview.obj
 0001:0007d8d0       ?resizeEvent@ModifiedQTreeView@@EAEXPAVQResizeEvent@@@Z 1007e8d0 f   modifiedqtreeview.obj
 0001:0007d8f0       ?refreshAll@ModifiedQTreeView@@AAEXXZ 1007e8f0 f   modifiedqtreeview.obj
 0001:0007d900       ?expandAll@ModifiedQTreeView@@AAEXXZ 1007e900 f   modifiedqtreeview.obj
 0001:0007d920       ?collapseAll@ModifiedQTreeView@@AAEXXZ 1007e920 f   modifiedqtreeview.obj
 0001:0007d930       ?size@?$QList@VQModelIndex@@@@QBEHXZ 1007e930 f i modifiedqtreeview.obj
 0001:0007d940       ?count@?$QList@VQModelIndex@@@@QBEHXZ 1007e940 f i modifiedqtreeview.obj
 0001:0007d950       ??0?$QPair@_NW4DisplayFormat@@@@QAE@AB_NABW4DisplayFormat@@@Z 1007e950 f i modifiedqtreeview.obj
 0001:0007d970       ??Econst_iterator@?$QList@VQModelIndex@@@@QAEAAV01@XZ 1007e970 f i modifiedqtreeview.obj
 0001:0007d980       ??9const_iterator@?$QList@VQModelIndex@@@@QBE_NABV01@@Z 1007e980 f i modifiedqtreeview.obj
 0001:0007d9a0       ?t@Node@?$QList@VQModelIndex@@@@QAEAAVQModelIndex@@XZ 1007e9a0 f i modifiedqtreeview.obj
 0001:0007d9b0       ??A?$QList@VQModelIndex@@@@QBEABVQModelIndex@@H@Z 1007e9b0 f i modifiedqtreeview.obj
 0001:0007d9c0       ??$qForeachPointer@V?$QList@VQModelIndex@@@@@@YAPAV?$QList@VQModelIndex@@@@ABV0@@Z 1007e9c0 f i modifiedqtreeview.obj
 0001:0007d9d0       ??$qForeachContainer@V?$QList@VQModelIndex@@@@@@YAPBV?$QForeachContainer@V?$QList@VQModelIndex@@@@@@PBUQForeachContainerBase@@PBV?$QList@VQModelIndex@@@@@Z 1007e9d0 f i modifiedqtreeview.obj
 0001:0007d9e0       ??0const_iterator@?$QList@VQModelIndex@@@@QAE@PAUNode@1@@Z 1007e9e0 f i modifiedqtreeview.obj
 0001:0007d9f0       ?node_copy@?$QList@VQModelIndex@@@@AAEXPAUNode@1@00@Z 1007e9f0 f i modifiedqtreeview.obj
 0001:0007da40       ??_GQModelIndex@@QAEPAXI@Z 1007ea40 f i modifiedqtreeview.obj
 0001:0007da70       ??_EModifiedQTreeView@@W7AEPAXI@Z 1007ea70 f i modifiedqtreeview.obj
 0001:0007da80       ?getDataLength@RegisterValueData@@QBEIXZ 1007ea80 f i modifiedqtreeview.obj
 0001:0007da90       ??_GModifiedQTreeView@@UAEPAXI@Z 1007ea90 f i modifiedqtreeview.obj
 0001:0007da90       ??_EModifiedQTreeView@@UAEPAXI@Z 1007ea90 f i modifiedqtreeview.obj
 0001:0007dab0       ?condition@?$QForeachContainer@V?$QList@VQModelIndex@@@@@@QBE_NXZ 1007eab0 f i modifiedqtreeview.obj
 0001:0007dad0       ??Dconst_iterator@?$QList@VQModelIndex@@@@QBEABVQModelIndex@@XZ 1007ead0 f i modifiedqtreeview.obj
 0001:0007dae0       ?begin@?$QList@VQModelIndex@@@@QBE?AVconst_iterator@1@XZ 1007eae0 f i modifiedqtreeview.obj
 0001:0007db00       ?end@?$QList@VQModelIndex@@@@QBE?AVconst_iterator@1@XZ 1007eb00 f i modifiedqtreeview.obj
 0001:0007db20       ?node_destruct@?$QList@VQModelIndex@@@@AAEXPAUNode@1@0@Z 1007eb20 f i modifiedqtreeview.obj
 0001:0007db60       ?free@?$QList@VQModelIndex@@@@AAEXPAUData@QListData@@@Z 1007eb60 f i modifiedqtreeview.obj
 0001:0007db90       ??1?$QList@VQModelIndex@@@@QAE@XZ 1007eb90 f i modifiedqtreeview.obj
 0001:0007dbd0       ?detach_helper@?$QList@VQModelIndex@@@@AAEXXZ 1007ebd0 f i modifiedqtreeview.obj
 0001:0007dc40       ?getSelectedRows@ModifiedQTreeView@@ABE?AV?$QList@VQModelIndex@@@@XZ 1007ec40 f   modifiedqtreeview.obj
 0001:0007dc70       ?forceRead@ModifiedQTreeView@@AAEXXZ 1007ec70 f   modifiedqtreeview.obj
 0001:0007dd60       ?copyToTable@ModifiedQTreeView@@AAEXXZ 1007ed60 f   modifiedqtreeview.obj
 0001:0007df80       ?newFormat@ModifiedQTreeView@@AAEXH@Z 1007ef80 f   modifiedqtreeview.obj
 0001:0007e020       ?addDataBreakpoint@ModifiedQTreeView@@AAEXXZ 1007f020 f   modifiedqtreeview.obj
 0001:0007e210       ??1?$QForeachContainer@V?$QList@VQModelIndex@@@@@@QAE@XZ 1007f210 f i modifiedqtreeview.obj
 0001:0007e250       ??0?$QList@VQModelIndex@@@@QAE@ABV0@@Z 1007f250 f i modifiedqtreeview.obj
 0001:0007e280       ??0?$QForeachContainer@V?$QList@VQModelIndex@@@@@@QAE@ABV?$QList@VQModelIndex@@@@@Z 1007f280 f i modifiedqtreeview.obj
 0001:0007e2d0       ??$qForeachContainerNew@V?$QList@VQModelIndex@@@@@@YA?AV?$QForeachContainer@V?$QList@VQModelIndex@@@@@@ABV?$QList@VQModelIndex@@@@@Z 1007f2d0 f i modifiedqtreeview.obj
 0001:0007e530       ?contextMenuEvent@ModifiedQTreeView@@EAEXPAVQContextMenuEvent@@@Z 1007f530 f   modifiedqtreeview.obj
 0001:0007eb50       ?byteStr@?A0x44a13ad0@@YA?AVQString@@ABVQByteArray@@@Z 1007fb50 f   multiformatdata.obj
 0001:0007eca0       ??0MultiFormatData@@QAE@XZ 1007fca0 f   multiformatdata.obj
 0001:0007ecd0       ??0MultiFormatData@@QAE@ABV0@@Z 1007fcd0 f   multiformatdata.obj
 0001:0007ed50       ??1MultiFormatData@@UAE@XZ 1007fd50 f   multiformatdata.obj
 0001:0007ed70       ?setFloatSupport@MultiFormatData@@SAXPAUIFloatSupport@@@Z 1007fd70 f   multiformatdata.obj
 0001:0007ed80       ?formatHint@MultiFormatData@@QBE?AW4FormatHint@1@XZ 1007fd80 f   multiformatdata.obj
 0001:0007ed90       ?toIntegerByteArray@MultiFormatData@@QBE?AVQByteArray@@XZ 1007fd90 f   multiformatdata.obj
 0001:0007edb0       ?isValid@MultiFormatData@@QBE_NXZ 1007fdb0 f   multiformatdata.obj
 0001:0007edc0       ?fromDouble@MultiFormatData@@AAEXN@Z 1007fdc0 f   multiformatdata.obj
 0001:0007ef70       ?fromByteArray@MultiFormatData@@AAEXABVQByteArray@@@Z 1007ff70 f   multiformatdata.obj
 0001:0007ef90       ?msByte@MultiFormatData@@ABEEABVQByteArray@@@Z 1007ff90 f   multiformatdata.obj
 0001:0007efb0       ?msBit@MultiFormatData@@ABE_NABVQByteArray@@@Z 1007ffb0 f   multiformatdata.obj
 0001:0007efe0       ?padByte@MultiFormatData@@ABEEABVQByteArray@@@Z 1007ffe0 f   multiformatdata.obj
 0001:0007f010       ?maxSize@MultiFormatData@@ABEHABVQByteArray@@0@Z 10080010 f   multiformatdata.obj
 0001:0007f030       ?safeAt@MultiFormatData@@ABEEABVQByteArray@@H@Z 10080030 f   multiformatdata.obj
 0001:0007f080       ?reduce@MultiFormatData@@ABE?AVQByteArray@@ABV2@@Z 10080080 f   multiformatdata.obj
 0001:0007f150       ?isZero@MultiFormatData@@ABE_NABVQByteArray@@@Z 10080150 f   multiformatdata.obj
 0001:0007f190       ?andBytes@MultiFormatData@@ABE?AVQByteArray@@ABV2@0@Z 10080190 f   multiformatdata.obj
 0001:0007f300       ?orBytes@MultiFormatData@@ABE?AVQByteArray@@ABV2@0@Z 10080300 f   multiformatdata.obj
 0001:0007f470       ?xorBytes@MultiFormatData@@ABE?AVQByteArray@@ABV2@0@Z 10080470 f   multiformatdata.obj
 0001:0007f5e0       ?notBytes@MultiFormatData@@ABE?AVQByteArray@@ABV2@@Z 100805e0 f   multiformatdata.obj
 0001:0007f6c0       ?addBytes@MultiFormatData@@ABE?AVQByteArray@@ABV2@0@Z 100806c0 f   multiformatdata.obj
 0001:0007f850       ?lshiftBytes@MultiFormatData@@ABE?AVQByteArray@@ABV2@H@Z 10080850 f   multiformatdata.obj
 0001:0007f9d0       ??_EMultiFormatData@@UAEPAXI@Z 100809d0 f i multiformatdata.obj
 0001:0007f9d0       ??_GMultiFormatData@@UAEPAXI@Z 100809d0 f i multiformatdata.obj
 0001:0007fa10       ?toFloatString@MultiFormatData@@QBE?AVQString@@XZ 10080a10 f   multiformatdata.obj
 0001:0007fb30       ?toBool@MultiFormatData@@QBE?AVQString@@XZ 10080b30 f   multiformatdata.obj
 0001:0007fbb0       ?toReadWriteByteArray@MultiFormatData@@QBE?AVQByteArray@@XZ 10080bb0 f   multiformatdata.obj
 0001:0007fc10       ?toInt@MultiFormatData@@QBEHXZ 10080c10 f   multiformatdata.obj
 0001:0007fc80       ?toUint32@MultiFormatData@@QBEIXZ 10080c80 f   multiformatdata.obj
 0001:0007fcf0       ?toUint64@MultiFormatData@@QBE_KXZ 10080cf0 f   multiformatdata.obj
 0001:0007fd80       ?toDouble@MultiFormatData@@QBENPA_N@Z 10080d80 f   multiformatdata.obj
 0001:0007fe70       ??8MultiFormatData@@QBE_NABV0@@Z 10080e70 f   multiformatdata.obj
 0001:0007ff50       ?fromInt16@MultiFormatData@@AAEXF@Z 10080f50 f   multiformatdata.obj
 0001:00080080       ?fromUint16@MultiFormatData@@AAEXG@Z 10081080 f   multiformatdata.obj
 0001:00080180       ?fromInt32@MultiFormatData@@AAEXH@Z 10081180 f   multiformatdata.obj
 0001:000802a0       ?fromUint32@MultiFormatData@@AAEXI@Z 100812a0 f   multiformatdata.obj
 0001:000803a0       ?fromInt64@MultiFormatData@@AAEX_J@Z 100813a0 f   multiformatdata.obj
 0001:000804e0       ?fromUint64@MultiFormatData@@AAEX_K@Z 100814e0 f   multiformatdata.obj
 0001:000805e0       ?negateBytes@MultiFormatData@@ABE?AVQByteArray@@ABV2@@Z 100815e0 f   multiformatdata.obj
 0001:000806b0       ?absBytes@MultiFormatData@@ABE?AVQByteArray@@ABV2@@Z 100816b0 f   multiformatdata.obj
 0001:00080770       ?subBytes@MultiFormatData@@ABE?AVQByteArray@@ABV2@0@Z 10081770 f   multiformatdata.obj
 0001:00080810       ?mul1Bytes@MultiFormatData@@ABE?AVQByteArray@@ABV2@EH@Z 10081810 f   multiformatdata.obj
 0001:00080a50       ?div1Bytes@MultiFormatData@@ABE?AVQByteArray@@ABV2@EPAE@Z 10081a50 f   multiformatdata.obj
 0001:00080bb0       ?rshiftBytes@MultiFormatData@@ABE?AVQByteArray@@ABV2@H@Z 10081bb0 f   multiformatdata.obj
 0001:00080d50       ?toString@MultiFormatData@@QBE?AVQString@@H_N@Z 10081d50 f   multiformatdata.obj
 0001:00081410       ?toFractionString@MultiFormatData@@QBE?AVQString@@XZ 10082410 f   multiformatdata.obj
 0001:00081720       ?fromString@MultiFormatData@@AAEXABVQString@@@Z 10082720 f   multiformatdata.obj
 0001:000825b0       ?mulBytes@MultiFormatData@@ABE?AVQByteArray@@ABV2@0@Z 100835b0 f   multiformatdata.obj
 0001:000827c0       ??0MultiFormatData@@QAE@ABVQVariant@@HW4FormatHint@0@@Z 100837c0 f   multiformatdata.obj
 0001:00082a10       ??0NamespaceTypeBuilder@@QAE@PAVDwarfTypeBuilder@@@Z 10083a10 f   namespacetypebuilder.obj
 0001:00082a40       ??1NamespaceTypeBuilder@@UAE@XZ 10083a40 f   namespacetypebuilder.obj
 0001:00082a50       ?clear@NamespaceTypeBuilder@@QAEXXZ 10083a50 f   namespacetypebuilder.obj
 0001:00082a60       ??0?$QFlags@W4SectionFlag@QString@@@@QAE@W4SectionFlag@QString@@@Z 10083a60 f i namespacetypebuilder.obj
 0001:00082a70       ??_GNamespaceTypeBuilder@@UAEPAXI@Z 10083a70 f i namespacetypebuilder.obj
 0001:00082a70       ??_ENamespaceTypeBuilder@@UAEPAXI@Z 10083a70 f i namespacetypebuilder.obj
 0001:00082a90       ?findComposableType@NamespaceTypeBuilder@@AAEPAVComposableType@@PAV2@VQString@@@Z 10083a90 f   namespacetypebuilder.obj
 0001:00082ce0       ?newComposableType@NamespaceTypeBuilder@@AAEPAVComposableType@@VQString@@PAV2@@Z 10083ce0 f   namespacetypebuilder.obj
 0001:00082f00       ?getType@NamespaceTypeBuilder@@QAEPAVSymbolType@@VQString@@PAV2@AAV3@V?$QList@VLocation@@@@@Z 10083f00 f   namespacetypebuilder.obj
 0001:000833f0       ??0ParenthesisMatcherPrivate@@QAE@XZ 100843f0 f i parenthesismatcher.obj
 0001:00083420       ??1ParenthesisMatcherPrivate@@QAE@XZ 10084420 f i parenthesismatcher.obj
 0001:00083490       ?charAt@ParenthesisMatcherPrivate@@QBE?AVQChar@@HVQTextCursor@@@Z 10084490 f   parenthesismatcher.obj
 0001:000835a0       ?currentChar@ParenthesisMatcherPrivate@@QBE?AVQChar@@VQTextCursor@@@Z 100845a0 f   parenthesismatcher.obj
 0001:00083620       ?isClosingParenthesis@ParenthesisMatcher@@QBE_NVQChar@@@Z 10084620 f   parenthesismatcher.obj
 0001:00083650       ?isOpeningParenthesis@ParenthesisMatcher@@QBE_NVQChar@@@Z 10084650 f   parenthesismatcher.obj
 0001:00083680       ?isParenthesisPair@ParenthesisMatcher@@QBE_NVQChar@@0@Z 10084680 f   parenthesismatcher.obj
 0001:00083750       ?previousChar@ParenthesisMatcherPrivate@@QBE?AVQChar@@VQTextCursor@@@Z 10084750 f   parenthesismatcher.obj
 0001:000837d0       ??9const_iterator@?$QMap@HVQChar@@@@QBE_NABV01@@Z 100847d0 f i parenthesismatcher.obj
 0001:000837f0       ??Econst_iterator@?$QMap@HVQChar@@@@QAE?AV01@H@Z 100847f0 f i parenthesismatcher.obj
 0001:00083800       ??Fconst_iterator@?$QMap@HVQChar@@@@QAEAAV01@XZ 10084800 f i parenthesismatcher.obj
 0001:00083810       ??0const_iterator@?$QMap@HVQChar@@@@QAE@PAUNode@QMapData@@@Z 10084810 f i parenthesismatcher.obj
 0001:00083820       ??0?$QPair@HH@@QAE@ABH0@Z  10084820 f i parenthesismatcher.obj
 0001:00083840       ??0ParenthesisMatcher@@QAE@PAVQObject@@@Z 10084840 f   parenthesismatcher.obj
 0001:000838e0       ??_GParenthesisMatcherPrivate@@QAEPAXI@Z 100848e0 f i parenthesismatcher.obj
 0001:00083900       ?addParenthesisPair@ParenthesisMatcher@@QAE_NVQChar@@0@Z 10084900 f   parenthesismatcher.obj
 0001:000839b0       ?next@?$QMapIterator@HVQChar@@@@QAE?AVconst_iterator@?$QMap@HVQChar@@@@XZ 100849b0 f i parenthesismatcher.obj
 0001:000839d0       ?previous@?$QMapIterator@HVQChar@@@@QAE?AVconst_iterator@?$QMap@HVQChar@@@@XZ 100849d0 f i parenthesismatcher.obj
 0001:000839f0       ?constBegin@?$QMap@HVQChar@@@@QBE?AVconst_iterator@1@XZ 100849f0 f i parenthesismatcher.obj
 0001:00083a00       ?constEnd@?$QMap@HVQChar@@@@QBE?AVconst_iterator@1@XZ 10084a00 f i parenthesismatcher.obj
 0001:00083a10       ??$qMakePair@HH@@YA?AU?$QPair@HH@@ABH0@Z 10084a10 f i parenthesismatcher.obj
 0001:00083a30       ??1ParenthesisMatcher@@UAE@XZ 10084a30 f   parenthesismatcher.obj
 0001:00083aa0       ?toBack@?$QMapIterator@HVQChar@@@@QAEXXZ 10084aa0 f i parenthesismatcher.obj
 0001:00083ab0       ?hasNext@?$QMapIterator@HVQChar@@@@QBE_NXZ 10084ab0 f i parenthesismatcher.obj
 0001:00083ac0       ?hasPrevious@?$QMapIterator@HVQChar@@@@QBE_NXZ 10084ac0 f i parenthesismatcher.obj
 0001:00083ad0       ?key@const_iterator@?$QMap@HVQChar@@@@QBEABHXZ 10084ad0 f i parenthesismatcher.obj
 0001:00083ae0       ??Dconst_iterator@?$QMap@HVQChar@@@@QBEABVQChar@@XZ 10084ae0 f i parenthesismatcher.obj
 0001:00083af0       ??_EParenthesisMatcher@@UAEPAXI@Z 10084af0 f i parenthesismatcher.obj
 0001:00083af0       ??_GParenthesisMatcher@@UAEPAXI@Z 10084af0 f i parenthesismatcher.obj
 0001:00083b10       ??1?$QMapIterator@HVQChar@@@@QAE@XZ 10084b10 f i parenthesismatcher.obj
 0001:00083b40       ?value@?$QMapIterator@HVQChar@@@@QBEABVQChar@@XZ 10084b40 f i parenthesismatcher.obj
 0001:00083b50       ?key@?$QMapIterator@HVQChar@@@@QBEABHXZ 10084b50 f i parenthesismatcher.obj
 0001:00083b60       ??0?$QMap@HVQChar@@@@QAE@ABV0@@Z 10084b60 f i parenthesismatcher.obj
 0001:00083ba0       ??0?$QMapIterator@HVQChar@@@@QAE@ABV?$QMap@HVQChar@@@@@Z 10084ba0 f i parenthesismatcher.obj
 0001:00083bf0       ?findClosingParInBlock@ParenthesisMatcherPrivate@@QBEHHHPAHABV?$QMap@HVQChar@@@@@Z 10084bf0 f   parenthesismatcher.obj
 0001:00083d90       ?findOpeningParInBlock@ParenthesisMatcherPrivate@@QBEHHHPAHABV?$QMap@HVQChar@@@@@Z 10084d90 f   parenthesismatcher.obj
 0001:00083f30       ?findClosingParenthesis@ParenthesisMatcherPrivate@@QBEHVQTextCursor@@@Z 10084f30 f   parenthesismatcher.obj
 0001:00084050       ?findOpeningParenthesis@ParenthesisMatcherPrivate@@QBEHVQTextCursor@@@Z 10085050 f   parenthesismatcher.obj
 0001:00084170       ?findMatchingParenthesis@ParenthesisMatcher@@QBE?AU?$QPair@HH@@VQTextCursor@@PA_N@Z 10085170 f   parenthesismatcher.obj
 0001:00084360       ??0?$QMap@W4Path@PathList@@VQDir@@@@QAE@XZ 10085360 f i pathlist.obj
 0001:00084380       ??_GQDir@@QAEPAXI@Z        10085380 f i pathlist.obj
 0001:000843a0       ?payload@?$QMap@W4Path@PathList@@VQDir@@@@CAHXZ 100853a0 f i pathlist.obj
 0001:000843b0       ?concrete@?$QMap@W4Path@PathList@@VQDir@@@@CAPAU?$QMapNode@W4Path@PathList@@VQDir@@@@PAUNode@QMapData@@@Z 100853b0 f i pathlist.obj
 0001:000843c0       ?node_create@?$QMap@W4Path@PathList@@VQDir@@@@AAEPAUNode@QMapData@@PAU3@QAPAU23@ABW4Path@PathList@@ABVQDir@@@Z 100853c0 f i pathlist.obj
 0001:00084430       ??$qMapLessThanKey@W4Path@PathList@@@@YA_NABW4Path@PathList@@0@Z 10085430 f i pathlist.obj
 0001:00084450       ?freeData@?$QMap@W4Path@PathList@@VQDir@@@@AAEXPAUQMapData@@@Z 10085450 f i pathlist.obj
 0001:00084490       ?detach_helper@?$QMap@W4Path@PathList@@VQDir@@@@AAEXXZ 10085490 f i pathlist.obj
 0001:00084550       ?mutableFindNode@?$QMap@W4Path@PathList@@VQDir@@@@ABEPAUNode@QMapData@@QAPAU23@ABW4Path@PathList@@@Z 10085550 f i pathlist.obj
 0001:000845b0       ?findNode@?$QMap@W4Path@PathList@@VQDir@@@@ABEPAUNode@QMapData@@ABW4Path@PathList@@@Z 100855b0 f i pathlist.obj
 0001:00084600       ??1?$QMap@W4Path@PathList@@VQDir@@@@QAE@XZ 10085600 f i pathlist.obj
 0001:00084620       ?detach@?$QMap@W4Path@PathList@@VQDir@@@@QAEXXZ 10085620 f i pathlist.obj
 0001:00084640       ?value@?$QMap@W4Path@PathList@@VQDir@@@@QBE?BVQDir@@ABW4Path@PathList@@@Z 10085640 f i pathlist.obj
 0001:00084700       ??1PathList@@UAE@XZ        10085700 f   pathlist.obj
 0001:00084730       ??A?$QMap@W4Path@PathList@@VQDir@@@@QBE?BVQDir@@ABW4Path@PathList@@@Z 10085730 f i pathlist.obj
 0001:00084750       ??A?$QMap@W4Path@PathList@@VQDir@@@@QAEAAVQDir@@ABW4Path@PathList@@@Z 10085750 f i pathlist.obj
 0001:00084850       ??0PathList@@QAE@XZ        10085850 f   pathlist.obj
 0001:00085430       ??_EPathList@@UAEPAXI@Z    10086430 f i pathlist.obj
 0001:00085430       ??_GPathList@@UAEPAXI@Z    10086430 f i pathlist.obj
 0001:00085470       ?path@PathList@@QBE?AVQDir@@W4Path@1@@Z 10086470 f   pathlist.obj
 0001:000854a0       ?peripheralsConfigurationRelativePath@@YA?AU?$QPair@VQString@@V1@@@IABVQString@@GI@Z 100864a0 f   peripheralsconfiguration.obj
 0001:00085830       ??_GQDomDocument@@QAEPAXI@Z 10086830 f i peripheralsdatabaseqt.obj
 0001:00085890       ?peripheralIntegerAttribute@@YAIPBDABVQDomElement@@HPA_N@Z 10086890 f   peripheralsdatabaseqt.obj
 0001:000859b0       ?peripheralStringAttribute@@YA?AVQString@@PBDABVQDomElement@@PA_N@Z 100869b0 f   peripheralsdatabaseqt.obj
 0001:00085b20       ?peripheralIoFlag@@YA_NPBDABVQDomElement@@PA_N2@Z 10086b20 f   peripheralsdatabaseqt.obj
 0001:00085c60       ?data@?$Basic@VQDomDocument@@@QtSharedPointer@@QBEPAVQDomDocument@@XZ 10086c60 f i peripheralsdatabaseqt.obj
 0001:00085c70       ?ref@?$ExternalRefCount@VQDomDocument@@@QtSharedPointer@@IBEXXZ 10086c70 f i peripheralsdatabaseqt.obj
 0001:00085c90       ??0?$Basic@VQDomDocument@@@QtSharedPointer@@IAE@XZ 10086c90 f i peripheralsdatabaseqt.obj
 0001:00085ca0       ?internalConstruct@?$Basic@VQDomDocument@@@QtSharedPointer@@IAEXPAVQDomDocument@@@Z 10086ca0 f i peripheralsdatabaseqt.obj
 0001:00085cb0       ?internalDestroy@?$Basic@VQDomDocument@@@QtSharedPointer@@IAEXXZ 10086cb0 f i peripheralsdatabaseqt.obj
 0001:00085cc0       ??C?$Basic@VQDomDocument@@@QtSharedPointer@@QBEPAVQDomDocument@@XZ 10086cc0 f i peripheralsdatabaseqt.obj
 0001:00085cd0       ?internalConstruct@?$ExternalRefCount@VQDomDocument@@@QtSharedPointer@@IAEXPAVQDomDocument@@@Z 10086cd0 f i peripheralsdatabaseqt.obj
 0001:00085d10       ??0?$ExternalRefCount@VQDomDocument@@@QtSharedPointer@@IAE@XZ 10086d10 f i peripheralsdatabaseqt.obj
 0001:00085d20       ??0?$ExternalRefCount@VQDomDocument@@@QtSharedPointer@@IAE@ABV01@@Z 10086d20 f i peripheralsdatabaseqt.obj
 0001:00085d60       ?internalDestroy@?$ExternalRefCount@VQDomDocument@@@QtSharedPointer@@IAEXXZ 10086d60 f i peripheralsdatabaseqt.obj
 0001:00085d90       ?deref@?$ExternalRefCount@VQDomDocument@@@QtSharedPointer@@IAE_NXZ 10086d90 f i peripheralsdatabaseqt.obj
 0001:00085de0       ??1?$ExternalRefCount@VQDomDocument@@@QtSharedPointer@@IAE@XZ 10086de0 f i peripheralsdatabaseqt.obj
 0001:00085e10       ??1?$QSharedPointer@VQDomDocument@@@@QAE@XZ 10086e10 f i peripheralsdatabaseqt.obj
 0001:00085e40       ??1?$QPair@V?$QSharedPointer@VQDomDocument@@@@VQString@@@@QAE@XZ 10086e40 f i peripheralsdatabaseqt.obj
 0001:00085ed0       ?lookupCuratorPeripherals@@YAIV?$QSharedPointer@VQDomDocument@@@@@Z 10086ed0 f   peripheralsdatabaseqt.obj
 0001:00086350       ??0?$QSharedPointer@VQDomDocument@@@@QAE@PAVQDomDocument@@@Z 10087350 f i peripheralsdatabaseqt.obj
 0001:000863c0       ??0?$QSharedPointer@VQDomDocument@@@@QAE@ABV0@@Z 100873c0 f i peripheralsdatabaseqt.obj
 0001:00086400       ?peripheralChildren@@YA?AVQDomNodeList@@V?$QSharedPointer@VQDomDocument@@@@HPBD@Z 10087400 f   peripheralsdatabaseqt.obj
 0001:00086580       ?findPeripheralElement@@YA?AVQDomElement@@V?$QSharedPointer@VQDomDocument@@@@HPBD1@Z 10087580 f   peripheralsdatabaseqt.obj
 0001:000869b0       ??0?$QPair@V?$QSharedPointer@VQDomDocument@@@@VQString@@@@QAE@ABV?$QSharedPointer@VQDomDocument@@@@ABVQString@@@Z 100879b0 f i peripheralsdatabaseqt.obj
 0001:00086a30       ?createPeripheralsDocument@@YA?AU?$QPair@V?$QSharedPointer@VQDomDocument@@@@VQString@@@@ABVQString@@@Z 10087a30 f   peripheralsdatabaseqt.obj
 0001:00086df0       ?memModeToBitWidth@IMemory@@SAIW4MemoryMode@1@@Z 10087df0 f i peripheralswidget.obj
 0001:00086e40       ??0AbstractPeripheralsTreeData@@QAE@XZ 10087e40 f i peripheralswidget.obj
 0001:00086e50       ?isPeripheralName@AbstractPeripheralsTreeData@@UBE_NXZ 10087e50 f i peripheralswidget.obj
 0001:00086e60       ?isRegisterName@AbstractPeripheralsTreeData@@UBE_NXZ 10087e60 f i peripheralswidget.obj
 0001:00086e70       ?isRegisterValue@AbstractPeripheralsTreeData@@UBE_NXZ 10087e70 f i peripheralswidget.obj
 0001:00086e80       ?isBitfieldName@AbstractPeripheralsTreeData@@UBE_NXZ 10087e80 f i peripheralswidget.obj
 0001:00086e90       ?isBitfieldValue@AbstractPeripheralsTreeData@@UBE_NXZ 10087e90 f i peripheralswidget.obj
 0001:00086ea0       ?isFresh@RegisterValueData@@QBE_NXZ 10087ea0 f i peripheralswidget.obj
 0001:00086eb0       ?getWidth@RegisterValueData@@QBEIXZ 10087eb0 f i peripheralswidget.obj
 0001:00086ec0       ?getReadMode@RegisterValueData@@QBE?AW4RegisterIoMode@@XZ 10087ec0 f i peripheralswidget.obj
 0001:00086ed0       ?getWriteMode@RegisterValueData@@QBE?AW4RegisterIoMode@@XZ 10087ed0 f i peripheralswidget.obj
 0001:00086ee0       ?getRegionIx@RegisterValueData@@QBEHXZ 10087ee0 f i peripheralswidget.obj
 0001:00086ef0       ?setDisplayFormat@RegisterValueData@@QAEXW4DisplayFormat@@@Z 10087ef0 f i peripheralswidget.obj
 0001:00086f00       ?setFresh@RegisterValueData@@QAEX_N@Z 10087f00 f i peripheralswidget.obj
 0001:00086f10       ?lessThan@RegisterValueData@@QBE_NABV1@@Z 10087f10 f i peripheralswidget.obj
 0001:00086f30       ?getLastIoStatus@RegisterValueData@@QBE?AW4data_status@1@XZ 10087f30 f i peripheralswidget.obj
 0001:00086f40       ?setDisplayFormat@BitfieldValueData@@QAEXW4DisplayFormat@@@Z 10087f40 f i peripheralswidget.obj
 0001:00086f50       ?getLastIoStatus@BitfieldValueData@@QBE?AW4data_status@RegisterValueData@@XZ 10087f50 f i peripheralswidget.obj
 0001:00086f60       ?setAddDataBreakpointSupported@ModifiedQTreeView@@QAEX_N@Z 10087f60 f i peripheralswidget.obj
 0001:00086f70       ?setFilterString@CustomSortFilterProxyModel@@QAEXABVQString@@@Z 10087f70 f i peripheralswidget.obj
 0001:00086f80       ?refilter@CustomSortFilterProxyModel@@QAEXXZ 10087f80 f i peripheralswidget.obj
 0001:00086f90       ??0CustomSortFilterProxyModel@@QAE@XZ 10087f90 f i peripheralswidget.obj
 0001:00086fc0       ??1CustomSortFilterProxyModel@@UAE@XZ 10087fc0 f i peripheralswidget.obj
 0001:00087020       ??0PeripheralNameData@@QAE@XZ 10088020 f i peripheralswidget.obj
 0001:00087030       ?isPeripheralName@PeripheralNameData@@UBE_NXZ 10088030 f i peripheralswidget.obj
 0001:00087040       ??1PeripheralNameData@@UAE@XZ 10088040 f i peripheralswidget.obj
 0001:00087050       ??0RegisterNameData@@QAE@XZ 10088050 f i peripheralswidget.obj
 0001:00087060       ?isRegisterName@RegisterNameData@@UBE_NXZ 10088060 f i peripheralswidget.obj
 0001:00087070       ??1RegisterNameData@@UAE@XZ 10088070 f i peripheralswidget.obj
 0001:00087080       ??0BitfieldNameData@@QAE@XZ 10088080 f i peripheralswidget.obj
 0001:00087090       ?isBitfieldName@BitfieldNameData@@UBE_NXZ 10088090 f i peripheralswidget.obj
 0001:000870a0       ??1BitfieldNameData@@UAE@XZ 100880a0 f i peripheralswidget.obj
 0001:000870b0       ?addDataBreakpointSlot@PeripheralsWidget@@QAEXABVQString@@I@Z 100880b0 f   peripheralswidget.obj
 0001:000871b0       ??1?$QPair@VQString@@_N@@QAE@XZ 100881b0 f i peripheralswidget.obj
 0001:000871d0       ?filterChanged@PeripheralsWidget@@AAEXABVQString@@@Z 100881d0 f   peripheralswidget.obj
 0001:00087200       ?filterPosChanged@PeripheralsWidget@@AAEXHH@Z 10088200 f   peripheralswidget.obj
 0001:00087350       ?filterEditingFinished@PeripheralsWidget@@AAEXXZ 10088350 f   peripheralswidget.obj
 0001:00087440       ?autoRefreshCheckBoxChanged@PeripheralsWidget@@AAEXH@Z 10088440 f   peripheralswidget.obj
 0001:000874d0       ?isRegisterName@PeripheralsWidget@@ABE_NABVQModelIndex@@@Z 100884d0 f   peripheralswidget.obj
 0001:00087500       ?updateDataNode@PeripheralsWidget@@AAEXPAVQStandardItem@@_NABVQString@@@Z 10088500 f   peripheralswidget.obj
 0001:000877f0       ?count@?$QVector@U?$QPair@IW4MemoryResult@IMemory@@@@@@QBEHXZ 100887f0 f i peripheralswidget.obj
 0001:00087800       ??0?$QList@URegisterUpdate@@@@QAE@XZ 10088800 f i peripheralswidget.obj
 0001:00087820       ?count@?$QList@URegisterUpdate@@@@QBEHXZ 10088820 f i peripheralswidget.obj
 0001:00087830       ??0?$QVector@PAVRegisterValueData@@@@QAE@XZ 10088830 f i peripheralswidget.obj
 0001:00087850       ?size@?$QVector@PAVRegisterValueData@@@@QBEHXZ 10088850 f i peripheralswidget.obj
 0001:00087860       ??0?$QFlags@W4StandardButton@QMessageBox@@@@QAE@W4StandardButton@QMessageBox@@@Z 10088860 f i peripheralswidget.obj
 0001:00087870       ??0?$QList@PAVQStandardItem@@@@QAE@XZ 10088870 f i peripheralswidget.obj
 0001:00087890       ??D?$Basic@VQDomDocument@@@QtSharedPointer@@QBEAAVQDomDocument@@XZ 10088890 f i peripheralswidget.obj
 0001:000878a0       ?size@?$QList@URegion@IMemory@@@@QBEHXZ 100888a0 f i peripheralswidget.obj
 0001:000878b0       ??0?$QList@VQModelIndex@@@@QAE@XZ 100888b0 f i peripheralswidget.obj
 0001:000878d0       ??0?$QPair@VQString@@_N@@QAE@XZ 100888d0 f i peripheralswidget.obj
 0001:000878f0       ??4?$QPair@VQString@@_N@@QAEAAU0@ABU0@@Z 100888f0 f i peripheralswidget.obj
 0001:00087910       ??0?$QList@V?$QSharedPointer@URegisterUpdateBlock@@@@@@QAE@XZ 10088910 f i peripheralswidget.obj
 0001:00087930       ??Econst_iterator@?$QList@V?$QSharedPointer@URegisterUpdateBlock@@@@@@QAEAAV01@XZ 10088930 f i peripheralswidget.obj
 0001:00087940       ?data@?$Basic@VRegisterValueData@@@QtSharedPointer@@QBEPAVRegisterValueData@@XZ 10088940 f i peripheralswidget.obj
 0001:00087950       ?data@?$Basic@V?$QList@VQModelIndex@@@@@QtSharedPointer@@QBEPAV?$QList@VQModelIndex@@@@XZ 10088950 f i peripheralswidget.obj
 0001:00087960       ?isNull@?$Basic@V?$QList@VQModelIndex@@@@@QtSharedPointer@@QBE_NXZ 10088960 f i peripheralswidget.obj
 0001:00087970       ??0iterator@?$QList@VQModelIndex@@@@QAE@PAUNode@1@@Z 10088970 f i peripheralswidget.obj
 0001:00087980       ?data@?$Basic@V?$QList@V?$QSharedPointer@URegisterUpdateBlock@@@@@@@QtSharedPointer@@QBEPAV?$QList@V?$QSharedPointer@URegisterUpdateBlock@@@@@@XZ 10088980 f i peripheralswidget.obj
 0001:00087990       ?data@?$Basic@URegisterUpdateBlock@@@QtSharedPointer@@QBEPAURegisterUpdateBlock@@XZ 10088990 f i peripheralswidget.obj
 0001:000879a0       ?isNull@?$Basic@URegisterUpdateBlock@@@QtSharedPointer@@QBE_NXZ 100889a0 f i peripheralswidget.obj
 0001:000879b0       ??9const_iterator@?$QList@V?$QSharedPointer@URegisterUpdateBlock@@@@@@QBE_NABV01@@Z 100889b0 f i peripheralswidget.obj
 0001:000879d0       ?data@?$Basic@VBitfieldValueData@@@QtSharedPointer@@QBEPAVBitfieldValueData@@XZ 100889d0 f i peripheralswidget.obj
 0001:000879e0       ?t@Node@?$QList@V?$QSharedPointer@URegisterUpdateBlock@@@@@@QAEAAV?$QSharedPointer@URegisterUpdateBlock@@@@XZ 100889e0 f i peripheralswidget.obj
 0001:000879f0       ?ref@?$ExternalRefCount@VRegisterValueData@@@QtSharedPointer@@IBEXXZ 100889f0 f i peripheralswidget.obj
 0001:00087a10       ??0?$Basic@VRegisterValueData@@@QtSharedPointer@@IAE@XZ 10088a10 f i peripheralswidget.obj
 0001:00087a20       ?ref@?$ExternalRefCount@V?$QList@VQModelIndex@@@@@QtSharedPointer@@IBEXXZ 10088a20 f i peripheralswidget.obj
 0001:00087a40       ??0?$Basic@V?$QList@VQModelIndex@@@@@QtSharedPointer@@IAE@XZ 10088a40 f i peripheralswidget.obj
 0001:00087a50       ?internalConstruct@?$Basic@V?$QList@VQModelIndex@@@@@QtSharedPointer@@IAEXPAV?$QList@VQModelIndex@@@@@Z 10088a50 f i peripheralswidget.obj
 0001:00087a60       ?ref@?$ExternalRefCount@V?$QList@V?$QSharedPointer@URegisterUpdateBlock@@@@@@@QtSharedPointer@@IBEXXZ 10088a60 f i peripheralswidget.obj
 0001:00087a80       ??0?$Basic@V?$QList@V?$QSharedPointer@URegisterUpdateBlock@@@@@@@QtSharedPointer@@IAE@XZ 10088a80 f i peripheralswidget.obj
 0001:00087a90       ?internalConstruct@?$Basic@V?$QList@V?$QSharedPointer@URegisterUpdateBlock@@@@@@@QtSharedPointer@@IAEXPAV?$QList@V?$QSharedPointer@URegisterUpdateBlock@@@@@@@Z 10088a90 f i peripheralswidget.obj
 0001:00087aa0       ?ref@?$ExternalRefCount@URegisterUpdateBlock@@@QtSharedPointer@@IBEXXZ 10088aa0 f i peripheralswidget.obj
 0001:00087ac0       ??0?$Basic@URegisterUpdateBlock@@@QtSharedPointer@@IAE@XZ 10088ac0 f i peripheralswidget.obj
 0001:00087ad0       ?internalConstruct@?$Basic@URegisterUpdateBlock@@@QtSharedPointer@@IAEXPAURegisterUpdateBlock@@@Z 10088ad0 f i peripheralswidget.obj
 0001:00087ae0       ?ref@?$ExternalRefCount@VBitfieldValueData@@@QtSharedPointer@@IBEXXZ 10088ae0 f i peripheralswidget.obj
 0001:00087b00       ?internalDestroy@?$Basic@VRegisterValueData@@@QtSharedPointer@@IAEXXZ 10088b00 f i peripheralswidget.obj
 0001:00087b10       ?internalDestroy@?$Basic@V?$QList@VQModelIndex@@@@@QtSharedPointer@@IAEXXZ 10088b10 f i peripheralswidget.obj
 0001:00087b20       ?internalDestroy@?$Basic@V?$QList@V?$QSharedPointer@URegisterUpdateBlock@@@@@@@QtSharedPointer@@IAEXXZ 10088b20 f i peripheralswidget.obj
 0001:00087b30       ?internalDestroy@?$Basic@URegisterUpdateBlock@@@QtSharedPointer@@IAEXXZ 10088b30 f i peripheralswidget.obj
 0001:00087b40       ?internalDestroy@?$Basic@VBitfieldValueData@@@QtSharedPointer@@IAEXXZ 10088b40 f i peripheralswidget.obj
 0001:00087b50       ?at@?$QVector@PAVRegisterValueData@@@@QBEABQAVRegisterValueData@@H@Z 10088b50 f i peripheralswidget.obj
 0001:00087b60       ?free@?$QVector@PAVRegisterValueData@@@@AAEXPAU?$QVectorTypedData@PAVRegisterValueData@@@@@Z 10088b60 f i peripheralswidget.obj
 0001:00087b70       ??$qForeachPointer@V?$QList@V?$QSharedPointer@URegisterUpdateBlock@@@@@@@@YAPAV?$QList@V?$QSharedPointer@URegisterUpdateBlock@@@@@@ABV0@@Z 10088b70 f i peripheralswidget.obj
 0001:00087b80       ??$qForeachContainer@V?$QList@V?$QSharedPointer@URegisterUpdateBlock@@@@@@@@YAPBV?$QForeachContainer@V?$QList@V?$QSharedPointer@URegisterUpdateBlock@@@@@@@@PBUQForeachContainerBase@@PBV?$QList@V?$QSharedPointer@URegisterUpdateBlock@@@@@@@Z 10088b80 f i peripheralswidget.obj
 0001:00087b90       ?sizeOfTypedData@?$QVector@PAVRegisterValueData@@@@AAEHXZ 10088b90 f i peripheralswidget.obj
 0001:00087ba0       ??0?$QPair@VQString@@_N@@QAE@ABVQString@@AB_N@Z 10088ba0 f i peripheralswidget.obj
 0001:00087bc0       ??0iterator@?$QList@VQModelIndex@@@@QAE@ABV01@@Z 10088bc0 f i peripheralswidget.obj
 0001:00087bd0       ??Diterator@?$QList@VQModelIndex@@@@QBEAAVQModelIndex@@XZ 10088bd0 f i peripheralswidget.obj
 0001:00087be0       ??9iterator@?$QList@VQModelIndex@@@@QBE_NABV01@@Z 10088be0 f i peripheralswidget.obj
 0001:00087c00       ?t@Node@?$QList@URegisterUpdate@@@@QAEAAURegisterUpdate@@XZ 10088c00 f i peripheralswidget.obj
 0001:00087c10       ?isNull@?$Basic@VRegisterValueData@@@QtSharedPointer@@QBE_NXZ 10088c10 f i peripheralswidget.obj
 0001:00087c20       ?verifyReconstruction@?$Basic@VRegisterValueData@@@QtSharedPointer@@IAEXPBVRegisterValueData@@@Z 10088c20 f i peripheralswidget.obj
 0001:00087c30       ?verifyReconstruction@?$Basic@V?$QList@VQModelIndex@@@@@QtSharedPointer@@IAEXPBV?$QList@VQModelIndex@@@@@Z 10088c30 f i peripheralswidget.obj
 0001:00087c40       ?verifyReconstruction@?$Basic@URegisterUpdateBlock@@@QtSharedPointer@@IAEXPBURegisterUpdateBlock@@@Z 10088c40 f i peripheralswidget.obj
 0001:00087c50       ?isNull@?$Basic@VBitfieldValueData@@@QtSharedPointer@@QBE_NXZ 10088c50 f i peripheralswidget.obj
 0001:00087c60       ??0const_iterator@?$QList@V?$QSharedPointer@URegisterUpdateBlock@@@@@@QAE@PAUNode@1@@Z 10088c60 f i peripheralswidget.obj
 0001:00087c70       ?node_construct@?$QList@PAVQStandardItem@@@@AAEXPAUNode@1@ABQAVQStandardItem@@@Z 10088c70 f i peripheralswidget.obj
 0001:00087c80       ?node_construct@?$QList@VQModelIndex@@@@AAEXPAUNode@1@ABVQModelIndex@@@Z 10088c80 f i peripheralswidget.obj
 0001:00087cc0       ??Miterator@?$QList@VQModelIndex@@@@QBE_NABV01@@Z 10088cc0 f i peripheralswidget.obj
 0001:00087cd0       ??Oiterator@?$QList@VQModelIndex@@@@QBE_NABV01@@Z 10088cd0 f i peripheralswidget.obj
 0001:00087ce0       ??Eiterator@?$QList@VQModelIndex@@@@QAEAAV01@XZ 10088ce0 f i peripheralswidget.obj
 0001:00087cf0       ??Fiterator@?$QList@VQModelIndex@@@@QAEAAV01@XZ 10088cf0 f i peripheralswidget.obj
 0001:00087d00       ??Hiterator@?$QList@VQModelIndex@@@@QBE?AV01@H@Z 10088d00 f i peripheralswidget.obj
 0001:00087d20       ??Giterator@?$QList@VQModelIndex@@@@QBE?AV01@H@Z 10088d20 f i peripheralswidget.obj
 0001:00087d40       ??Giterator@?$QList@VQModelIndex@@@@QBEHV01@@Z 10088d40 f i peripheralswidget.obj
 0001:00087d50       ?malloc@?$QVector@PAVRegisterValueData@@@@AAEPAUQVectorData@@H@Z 10088d50 f i peripheralswidget.obj
 0001:00087d70       ?node_destruct@?$QList@PAVQStandardItem@@@@AAEXPAUNode@1@0@Z 10088d70 f i peripheralswidget.obj
 0001:00087d80       ?node_copy@?$QList@PAVQStandardItem@@@@AAEXPAUNode@1@00@Z 10088d80 f i peripheralswidget.obj
 0001:00087d90       ??$qVerifyStaticCast@VRegisterValueData@@VAbstractPeripheralsTreeData@@@QtSharedPointer@@YAPAVRegisterValueData@@PAVAbstractPeripheralsTreeData@@PAV1@@Z 10088d90 f i peripheralswidget.obj
 0001:00087da0       ??$qSwap@VQModelIndex@@@@YAXAAVQModelIndex@@0@Z 10088da0 f i peripheralswidget.obj
 0001:00087de0       ??$qVerifyStaticCast@VBitfieldValueData@@VAbstractPeripheralsTreeData@@@QtSharedPointer@@YAPAVBitfieldValueData@@PAVAbstractPeripheralsTreeData@@PAV1@@Z 10088de0 f i peripheralswidget.obj
 0001:00087df0       ?verifyReconstruction@?$Basic@VBitfieldValueData@@@QtSharedPointer@@IAEXPBVBitfieldValueData@@@Z 10088df0 f i peripheralswidget.obj
 0001:00087e00       ??0?$Basic@VBitfieldValueData@@@QtSharedPointer@@IAE@XZ 10088e00 f i peripheralswidget.obj
 0001:00087e10       ??_GCustomSortFilterProxyModel@@UAEPAXI@Z 10088e10 f i peripheralswidget.obj
 0001:00087e10       ??_ECustomSortFilterProxyModel@@UAEPAXI@Z 10088e10 f i peripheralswidget.obj
 0001:00087e30       ?loadErrorMessageTree@PeripheralsWidget@@AAEXABVQString@@@Z 10088e30 f   peripheralswidget.obj
 0001:00087fd0       ??_EQStandardItem@@UAEPAXI@Z 10088fd0 f i peripheralswidget.obj
 0001:00087fd0       ??_GQStandardItem@@UAEPAXI@Z 10088fd0 f i peripheralswidget.obj
 0001:00087ff0       ??_GPeripheralNameData@@UAEPAXI@Z 10088ff0 f i peripheralswidget.obj
 0001:00087ff0       ??_EPeripheralNameData@@UAEPAXI@Z 10088ff0 f i peripheralswidget.obj
 0001:00088010       ??_GRegisterNameData@@UAEPAXI@Z 10089010 f i peripheralswidget.obj
 0001:00088010       ??_ERegisterNameData@@UAEPAXI@Z 10089010 f i peripheralswidget.obj
 0001:00088030       ??_EBitfieldNameData@@UAEPAXI@Z 10089030 f i peripheralswidget.obj
 0001:00088030       ??_GBitfieldNameData@@UAEPAXI@Z 10089030 f i peripheralswidget.obj
 0001:00088050       ??D?$Basic@VRegisterValueData@@@QtSharedPointer@@QBEAAVRegisterValueData@@XZ 10089050 f i peripheralswidget.obj
 0001:00088060       ??C?$Basic@VRegisterValueData@@@QtSharedPointer@@QBEPAVRegisterValueData@@XZ 10089060 f i peripheralswidget.obj
 0001:00088070       ??1?$QVector@PAVRegisterValueData@@@@QAE@XZ 10089070 f i peripheralswidget.obj
 0001:00088090       ??B?$Basic@V?$QList@VQModelIndex@@@@@QtSharedPointer@@QBEPQ01@PAV?$QList@VQModelIndex@@@@XZ 10089090 f i peripheralswidget.obj
 0001:000880a0       ??D?$Basic@V?$QList@VQModelIndex@@@@@QtSharedPointer@@QBEAAV?$QList@VQModelIndex@@@@XZ 100890a0 f i peripheralswidget.obj
 0001:000880b0       ??C?$Basic@V?$QList@VQModelIndex@@@@@QtSharedPointer@@QBEPAV?$QList@VQModelIndex@@@@XZ 100890b0 f i peripheralswidget.obj
 0001:000880c0       ??D?$Basic@V?$QList@V?$QSharedPointer@URegisterUpdateBlock@@@@@@@QtSharedPointer@@QBEAAV?$QList@V?$QSharedPointer@URegisterUpdateBlock@@@@@@XZ 100890c0 f i peripheralswidget.obj
 0001:000880d0       ??C?$Basic@V?$QList@V?$QSharedPointer@URegisterUpdateBlock@@@@@@@QtSharedPointer@@QBEPAV?$QList@V?$QSharedPointer@URegisterUpdateBlock@@@@@@XZ 100890d0 f i peripheralswidget.obj
 0001:000880e0       ??B?$Basic@URegisterUpdateBlock@@@QtSharedPointer@@QBEPQ01@PAURegisterUpdateBlock@@XZ 100890e0 f i peripheralswidget.obj
 0001:000880f0       ??D?$Basic@URegisterUpdateBlock@@@QtSharedPointer@@QBEAAURegisterUpdateBlock@@XZ 100890f0 f i peripheralswidget.obj
 0001:00088100       ??C?$Basic@URegisterUpdateBlock@@@QtSharedPointer@@QBEPAURegisterUpdateBlock@@XZ 10089100 f i peripheralswidget.obj
 0001:00088110       ?condition@?$QForeachContainer@V?$QList@V?$QSharedPointer@URegisterUpdateBlock@@@@@@@@QBE_NXZ 10089110 f i peripheralswidget.obj
 0001:00088130       ??Dconst_iterator@?$QList@V?$QSharedPointer@URegisterUpdateBlock@@@@@@QBEABV?$QSharedPointer@URegisterUpdateBlock@@@@XZ 10089130 f i peripheralswidget.obj
 0001:00088140       ??C?$Basic@VBitfieldValueData@@@QtSharedPointer@@QBEPAVBitfieldValueData@@XZ 10089140 f i peripheralswidget.obj
 0001:00088150       ??0?$ExternalRefCount@VRegisterValueData@@@QtSharedPointer@@IAE@XZ 10089150 f i peripheralswidget.obj
 0001:00088160       ??0?$ExternalRefCount@VRegisterValueData@@@QtSharedPointer@@IAE@ABV01@@Z 10089160 f i peripheralswidget.obj
 0001:000881a0       ?internalConstruct@?$ExternalRefCount@V?$QList@VQModelIndex@@@@@QtSharedPointer@@IAEXPAV?$QList@VQModelIndex@@@@@Z 100891a0 f i peripheralswidget.obj
 0001:000881e0       ??0?$ExternalRefCount@V?$QList@VQModelIndex@@@@@QtSharedPointer@@IAE@XZ 100891e0 f i peripheralswidget.obj
 0001:000881f0       ??0?$ExternalRefCount@V?$QList@VQModelIndex@@@@@QtSharedPointer@@IAE@ABV01@@Z 100891f0 f i peripheralswidget.obj
 0001:00088230       ?internalConstruct@?$ExternalRefCount@V?$QList@V?$QSharedPointer@URegisterUpdateBlock@@@@@@@QtSharedPointer@@IAEXPAV?$QList@V?$QSharedPointer@URegisterUpdateBlock@@@@@@@Z 10089230 f i peripheralswidget.obj
 0001:00088270       ??0?$ExternalRefCount@V?$QList@V?$QSharedPointer@URegisterUpdateBlock@@@@@@@QtSharedPointer@@IAE@XZ 10089270 f i peripheralswidget.obj
 0001:00088280       ??0?$ExternalRefCount@V?$QList@V?$QSharedPointer@URegisterUpdateBlock@@@@@@@QtSharedPointer@@IAE@ABV01@@Z 10089280 f i peripheralswidget.obj
 0001:000882c0       ?internalConstruct@?$ExternalRefCount@URegisterUpdateBlock@@@QtSharedPointer@@IAEXPAURegisterUpdateBlock@@@Z 100892c0 f i peripheralswidget.obj
 0001:00088300       ??0?$ExternalRefCount@URegisterUpdateBlock@@@QtSharedPointer@@IAE@XZ 10089300 f i peripheralswidget.obj
 0001:00088310       ??0?$ExternalRefCount@URegisterUpdateBlock@@@QtSharedPointer@@IAE@ABV01@@Z 10089310 f i peripheralswidget.obj
 0001:00088350       ??0?$ExternalRefCount@VBitfieldValueData@@@QtSharedPointer@@IAE@ABV01@@Z 10089350 f i peripheralswidget.obj
 0001:00088390       ?internalDestroy@?$ExternalRefCount@VRegisterValueData@@@QtSharedPointer@@IAEXXZ 10089390 f i peripheralswidget.obj
 0001:000883c0       ?internalDestroy@?$ExternalRefCount@VBitfieldValueData@@@QtSharedPointer@@IAEXXZ 100893c0 f i peripheralswidget.obj
 0001:000883f0       ??A?$QList@VQString@@@@QBEABVQString@@H@Z 100893f0 f i peripheralswidget.obj
 0001:00088400       ??A?$QList@URegisterUpdate@@@@QBEABURegisterUpdate@@H@Z 10089400 f i peripheralswidget.obj
 0001:00088410       ??A?$QList@URegion@IMemory@@@@QBEABURegion@IMemory@@H@Z 10089410 f i peripheralswidget.obj
 0001:00088420       ??$prepareNodeAttributes@PAVRegisterValueData@@@?A0x949ed38f@@YA?AU?$QPair@VQString@@_N@@QAVRegisterValueData@@@Z 10089420 f i peripheralswidget.obj
 0001:00088560       ??7?$Basic@VRegisterValueData@@@QtSharedPointer@@QBE_NXZ 10089560 f i peripheralswidget.obj
 0001:00088570       ??7?$Basic@VBitfieldValueData@@@QtSharedPointer@@QBE_NXZ 10089570 f i peripheralswidget.obj
 0001:00088580       ?begin@?$QList@V?$QSharedPointer@URegisterUpdateBlock@@@@@@QBE?AVconst_iterator@1@XZ 10089580 f i peripheralswidget.obj
 0001:000885a0       ?end@?$QList@V?$QSharedPointer@URegisterUpdateBlock@@@@@@QBE?AVconst_iterator@1@XZ 100895a0 f i peripheralswidget.obj
 0001:000885c0       ?realloc@?$QVector@PAVRegisterValueData@@@@AAEXHH@Z 100895c0 f i peripheralswidget.obj
 0001:00088680       ?free@?$QList@PAVQStandardItem@@@@AAEXPAUData@QListData@@@Z 10089680 f i peripheralswidget.obj
 0001:000886a0       ??$qSortHelper@Viterator@?$QList@VQModelIndex@@@@VQModelIndex@@P6A_NABV3@0@Z@QAlgorithmsPrivate@@YAXViterator@?$QList@VQModelIndex@@@@0ABVQModelIndex@@P6A_N11@Z@Z 100896a0 f i peripheralswidget.obj
 0001:00088a20       ?detach_helper@?$QVector@PAVRegisterValueData@@@@AAEXXZ 10089a20 f i peripheralswidget.obj
 0001:00088a30       ??0?$ExternalRefCount@VBitfieldValueData@@@QtSharedPointer@@IAE@XZ 10089a30 f i peripheralswidget.obj
 0001:00088a40       ?getReadMode@BitfieldValueData@@QBE?AW4RegisterIoMode@@XZ 10089a40 f i peripheralswidget.obj
 0001:00088a50       ??0PeripheralsWidget@@QAE@ABVQString@@PAUIMemory@@@Z 10089a50 f   peripheralswidget.obj
 0001:00088fd0       ??_GQStandardItemModel@@UAEPAXI@Z 10089fd0 f i peripheralswidget.obj
 0001:00088fd0       ??_EQStandardItemModel@@UAEPAXI@Z 10089fd0 f i peripheralswidget.obj
 0001:00088ff0       ??_GQLineEdit@@UAEPAXI@Z   10089ff0 f i peripheralswidget.obj
 0001:00088ff0       ??_EQLineEdit@@UAEPAXI@Z   10089ff0 f i peripheralswidget.obj
 0001:00089010       ??_EPeripheralsWidget@@W7AEPAXI@Z 1008a010 f i peripheralswidget.obj
 0001:00089020       ??_EQLineEdit@@W7AEPAXI@Z  1008a020 f i peripheralswidget.obj
 0001:00089030       ??1PeripheralsWidget@@UAE@XZ 1008a030 f   peripheralswidget.obj
 0001:000891a0       ?displayError@PeripheralsWidget@@QAEXABVQString@@@Z 1008a1a0 f   peripheralswidget.obj
 0001:000891b0       ?deref@?$ExternalRefCount@VRegisterValueData@@@QtSharedPointer@@IAE_NXZ 1008a1b0 f i peripheralswidget.obj
 0001:00089200       ?deref@?$ExternalRefCount@VBitfieldValueData@@@QtSharedPointer@@IAE_NXZ 1008a200 f i peripheralswidget.obj
 0001:00089250       ?append@?$QVector@PAVRegisterValueData@@@@QAEXABQAVRegisterValueData@@@Z 1008a250 f i peripheralswidget.obj
 0001:000892c0       ??1?$QList@PAVQStandardItem@@@@QAE@XZ 1008a2c0 f i peripheralswidget.obj
 0001:000892e0       ??$prepareNodeAttributes@PAVBitfieldValueData@@@?A0x949ed38f@@YA?AU?$QPair@VQString@@_N@@QAVBitfieldValueData@@@Z 1008a2e0 f i peripheralswidget.obj
 0001:00089420       ??$qSort@Viterator@?$QList@VQModelIndex@@@@P6A_NABVQModelIndex@@0@Z@@YAXViterator@?$QList@VQModelIndex@@@@0P6A_NABVQModelIndex@@1@Z@Z 1008a420 f i peripheralswidget.obj
 0001:00089450       ?internalSet@?$ExternalRefCount@VRegisterValueData@@@QtSharedPointer@@QAEXPAUExternalRefCountData@2@PAVRegisterValueData@@@Z 1008a450 f i peripheralswidget.obj
 0001:000894d0       ??4?$QVector@PAVRegisterValueData@@@@QAEAAV0@ABV0@@Z 1008a4d0 f i peripheralswidget.obj
 0001:00089520       ?detach_helper@?$QList@PAVQStandardItem@@@@AAEXXZ 1008a520 f i peripheralswidget.obj
 0001:00089540       ?internalSet@?$ExternalRefCount@VBitfieldValueData@@@QtSharedPointer@@QAEXPAUExternalRefCountData@2@PAVBitfieldValueData@@@Z 1008a540 f i peripheralswidget.obj
 0001:000895c0       ??_EPeripheralsWidget@@UAEPAXI@Z 1008a5c0 f i peripheralswidget.obj
 0001:000895c0       ??_GPeripheralsWidget@@UAEPAXI@Z 1008a5c0 f i peripheralswidget.obj
 0001:000895e0       ??1?$ExternalRefCount@VRegisterValueData@@@QtSharedPointer@@IAE@XZ 1008a5e0 f i peripheralswidget.obj
 0001:00089610       ?push_back@?$QVector@PAVRegisterValueData@@@@QAEXABQAVRegisterValueData@@@Z 1008a610 f i peripheralswidget.obj
 0001:00089620       ??1?$ExternalRefCount@VBitfieldValueData@@@QtSharedPointer@@IAE@XZ 1008a620 f i peripheralswidget.obj
 0001:00089650       ?clear@?$QVector@PAVRegisterValueData@@@@QAEXXZ 1008a650 f i peripheralswidget.obj
 0001:000896f0       ??$internalCopy@VRegisterValueData@@@?$ExternalRefCount@VRegisterValueData@@@QtSharedPointer@@IAEXABV01@@Z 1008a6f0 f i peripheralswidget.obj
 0001:00089710       ?detach@?$QList@PAVQStandardItem@@@@QAEXXZ 1008a710 f i peripheralswidget.obj
 0001:00089740       ??0?$QSharedPointer@VBitfieldValueData@@@@QAE@XZ 1008a740 f i peripheralswidget.obj
 0001:00089750       ?detach@PeripheralsWidget@@QAEXXZ 1008a750 f   peripheralswidget.obj
 0001:00089790       ??1?$QSharedPointer@VRegisterValueData@@@@QAE@XZ 1008a790 f i peripheralswidget.obj
 0001:000897c0       ??1RegisterUpdate@@QAE@XZ  1008a7c0 f i peripheralswidget.obj
 0001:00089820       ??1?$QSharedPointer@VBitfieldValueData@@@@QAE@XZ 1008a820 f i peripheralswidget.obj
 0001:0008a1f0       ??0?$QSharedPointer@VRegisterValueData@@@@QAE@XZ 1008b1f0 f i peripheralswidget.obj
 0001:0008a200       ??0?$QSharedPointer@VRegisterValueData@@@@QAE@ABV0@@Z 1008b200 f i peripheralswidget.obj
 0001:0008a240       ??4?$QSharedPointer@VRegisterValueData@@@@QAEAAV0@ABV0@@Z 1008b240 f i peripheralswidget.obj
 0001:0008a260       ??0?$QSharedPointer@VBitfieldValueData@@@@QAE@ABV0@@Z 1008b260 f i peripheralswidget.obj
 0001:0008a2a0       ?detach@?$QList@VQModelIndex@@@@QAEXXZ 1008b2a0 f i peripheralswidget.obj
 0001:0008a2b0       ??_G?$QList@VQModelIndex@@@@QAEPAXI@Z 1008b2b0 f i peripheralswidget.obj
 0001:0008a310       ?append@?$QList@PAVQStandardItem@@@@QAEXABQAVQStandardItem@@@Z 1008b310 f i peripheralswidget.obj
 0001:0008a360       ?append@?$QList@VQModelIndex@@@@QAEXABVQModelIndex@@@Z 1008b360 f i peripheralswidget.obj
 0001:0008a3c0       ??$prepareNodeAttributes@V?$QSharedPointer@VRegisterValueData@@@@@?A0x949ed38f@@YA?AU?$QPair@VQString@@_N@@V?$QSharedPointer@VRegisterValueData@@@@@Z 1008b3c0 f i peripheralswidget.obj
 0001:0008a560       ??$prepareNodeAttributes@V?$QSharedPointer@VBitfieldValueData@@@@@?A0x949ed38f@@YA?AU?$QPair@VQString@@_N@@V?$QSharedPointer@VBitfieldValueData@@@@@Z 1008b560 f i peripheralswidget.obj
 0001:0008a710       ??0RegisterUpdate@@QAE@ABU0@@Z 1008b710 f i peripheralswidget.obj
 0001:0008a760       ??4RegisterUpdate@@QAEAAU0@ABU0@@Z 1008b760 f i peripheralswidget.obj
 0001:0008a7a0       ?node_copy@?$QList@URegisterUpdate@@@@AAEXPAUNode@1@00@Z 1008b7a0 f i peripheralswidget.obj
 0001:0008a820       ??$qSharedPointerCastHelper@VRegisterValueData@@VAbstractPeripheralsTreeData@@@QtSharedPointer@@YA?AV?$QSharedPointer@VRegisterValueData@@@@ABV?$QSharedPointer@VAbstractPeripheralsTreeData@@@@PAVRegisterValueData@@@Z 1008b820 f i peripheralswidget.obj
 0001:0008a880       ??$qSharedPointerCastHelper@VBitfieldValueData@@VAbstractPeripheralsTreeData@@@QtSharedPointer@@YA?AV?$QSharedPointer@VBitfieldValueData@@@@ABV?$QSharedPointer@VAbstractPeripheralsTreeData@@@@PAVBitfieldValueData@@@Z 1008b880 f i peripheralswidget.obj
 0001:0008a8e0       ??_GRegisterUpdate@@QAEPAXI@Z 1008b8e0 f i peripheralswidget.obj
 0001:0008a900       ?regionFromName@PeripheralsWidget@@ABEHABVQString@@@Z 1008b900 f   peripheralswidget.obj
 0001:0008a9e0       ??0RegisterUpdate@@QAE@XZ  1008b9e0 f i peripheralswidget.obj
 0001:0008aae0       ??6?$QList@PAVQStandardItem@@@@QAEAAV0@ABQAVQStandardItem@@@Z 1008bae0 f i peripheralswidget.obj
 0001:0008ab30       ?begin@?$QList@VQModelIndex@@@@QAE?AViterator@1@XZ 1008bb30 f i peripheralswidget.obj
 0001:0008ab60       ?end@?$QList@VQModelIndex@@@@QAE?AViterator@1@XZ 1008bb60 f i peripheralswidget.obj
 0001:0008ab90       ?push_back@?$QList@VQModelIndex@@@@QAEXABVQModelIndex@@@Z 1008bb90 f i peripheralswidget.obj
 0001:0008aba0       ?internalDestroy@?$ExternalRefCount@V?$QList@VQModelIndex@@@@@QtSharedPointer@@IAEXXZ 1008bba0 f i peripheralswidget.obj
 0001:0008ac00       ?node_construct@?$QList@URegisterUpdate@@@@AAEXPAUNode@1@ABURegisterUpdate@@@Z 1008bc00 f i peripheralswidget.obj
 0001:0008ac30       ??$qSharedPointerCast@VRegisterValueData@@VAbstractPeripheralsTreeData@@@@YA?AV?$QSharedPointer@VRegisterValueData@@@@ABV?$QSharedPointer@VAbstractPeripheralsTreeData@@@@@Z 1008bc30 f i peripheralswidget.obj
 0001:0008ac60       ??$qSharedPointerCast@VBitfieldValueData@@VAbstractPeripheralsTreeData@@@@YA?AV?$QSharedPointer@VBitfieldValueData@@@@ABV?$QSharedPointer@VAbstractPeripheralsTreeData@@@@@Z 1008bc60 f i peripheralswidget.obj
 0001:0008ac90       ?node_destruct@?$QList@URegisterUpdate@@@@AAEXPAUNode@1@0@Z 1008bc90 f i peripheralswidget.obj
 0001:0008acd0       ?newFormat@PeripheralsWidget@@QAEXABV?$QList@VQModelIndex@@@@W4DisplayFormat@@@Z 1008bcd0 f   peripheralswidget.obj
 0001:0008b090       ?findDefaultDataRegion@PeripheralsWidget@@ABEHXZ 1008c090 f   peripheralswidget.obj
 0001:0008b170       ?deref@?$ExternalRefCount@V?$QList@VQModelIndex@@@@@QtSharedPointer@@IAE_NXZ 1008c170 f i peripheralswidget.obj
 0001:0008b1b0       ??$staticCast@VRegisterValueData@@@?$QSharedPointer@VAbstractPeripheralsTreeData@@@@QBE?AV?$QSharedPointer@VRegisterValueData@@@@XZ 1008c1b0 f i peripheralswidget.obj
 0001:0008b1d0       ??$staticCast@VBitfieldValueData@@@?$QSharedPointer@VAbstractPeripheralsTreeData@@@@QBE?AV?$QSharedPointer@VBitfieldValueData@@@@XZ 1008c1d0 f i peripheralswidget.obj
 0001:0008b1f0       ?internalSet@?$ExternalRefCount@V?$QList@VQModelIndex@@@@@QtSharedPointer@@QAEXPAUExternalRefCountData@2@PAV?$QList@VQModelIndex@@@@@Z 1008c1f0 f i peripheralswidget.obj
 0001:0008b280       ?free@?$QList@URegisterUpdate@@@@AAEXPAUData@QListData@@@Z 1008c280 f i peripheralswidget.obj
 0001:0008b2b0       ?loadBitFields@PeripheralsWidget@@AAEXABVQDomNodeList@@PAVQStandardItem@@1_N@Z 1008c2b0 f   peripheralswidget.obj
 0001:0008bbf0       ?updateVisibleBitfields@PeripheralsWidget@@AAEXPAVQStandardItem@@QBVQString@@@Z 1008cbf0 f   peripheralswidget.obj
 0001:0008be80       ??1?$ExternalRefCount@V?$QList@VQModelIndex@@@@@QtSharedPointer@@IAE@XZ 1008ce80 f i peripheralswidget.obj
 0001:0008bec0       ??1?$QList@URegisterUpdate@@@@QAE@XZ 1008cec0 f i peripheralswidget.obj
 0001:0008bf00       ??$internalCopy@V?$QList@VQModelIndex@@@@@?$ExternalRefCount@V?$QList@VQModelIndex@@@@@QtSharedPointer@@IAEXABV01@@Z 1008cf00 f i peripheralswidget.obj
 0001:0008bf20       ?detach_helper@?$QList@URegisterUpdate@@@@AAEXXZ 1008cf20 f i peripheralswidget.obj
 0001:0008bf90       ?loadRegisters@PeripheralsWidget@@AAEXABVQDomNodeList@@ABVQString@@HPAVQStandardItem@@@Z 1008cf90 f   peripheralswidget.obj
 0001:0008d1c0       ??1?$QSharedPointer@V?$QList@VQModelIndex@@@@@@QAE@XZ 1008e1c0 f i peripheralswidget.obj
 0001:0008d200       ??0RegisterUpdateBlock@@QAE@XZ 1008e200 f i peripheralswidget.obj
 0001:0008d220       ?drawValues@PeripheralsWidget@@AAEXABVQModelIndex@@_NQBVQString@@ABV3@@Z 1008e220 f   peripheralswidget.obj
 0001:0008d330       ??0?$QSharedPointer@V?$QList@VQModelIndex@@@@@@QAE@XZ 1008e330 f i peripheralswidget.obj
 0001:0008d340       ??0?$QSharedPointer@V?$QList@VQModelIndex@@@@@@QAE@PAV?$QList@VQModelIndex@@@@@Z 1008e340 f i peripheralswidget.obj
 0001:0008d3b0       ??0?$QSharedPointer@V?$QList@VQModelIndex@@@@@@QAE@ABV0@@Z 1008e3b0 f i peripheralswidget.obj
 0001:0008d3f0       ??4?$QSharedPointer@V?$QList@VQModelIndex@@@@@@QAEAAV0@ABV0@@Z 1008e3f0 f i peripheralswidget.obj
 0001:0008d410       ??1RegisterUpdateBlock@@QAE@XZ 1008e410 f i peripheralswidget.obj
 0001:0008d450       ?detach@?$QList@URegisterUpdate@@@@QAEXXZ 1008e450 f i peripheralswidget.obj
 0001:0008d460       ?loadModel@PeripheralsWidget@@AAEXABVQDomDocument@@H@Z 1008e460 f   peripheralswidget.obj
 0001:0008d850       ?dataChanged@PeripheralsWidget@@AAEXABVQModelIndex@@0@Z 1008e850 f   peripheralswidget.obj
 0001:0008e080       ?listOfVisibleRegisterValues@PeripheralsWidget@@ABE?AV?$QSharedPointer@V?$QList@VQModelIndex@@@@@@XZ 1008f080 f   peripheralswidget.obj
 0001:0008e290       ?extractRegisterValues@PeripheralsWidget@@ABE?AV?$QSharedPointer@V?$QList@VQModelIndex@@@@@@ABV?$QList@VQModelIndex@@@@@Z 1008f290 f   peripheralswidget.obj
 0001:0008e5c0       ?updateRegisterBlockAndChildren@PeripheralsWidget@@AAEXABURegisterUpdateBlock@@ABURegion@IMemory@@@Z 1008f5c0 f   peripheralswidget.obj
 0001:0008e980       ??_GRegisterUpdateBlock@@QAEPAXI@Z 1008f980 f i peripheralswidget.obj
 0001:0008e9e0       ?append@?$QList@URegisterUpdate@@@@QAEXABURegisterUpdate@@@Z 1008f9e0 f i peripheralswidget.obj
 0001:0008ea30       ?displayPeripherals@PeripheralsWidget@@QAEX_N0V?$QSharedPointer@VQDomDocument@@@@@Z 1008fa30 f   peripheralswidget.obj
 0001:0008ecf0       ?internalDestroy@?$ExternalRefCount@URegisterUpdateBlock@@@QtSharedPointer@@IAEXXZ 1008fcf0 f i peripheralswidget.obj
 0001:0008ed50       ?deref@?$ExternalRefCount@URegisterUpdateBlock@@@QtSharedPointer@@IAE_NXZ 1008fd50 f i peripheralswidget.obj
 0001:0008ed90       ?internalSet@?$ExternalRefCount@URegisterUpdateBlock@@@QtSharedPointer@@QAEXPAUExternalRefCountData@2@PAURegisterUpdateBlock@@@Z 1008fd90 f i peripheralswidget.obj
 0001:0008ee20       ??1?$ExternalRefCount@URegisterUpdateBlock@@@QtSharedPointer@@IAE@XZ 1008fe20 f i peripheralswidget.obj
 0001:0008ee60       ??$internalCopy@URegisterUpdateBlock@@@?$ExternalRefCount@URegisterUpdateBlock@@@QtSharedPointer@@IAEXABV01@@Z 1008fe60 f i peripheralswidget.obj
 0001:0008ee80       ??1?$QSharedPointer@URegisterUpdateBlock@@@@QAE@XZ 1008fe80 f i peripheralswidget.obj
 0001:0008eec0       ??0?$QSharedPointer@URegisterUpdateBlock@@@@QAE@XZ 1008fec0 f i peripheralswidget.obj
 0001:0008eed0       ??0?$QSharedPointer@URegisterUpdateBlock@@@@QAE@PAURegisterUpdateBlock@@@Z 1008fed0 f i peripheralswidget.obj
 0001:0008ef40       ??0?$QSharedPointer@URegisterUpdateBlock@@@@QAE@ABV0@@Z 1008ff40 f i peripheralswidget.obj
 0001:0008ef80       ??4?$QSharedPointer@URegisterUpdateBlock@@@@QAEAAV0@ABV0@@Z 1008ff80 f i peripheralswidget.obj
 0001:0008efa0       ?node_construct@?$QList@V?$QSharedPointer@URegisterUpdateBlock@@@@@@AAEXPAUNode@1@ABV?$QSharedPointer@URegisterUpdateBlock@@@@@Z 1008ffa0 f i peripheralswidget.obj
 0001:0008eff0       ?node_copy@?$QList@V?$QSharedPointer@URegisterUpdateBlock@@@@@@AAEXPAUNode@1@00@Z 1008fff0 f i peripheralswidget.obj
 0001:0008f060       ??_G?$QSharedPointer@URegisterUpdateBlock@@@@QAEPAXI@Z 10090060 f i peripheralswidget.obj
 0001:0008f0c0       ?node_destruct@?$QList@V?$QSharedPointer@URegisterUpdateBlock@@@@@@AAEXPAUNode@1@0@Z 100900c0 f i peripheralswidget.obj
 0001:0008f130       ?free@?$QList@V?$QSharedPointer@URegisterUpdateBlock@@@@@@AAEXPAUData@QListData@@@Z 10090130 f i peripheralswidget.obj
 0001:0008f160       ??1?$QList@V?$QSharedPointer@URegisterUpdateBlock@@@@@@QAE@XZ 10090160 f i peripheralswidget.obj
 0001:0008f1a0       ?detach_helper@?$QList@V?$QSharedPointer@URegisterUpdateBlock@@@@@@AAEXXZ 100901a0 f i peripheralswidget.obj
 0001:0008f210       ??1?$QForeachContainer@V?$QList@V?$QSharedPointer@URegisterUpdateBlock@@@@@@@@QAE@XZ 10090210 f i peripheralswidget.obj
 0001:0008f250       ??_G?$QList@V?$QSharedPointer@URegisterUpdateBlock@@@@@@QAEPAXI@Z 10090250 f i peripheralswidget.obj
 0001:0008f2b0       ?detach@?$QList@V?$QSharedPointer@URegisterUpdateBlock@@@@@@QAEXXZ 100902b0 f i peripheralswidget.obj
 0001:0008f2c0       ??0?$QList@V?$QSharedPointer@URegisterUpdateBlock@@@@@@QAE@ABV0@@Z 100902c0 f i peripheralswidget.obj
 0001:0008f2f0       ?internalDestroy@?$ExternalRefCount@V?$QList@V?$QSharedPointer@URegisterUpdateBlock@@@@@@@QtSharedPointer@@IAEXXZ 100902f0 f i peripheralswidget.obj
 0001:0008f350       ?append@?$QList@V?$QSharedPointer@URegisterUpdateBlock@@@@@@QAEXABV?$QSharedPointer@URegisterUpdateBlock@@@@@Z 10090350 f i peripheralswidget.obj
 0001:0008f3a0       ??0?$QForeachContainer@V?$QList@V?$QSharedPointer@URegisterUpdateBlock@@@@@@@@QAE@ABV?$QList@V?$QSharedPointer@URegisterUpdateBlock@@@@@@@Z 100903a0 f i peripheralswidget.obj
 0001:0008f3f0       ?deref@?$ExternalRefCount@V?$QList@V?$QSharedPointer@URegisterUpdateBlock@@@@@@@QtSharedPointer@@IAE_NXZ 100903f0 f i peripheralswidget.obj
 0001:0008f430       ??$qForeachContainerNew@V?$QList@V?$QSharedPointer@URegisterUpdateBlock@@@@@@@@YA?AV?$QForeachContainer@V?$QList@V?$QSharedPointer@URegisterUpdateBlock@@@@@@@@ABV?$QList@V?$QSharedPointer@URegisterUpdateBlock@@@@@@@Z 10090430 f i peripheralswidget.obj
 0001:0008f490       ??1?$ExternalRefCount@V?$QList@V?$QSharedPointer@URegisterUpdateBlock@@@@@@@QtSharedPointer@@IAE@XZ 10090490 f i peripheralswidget.obj
 0001:0008f4d0       ??1?$QSharedPointer@V?$QList@V?$QSharedPointer@URegisterUpdateBlock@@@@@@@@QAE@XZ 100904d0 f i peripheralswidget.obj
 0001:0008f510       ?updateModelFromChip@PeripheralsWidget@@AAEXV?$QSharedPointer@V?$QList@V?$QSharedPointer@URegisterUpdateBlock@@@@@@@@@Z 10090510 f   peripheralswidget.obj
 0001:0008f750       ??0?$QSharedPointer@V?$QList@V?$QSharedPointer@URegisterUpdateBlock@@@@@@@@QAE@PAV?$QList@V?$QSharedPointer@URegisterUpdateBlock@@@@@@@Z 10090750 f i peripheralswidget.obj
 0001:0008f7c0       ??0?$QSharedPointer@V?$QList@V?$QSharedPointer@URegisterUpdateBlock@@@@@@@@QAE@ABV0@@Z 100907c0 f i peripheralswidget.obj
 0001:0008f800       ?buildRegisterUpdateBlocksList@PeripheralsWidget@@ABE?AV?$QSharedPointer@V?$QList@V?$QSharedPointer@URegisterUpdateBlock@@@@@@@@ABV?$QList@VQModelIndex@@@@_N@Z 10090800 f   peripheralswidget.obj
 0001:00090090       ?updateVisibleRegisters@PeripheralsWidget@@QAEXPBV?$QList@VQModelIndex@@@@_N@Z 10091090 f   peripheralswidget.obj
 0001:00090300       ?sortIndicatorChanged@PeripheralsWidget@@AAEXHW4SortOrder@Qt@@@Z 10091300 f   peripheralswidget.obj
 0001:00090320       ?treeViewAction@PeripheralsWidget@@AAEXABVQModelIndex@@@Z 10091320 f   peripheralswidget.obj
 0001:00090330       ?forceRefresh@PeripheralsWidget@@QAEXXZ 10091330 f   peripheralswidget.obj
 0001:00090360       ?refreshButtonPressed@PeripheralsWidget@@AAEXXZ 10091360 f   peripheralswidget.obj
 0001:00090390       ?update@PeripheralsWidget@@QAEX_N0@Z 10091390 f   peripheralswidget.obj
 0001:000903f0       ?qHash@@YAIABVQModelIndex@@@Z 100913f0 f i peripheralswidgetnode.obj
 0001:00090400       ?getReadUnitWidth@RegisterValueData@@QBEIXZ 10091400 f i peripheralswidgetnode.obj
 0001:00090410       ?getWidth@BitfieldValueData@@QBEIXZ 10091410 f i peripheralswidgetnode.obj
 0001:00090420       ?calcNumDataUnits@?A0x474e385e@@YAIII@Z 10091420 f   peripheralswidgetnode.obj
 0001:00090460       ?accumulateUint64@?A0x474e385e@@YA_KPBU?$QPair@IW4MemoryResult@IMemory@@@@HH@Z 10091460 f   peripheralswidgetnode.obj
 0001:00090520       ?formatScientific@?A0x474e385e@@YA?AVQString@@PBU?$QPair@IW4MemoryResult@IMemory@@@@HHH_NW4DisplayFormat@@@Z 10091520 f   peripheralswidgetnode.obj
 0001:000907e0       ?signExtend@?A0x474e385e@@YA_JIH@Z 100917e0 f   peripheralswidgetnode.obj
 0001:00090830       ?formatDataValue@?A0x474e385e@@YA?AVQString@@PBU?$QPair@IW4MemoryResult@IMemory@@@@HHH_NW4DisplayFormat@@@Z 10091830 f   peripheralswidgetnode.obj
 0001:00090b60       ?formatDataValue@?A0x474e385e@@YA?AVQString@@IHW4DisplayFormat@@@Z 10091b60 f   peripheralswidgetnode.obj
 0001:00090f20       ??1AbstractPeripheralsTreeData@@UAE@XZ 10091f20 f   peripheralswidgetnode.obj
 0001:00090f30       ?lessThan@BitfieldValueData@@QBE_NABV1@@Z 10091f30 f   peripheralswidgetnode.obj
 0001:00090f60       ?calcRegisterValue@BitfieldValueData@@QBEIII@Z 10091f60 f   peripheralswidgetnode.obj
 0001:00090f90       ?data@?$QVector@U?$QPair@IW4MemoryResult@IMemory@@@@@@QBEPBU?$QPair@IW4MemoryResult@IMemory@@@@XZ 10091f90 f i peripheralswidgetnode.obj
 0001:00090fa0       ??0?$QHash@VQModelIndex@@UQHashDummyValue@@@@QAE@XZ 10091fa0 f i peripheralswidgetnode.obj
 0001:00090fc0       ??0const_iterator@?$QSet@VQModelIndex@@@@QAE@V0?$QHash@VQModelIndex@@UQHashDummyValue@@@@@Z 10091fc0 f i peripheralswidgetnode.obj
 0001:00090fd0       ??0const_iterator@?$QHash@VQModelIndex@@UQHashDummyValue@@@@QAE@ABViterator@1@@Z 10091fd0 f i peripheralswidgetnode.obj
 0001:00090fe0       ?internalConstruct@?$Basic@VAbstractPeripheralsTreeData@@@QtSharedPointer@@IAEXPAVAbstractPeripheralsTreeData@@@Z 10091fe0 f i peripheralswidgetnode.obj
 0001:00090ff0       ??A?$QVector@U?$QPair@IW4MemoryResult@IMemory@@@@@@QBEABU?$QPair@IW4MemoryResult@IMemory@@@@H@Z 10091ff0 f i peripheralswidgetnode.obj
 0001:00091000       ??0iterator@?$QHash@VQModelIndex@@UQHashDummyValue@@@@QAE@PAX@Z 10092000 f i peripheralswidgetnode.obj
 0001:00091010       ??9const_iterator@?$QHash@VQModelIndex@@UQHashDummyValue@@@@QBE_NABV01@@Z 10092010 f i peripheralswidgetnode.obj
 0001:00091030       ??Econst_iterator@?$QHash@VQModelIndex@@UQHashDummyValue@@@@QAEAAV01@XZ 10092030 f i peripheralswidgetnode.obj
 0001:00091050       ?concrete@?$QHash@VQModelIndex@@UQHashDummyValue@@@@CAPAU?$QHashNode@VQModelIndex@@UQHashDummyValue@@@@PAUNode@QHashData@@@Z 10092050 f i peripheralswidgetnode.obj
 0001:00091060       ??0const_iterator@?$QHash@VQModelIndex@@UQHashDummyValue@@@@QAE@PAX@Z 10092060 f i peripheralswidgetnode.obj
 0001:00091070       ??1?$QHashNode@VQModelIndex@@UQHashDummyValue@@@@QAE@XZ 10092070 f i peripheralswidgetnode.obj
 0001:00091080       ??0?$QHashNode@VQModelIndex@@UQHashDummyValue@@@@QAE@ABVQModelIndex@@ABUQHashDummyValue@@@Z 10092080 f i peripheralswidgetnode.obj
 0001:000910a0       ?same_key@?$QHashNode@VQModelIndex@@UQHashDummyValue@@@@QAE_NIABVQModelIndex@@@Z 100920a0 f i peripheralswidgetnode.obj
 0001:000910e0       ??0?$QHashDummyNode@VQModelIndex@@UQHashDummyValue@@@@QAE@ABVQModelIndex@@@Z 100920e0 f i peripheralswidgetnode.obj
 0001:00091100       ?duplicateNode@?$QHash@VQModelIndex@@UQHashDummyValue@@@@CAXPAUNode@QHashData@@PAX@Z 10092100 f i peripheralswidgetnode.obj
 0001:00091130       ?getDisplayString@RegisterValueData@@QBE?AVQString@@XZ 10092130 f   peripheralswidgetnode.obj
 0001:00091210       ?getDisplayString@BitfieldValueData@@QBE?AVQString@@XZ 10092210 f   peripheralswidgetnode.obj
 0001:000912f0       ?internalConstruct@?$ExternalRefCount@VAbstractPeripheralsTreeData@@@QtSharedPointer@@IAEXPAVAbstractPeripheralsTreeData@@@Z 100922f0 f i peripheralswidgetnode.obj
 0001:00091330       ?append@?$QVector@U?$QPair@IW4MemoryResult@IMemory@@@@@@QAEXABU?$QPair@IW4MemoryResult@IMemory@@@@@Z 10092330 f i peripheralswidgetnode.obj
 0001:000913c0       ??9const_iterator@?$QSet@VQModelIndex@@@@QBE_NABV01@@Z 100923c0 f i peripheralswidgetnode.obj
 0001:000913e0       ??Econst_iterator@?$QSet@VQModelIndex@@@@QAEAAV01@XZ 100923e0 f i peripheralswidgetnode.obj
 0001:00091400       ?constBegin@?$QHash@VQModelIndex@@UQHashDummyValue@@@@QBE?AVconst_iterator@1@XZ 10092400 f i peripheralswidgetnode.obj
 0001:00091430       ?constEnd@?$QHash@VQModelIndex@@UQHashDummyValue@@@@QBE?AVconst_iterator@1@XZ 10092430 f i peripheralswidgetnode.obj
 0001:00091440       ?key@const_iterator@?$QHash@VQModelIndex@@UQHashDummyValue@@@@QBEABVQModelIndex@@XZ 10092440 f i peripheralswidgetnode.obj
 0001:00091450       ?findNode@?$QHash@VQModelIndex@@UQHashDummyValue@@@@ABEPAPAU?$QHashNode@VQModelIndex@@UQHashDummyValue@@@@ABVQModelIndex@@PAI@Z 10092450 f i peripheralswidgetnode.obj
 0001:000914d0       ?createNode@?$QHash@VQModelIndex@@UQHashDummyValue@@@@AAEPAU?$QHashNode@VQModelIndex@@UQHashDummyValue@@@@IABVQModelIndex@@ABUQHashDummyValue@@PAPAU2@@Z 100924d0 f i peripheralswidgetnode.obj
 0001:00091520       ??_G?$QHashNode@VQModelIndex@@UQHashDummyValue@@@@QAEPAXI@Z 10092520 f i peripheralswidgetnode.obj
 0001:00091550       ?push_back@?$QVector@U?$QPair@IW4MemoryResult@IMemory@@@@@@QAEXABU?$QPair@IW4MemoryResult@IMemory@@@@@Z 10092550 f i peripheralswidgetnode.obj
 0001:00091560       ??4?$QVector@U?$QPair@IW4MemoryResult@IMemory@@@@@@QAEAAV0@ABV0@@Z 10092560 f i peripheralswidgetnode.obj
 0001:000915b0       ?constBegin@?$QSet@VQModelIndex@@@@QBE?AVconst_iterator@1@XZ 100925b0 f i peripheralswidgetnode.obj
 0001:000915e0       ?constEnd@?$QSet@VQModelIndex@@@@QBE?AVconst_iterator@1@XZ 100925e0 f i peripheralswidgetnode.obj
 0001:000915f0       ??Dconst_iterator@?$QSet@VQModelIndex@@@@QBEABVQModelIndex@@XZ 100925f0 f i peripheralswidgetnode.obj
 0001:00091600       ?deleteNode@?$QHash@VQModelIndex@@UQHashDummyValue@@@@AAEXPAU?$QHashNode@VQModelIndex@@UQHashDummyValue@@@@@Z 10092600 f i peripheralswidgetnode.obj
 0001:00091620       ?extractBitfield@RegisterValueData@@QBE?AV?$QVector@U?$QPair@IW4MemoryResult@IMemory@@@@@@ABVQPoint@@@Z 10092620 f   peripheralswidgetnode.obj
 0001:000916e0       ?freeData@?$QHash@VQModelIndex@@UQHashDummyValue@@@@AAEXPAUQHashData@@@Z 100926e0 f i peripheralswidgetnode.obj
 0001:00091750       ?detach_helper@?$QHash@VQModelIndex@@UQHashDummyValue@@@@AAEXXZ 10092750 f i peripheralswidgetnode.obj
 0001:00091790       ??0RegisterValueData@@QAE@IIIW4RegisterIoMode@@0H_N@Z 10092790 f   peripheralswidgetnode.obj
 0001:00091890       ?isRegisterValue@RegisterValueData@@UBE_NXZ 10092890 f i peripheralswidgetnode.obj
 0001:000918a0       ??1RegisterValueData@@UAE@XZ 100928a0 f i peripheralswidgetnode.obj
 0001:00091900       ??_ERegisterValueData@@UAEPAXI@Z 10092900 f i peripheralswidgetnode.obj
 0001:00091900       ??_GRegisterValueData@@UAEPAXI@Z 10092900 f i peripheralswidgetnode.obj
 0001:00091920       ?updateValue@RegisterValueData@@QAEXPBU?$QPair@IW4MemoryResult@IMemory@@@@I@Z 10092920 f   peripheralswidgetnode.obj
 0001:00091a90       ?updateValue@BitfieldValueData@@QAEXXZ 10092a90 f   peripheralswidgetnode.obj
 0001:00091c30       ??0?$QSharedPointer@VAbstractPeripheralsTreeData@@@@QAE@PAVAbstractPeripheralsTreeData@@@Z 10092c30 f i peripheralswidgetnode.obj
 0001:00091ca0       ??1?$QHash@VQModelIndex@@UQHashDummyValue@@@@QAE@XZ 10092ca0 f i peripheralswidgetnode.obj
 0001:00091cc0       ?detach@?$QHash@VQModelIndex@@UQHashDummyValue@@@@QAEXXZ 10092cc0 f i peripheralswidgetnode.obj
 0001:00091d00       ??0PeripheralsTreeNodeHolder@@QAE@V?$QSharedPointer@VAbstractPeripheralsTreeData@@@@@Z 10092d00 f i peripheralswidgetnode.obj
 0001:00091d90       ??0BitfieldValueData@@QAE@ABVQPoint@@V?$QSharedPointer@VRegisterValueData@@@@@Z 10092d90 f   peripheralswidgetnode.obj
 0001:00091f20       ?isBitfieldValue@BitfieldValueData@@UBE_NXZ 10092f20 f i peripheralswidgetnode.obj
 0001:00091f30       ??1BitfieldValueData@@UAE@XZ 10092f30 f i peripheralswidgetnode.obj
 0001:00091fc0       ??_GBitfieldValueData@@UAEPAXI@Z 10092fc0 f i peripheralswidgetnode.obj
 0001:00091fc0       ??_EBitfieldValueData@@UAEPAXI@Z 10092fc0 f i peripheralswidgetnode.obj
 0001:00091fe0       ??1?$QSet@VQModelIndex@@@@QAE@XZ 10092fe0 f i peripheralswidgetnode.obj
 0001:00092000       ??0?$QSet@VQModelIndex@@@@QAE@XZ 10093000 f i peripheralswidgetnode.obj
 0001:00092020       ?insert@?$QHash@VQModelIndex@@UQHashDummyValue@@@@QAE?AViterator@1@ABVQModelIndex@@ABUQHashDummyValue@@@Z 10093020 f i peripheralswidgetnode.obj
 0001:000920f0       ?toList@?$QSet@VQModelIndex@@@@QBE?AV?$QList@VQModelIndex@@@@XZ 100930f0 f i peripheralswidgetnode.obj
 0001:000921d0       ?insert@?$QSet@VQModelIndex@@@@QAE?AVconst_iterator@1@ABVQModelIndex@@@Z 100931d0 f i peripheralswidgetnode.obj
 0001:000921f0       ??$qVariantSetValue@VPeripheralsTreeNodeHolder@@@@YAXAAVQVariant@@ABVPeripheralsTreeNodeHolder@@@Z 100931f0 f i peripheralswidgetnode.obj
